---
triple:          'arm64-apple-darwin'
binary-path:     '/Users/robertfennis/EMerge/EMerge-DSS/CRINGEPACK/target/debug/deps/lib_cringepack.dylib'
relocations:
  - { offset: 0x1E, size: 0x8, addend: 0x0, symName: '__ZN109_$LT$pyo3..types..dict..borrowed_iter..BorrowedDictIter$u20$as$u20$core..iter..traits..iterator..Iterator$GT$4next17h8b407bbce457378bE', symObjAddr: 0x0, symBinAddr: 0x890, symSize: 0xD4 }
  - { offset: 0x1257, size: 0x8, addend: 0x0, symName: '__ZN109_$LT$pyo3..types..dict..borrowed_iter..BorrowedDictIter$u20$as$u20$core..iter..traits..iterator..Iterator$GT$4next17h8b407bbce457378bE', symObjAddr: 0x0, symBinAddr: 0x890, symSize: 0xD4 }
  - { offset: 0x195A, size: 0x8, addend: 0x0, symName: '__ZN73_$LT$num_complex..Complex$LT$f64$GT$$u20$as$u20$numpy..dtype..Element$GT$9clone_ref17h23a37567530cd83cE', symObjAddr: 0x0, symBinAddr: 0x964, symSize: 0x24 }
  - { offset: 0x19A1, size: 0x8, addend: 0x0, symName: '__ZN73_$LT$num_complex..Complex$LT$f64$GT$$u20$as$u20$numpy..dtype..Element$GT$9clone_ref17h23a37567530cd83cE', symObjAddr: 0x0, symBinAddr: 0x964, symSize: 0x24 }
  - { offset: 0x1B47, size: 0x8, addend: 0x0, symName: __ZN4core3ptr19copy_nonoverlapping18precondition_check17h3db51f9c60dd495bE, symObjAddr: 0x0, symBinAddr: 0x988, symSize: 0x168 }
  - { offset: 0x1CB2, size: 0x8, addend: 0x0, symName: __ZN4core3ptr19copy_nonoverlapping18precondition_check17h3db51f9c60dd495bE, symObjAddr: 0x0, symBinAddr: 0x988, symSize: 0x168 }
  - { offset: 0x1E6C, size: 0x8, addend: 0x0, symName: __ZN4core3ptr4copy18precondition_check17h84c767b353602323E, symObjAddr: 0x4C8, symBinAddr: 0xAF0, symSize: 0x130 }
  - { offset: 0x2037, size: 0x8, addend: 0x0, symName: '__ZN111_$LT$pyo3..impl_..pyclass..NoopThreadChecker$u20$as$u20$pyo3..impl_..pyclass..PyClassThreadChecker$LT$T$GT$$GT$3new17h92c84050771f592cE', symObjAddr: 0x0, symBinAddr: 0xC20, symSize: 0x4 }
  - { offset: 0x33E3, size: 0x8, addend: 0x0, symName: '__ZN111_$LT$pyo3..impl_..pyclass..NoopThreadChecker$u20$as$u20$pyo3..impl_..pyclass..PyClassThreadChecker$LT$T$GT$$GT$3new17h92c84050771f592cE', symObjAddr: 0x0, symBinAddr: 0xC20, symSize: 0x4 }
  - { offset: 0x3407, size: 0x8, addend: 0x0, symName: '__ZN111_$LT$pyo3..impl_..pyclass..NoopThreadChecker$u20$as$u20$pyo3..impl_..pyclass..PyClassThreadChecker$LT$T$GT$$GT$6ensure17h2659268eee4e1cd7E', symObjAddr: 0x4, symBinAddr: 0xC24, symSize: 0x10 }
  - { offset: 0x343A, size: 0x8, addend: 0x0, symName: '__ZN111_$LT$pyo3..impl_..pyclass..NoopThreadChecker$u20$as$u20$pyo3..impl_..pyclass..PyClassThreadChecker$LT$T$GT$$GT$8can_drop17h8b9dd8e5f81b8724E', symObjAddr: 0x14, symBinAddr: 0xC34, symSize: 0x18 }
  - { offset: 0x348D, size: 0x8, addend: 0x0, symName: __ZN4pyo35impl_7pyclass10tp_dealloc17h50086980c67ca0c1E, symObjAddr: 0x2C, symBinAddr: 0xC4C, symSize: 0x34 }
  - { offset: 0x34C0, size: 0x8, addend: 0x0, symName: __ZN4pyo35impl_7pyclass18tp_dealloc_with_gc17hccf61ea8e8e060b4E, symObjAddr: 0x60, symBinAddr: 0xC80, symSize: 0x4C }
  - { offset: 0x3D9A, size: 0x8, addend: 0x0, symName: '__ZN4pyo35impl_7pyclass29PyClassImplCollector$LT$T$GT$3new17h1a22d62e0eef6188E', symObjAddr: 0xAC, symBinAddr: 0xCCC, symSize: 0x4 }
  - { offset: 0x3DFC, size: 0x8, addend: 0x0, symName: '__ZN4core3ptr7mut_ptr31_$LT$impl$u20$$BP$mut$u20$T$GT$6offset18precondition_check17h615134fb914c2bafE', symObjAddr: 0x0, symBinAddr: 0xCD0, symSize: 0xC4 }
  - { offset: 0x3EB2, size: 0x8, addend: 0x0, symName: '__ZN4core3ptr7mut_ptr31_$LT$impl$u20$$BP$mut$u20$T$GT$6offset18precondition_check17h615134fb914c2bafE', symObjAddr: 0x0, symBinAddr: 0xCD0, symSize: 0xC4 }
  - { offset: 0x42A5, size: 0x8, addend: 0x0, symName: '__ZN112_$LT$$RF$num_complex..Complex$LT$T$GT$$u20$as$u20$core..ops..arith..Div$LT$num_complex..Complex$LT$T$GT$$GT$$GT$3div17hc1ce25a62d9a2096E', symObjAddr: 0x0, symBinAddr: 0xD94, symSize: 0xA0 }
  - { offset: 0x42BC, size: 0x8, addend: 0x0, symName: '__ZN112_$LT$$RF$num_complex..Complex$LT$T$GT$$u20$as$u20$core..ops..arith..Div$LT$num_complex..Complex$LT$T$GT$$GT$$GT$3div17hc1ce25a62d9a2096E', symObjAddr: 0x0, symBinAddr: 0xD94, symSize: 0xA0 }
  - { offset: 0x4378, size: 0x8, addend: 0x0, symName: '__ZN11num_complex8opassign87_$LT$impl$u20$core..ops..arith..SubAssign$u20$for$u20$num_complex..Complex$LT$T$GT$$GT$10sub_assign17hc6b5df057af781aeE', symObjAddr: 0x228, symBinAddr: 0xFBC, symSize: 0x90 }
  - { offset: 0x43C1, size: 0x8, addend: 0x0, symName: '__ZN68_$LT$num_complex..Complex$LT$T$GT$$u20$as$u20$core..clone..Clone$GT$5clone17h87627992b373f557E', symObjAddr: 0x450, symBinAddr: 0x11E4, symSize: 0x40 }
  - { offset: 0x4436, size: 0x8, addend: 0x0, symName: '__ZN70_$LT$num_complex..Complex$LT$T$GT$$u20$as$u20$core..cmp..PartialEq$GT$2eq17h8398884a3804757fE', symObjAddr: 0x490, symBinAddr: 0x1224, symSize: 0x60 }
  - { offset: 0x447F, size: 0x8, addend: 0x0, symName: '__ZN71_$LT$num_complex..Complex$LT$T$GT$$u20$as$u20$core..ops..arith..Div$GT$3div17h43312a2d32dc49f6E', symObjAddr: 0x4F0, symBinAddr: 0x1284, symSize: 0x3F0 }
  - { offset: 0x45A7, size: 0x8, addend: 0x0, symName: '__ZN71_$LT$num_complex..Complex$LT$T$GT$$u20$as$u20$core..ops..arith..Mul$GT$3mul17h01de468e73d7ac5fE', symObjAddr: 0x8E0, symBinAddr: 0x1674, symSize: 0x2D4 }
  - { offset: 0x46A1, size: 0x8, addend: 0x0, symName: '__ZN71_$LT$num_complex..Complex$LT$T$GT$$u20$as$u20$core..ops..arith..Neg$GT$3neg17h14289aa4c5be37d0E', symObjAddr: 0xBB4, symBinAddr: 0x1948, symSize: 0xCC }
  - { offset: 0x46DE, size: 0x8, addend: 0x0, symName: '__ZN71_$LT$num_complex..Complex$LT$T$GT$$u20$as$u20$core..ops..arith..Sub$GT$3sub17hbae091f07fc4bcbeE', symObjAddr: 0xC80, symBinAddr: 0x1A14, symSize: 0x108 }
  - { offset: 0x472A, size: 0x8, addend: 0x0, symName: '__ZN78_$LT$num_complex..Complex$LT$T$GT$$u20$as$u20$num_traits..identities..Zero$GT$4zero17hc7a9e5a6d674c4fcE', symObjAddr: 0xD88, symBinAddr: 0x1B1C, symSize: 0x88 }
  - { offset: 0x475B, size: 0x8, addend: 0x0, symName: '__ZN11num_complex16Complex$LT$T$GT$3new17haedd23948d98d246E', symObjAddr: 0xA0, symBinAddr: 0xE34, symSize: 0x14 }
  - { offset: 0x47D3, size: 0x8, addend: 0x0, symName: __ZN4core3cmp9PartialEq2ne17hf58ee002180a93c7E, symObjAddr: 0x2B8, symBinAddr: 0x104C, symSize: 0x30 }
  - { offset: 0x4875, size: 0x8, addend: 0x0, symName: '__ZN4core3ptr9const_ptr33_$LT$impl$u20$$BP$const$u20$T$GT$7is_null17haab5dded26da7d67E', symObjAddr: 0x300, symBinAddr: 0x1094, symSize: 0x18 }
  - { offset: 0x48CB, size: 0x8, addend: 0x0, symName: '__ZN4core3ptr7mut_ptr31_$LT$impl$u20$$BP$mut$u20$T$GT$7is_null17h930507fb9231c0a5E', symObjAddr: 0x2E8, symBinAddr: 0x107C, symSize: 0x18 }
  - { offset: 0x4ABC, size: 0x8, addend: 0x0, symName: '__ZN4core5slice29_$LT$impl$u20$$u5b$T$u5d$$GT$4iter17h515ad5ff0bcede8fE', symObjAddr: 0x318, symBinAddr: 0x10AC, symSize: 0x28 }
  - { offset: 0x4E5F, size: 0x8, addend: 0x0, symName: '__ZN11num_complex16Complex$LT$T$GT$8norm_sqr17h9a3d2f604e1c726fE', symObjAddr: 0xB4, symBinAddr: 0xE48, symSize: 0x174 }
  - { offset: 0x4F51, size: 0x8, addend: 0x0, symName: '__ZN5alloc5slice29_$LT$impl$u20$$u5b$T$u5d$$GT$6to_vec17h6c9d5171c7529e99E', symObjAddr: 0x340, symBinAddr: 0x10D4, symSize: 0x28 }
  - { offset: 0x4FB8, size: 0x8, addend: 0x0, symName: '__ZN87_$LT$T$u20$as$u20$alloc..slice..$LT$impl$u20$$u5b$T$u5d$$GT$..to_vec_in..ConvertVec$GT$6to_vec17hcc69ec29d99609b8E', symObjAddr: 0xE10, symBinAddr: 0x1BA4, symSize: 0x344 }
  - { offset: 0x55B3, size: 0x8, addend: 0x0, symName: '__ZN62_$LT$T$u20$as$u20$alloc..vec..spec_from_elem..SpecFromElem$GT$9from_elem17h442c047e59c4c0d1E', symObjAddr: 0x368, symBinAddr: 0x10FC, symSize: 0xE8 }
  - { offset: 0x5C2F, size: 0x8, addend: 0x0, symName: '__ZN100_$LT$ndarray..iterators..Baseiter$LT$A$C$D$GT$$u20$as$u20$core..iter..traits..iterator..Iterator$GT$4fold17h19f6630844a9deb7E', symObjAddr: 0x0, symBinAddr: 0x1EE8, symSize: 0x468 }
  - { offset: 0x620F, size: 0x8, addend: 0x0, symName: __ZN4core4iter6traits8iterator8Iterator8position17h9c89573180d9810cE, symObjAddr: 0x24A8, symBinAddr: 0x4390, symSize: 0x90 }
  - { offset: 0x62B4, size: 0x8, addend: 0x0, symName: __ZN4core4iter6traits8iterator8Iterator8try_fold17h583c61a43ee312f8E, symObjAddr: 0x2538, symBinAddr: 0x4420, symSize: 0x168 }
  - { offset: 0x639D, size: 0x8, addend: 0x0, symName: '__ZN63_$LT$I$u20$as$u20$core..iter..traits..collect..IntoIterator$GT$9into_iter17h262f1871cd78a58fE', symObjAddr: 0x26A0, symBinAddr: 0x4588, symSize: 0x30 }
  - { offset: 0x65F8, size: 0x8, addend: 0x0, symName: '__ZN100_$LT$ndarray..iterators..Baseiter$LT$A$C$D$GT$$u20$as$u20$core..iter..traits..iterator..Iterator$GT$4fold17h19f6630844a9deb7E', symObjAddr: 0x0, symBinAddr: 0x1EE8, symSize: 0x468 }
  - { offset: 0x6856, size: 0x8, addend: 0x0, symName: '__ZN100_$LT$ndarray..iterators..Baseiter$LT$A$C$D$GT$$u20$as$u20$core..iter..traits..iterator..Iterator$GT$4fold17h9302c570f62920cbE', symObjAddr: 0x468, symBinAddr: 0x2350, symSize: 0x468 }
  - { offset: 0x6AB4, size: 0x8, addend: 0x0, symName: '__ZN100_$LT$ndarray..iterators..Baseiter$LT$A$C$D$GT$$u20$as$u20$core..iter..traits..iterator..Iterator$GT$4fold17hbb5b8e8d45bd8649E', symObjAddr: 0x8D0, symBinAddr: 0x27B8, symSize: 0x468 }
  - { offset: 0x6D12, size: 0x8, addend: 0x0, symName: '__ZN100_$LT$ndarray..iterators..Baseiter$LT$A$C$D$GT$$u20$as$u20$core..iter..traits..iterator..Iterator$GT$4fold17hdd383b8270efa95eE', symObjAddr: 0xD38, symBinAddr: 0x2C20, symSize: 0x468 }
  - { offset: 0x6F70, size: 0x8, addend: 0x0, symName: '__ZN100_$LT$ndarray..iterators..Baseiter$LT$A$C$D$GT$$u20$as$u20$core..iter..traits..iterator..Iterator$GT$4fold17he1a45e5190a104e1E', symObjAddr: 0x11A0, symBinAddr: 0x3088, symSize: 0x468 }
  - { offset: 0x71CE, size: 0x8, addend: 0x0, symName: '__ZN100_$LT$ndarray..iterators..Baseiter$LT$A$C$D$GT$$u20$as$u20$core..iter..traits..iterator..Iterator$GT$4next17h890e1bcf715a7442E', symObjAddr: 0x1608, symBinAddr: 0x34F0, symSize: 0x188 }
  - { offset: 0x7308, size: 0x8, addend: 0x0, symName: '__ZN100_$LT$ndarray..iterators..Baseiter$LT$A$C$D$GT$$u20$as$u20$core..iter..traits..iterator..Iterator$GT$4next17hc4206e5a38c769bcE', symObjAddr: 0x1790, symBinAddr: 0x3678, symSize: 0x188 }
  - { offset: 0x7442, size: 0x8, addend: 0x0, symName: '__ZN100_$LT$ndarray..iterators..Baseiter$LT$A$C$D$GT$$u20$as$u20$core..iter..traits..iterator..Iterator$GT$9size_hint17h410ab91f5591bb1dE', symObjAddr: 0x1918, symBinAddr: 0x3800, symSize: 0x40 }
  - { offset: 0x749D, size: 0x8, addend: 0x0, symName: '__ZN100_$LT$ndarray..iterators..Baseiter$LT$A$C$D$GT$$u20$as$u20$core..iter..traits..iterator..Iterator$GT$9size_hint17h680870c88843d46aE', symObjAddr: 0x1958, symBinAddr: 0x3840, symSize: 0x40 }
  - { offset: 0x74F8, size: 0x8, addend: 0x0, symName: '__ZN100_$LT$ndarray..iterators..Baseiter$LT$A$C$D$GT$$u20$as$u20$core..iter..traits..iterator..Iterator$GT$9size_hint17hf613b7b28cca5852E', symObjAddr: 0x1998, symBinAddr: 0x3880, symSize: 0x40 }
  - { offset: 0x7559, size: 0x8, addend: 0x0, symName: '__ZN104_$LT$ndarray..iterators..ElementsBase$LT$A$C$D$GT$$u20$as$u20$core..iter..traits..iterator..Iterator$GT$4fold17h79e4abb586dd5960E', symObjAddr: 0x19D8, symBinAddr: 0x38C0, symSize: 0x5C }
  - { offset: 0x75C3, size: 0x8, addend: 0x0, symName: '__ZN104_$LT$ndarray..iterators..ElementsBase$LT$A$C$D$GT$$u20$as$u20$core..iter..traits..iterator..Iterator$GT$4fold17ha641c36dc743974aE', symObjAddr: 0x1A34, symBinAddr: 0x391C, symSize: 0x5C }
  - { offset: 0x762D, size: 0x8, addend: 0x0, symName: '__ZN104_$LT$ndarray..iterators..ElementsBase$LT$A$C$D$GT$$u20$as$u20$core..iter..traits..iterator..Iterator$GT$4fold17hb22d21bf6c7e2261E', symObjAddr: 0x1A90, symBinAddr: 0x3978, symSize: 0x5C }
  - { offset: 0x7697, size: 0x8, addend: 0x0, symName: '__ZN104_$LT$ndarray..iterators..ElementsBase$LT$A$C$D$GT$$u20$as$u20$core..iter..traits..iterator..Iterator$GT$4fold17hd9b13f16d4b6e434E', symObjAddr: 0x1AEC, symBinAddr: 0x39D4, symSize: 0x5C }
  - { offset: 0x7701, size: 0x8, addend: 0x0, symName: '__ZN104_$LT$ndarray..iterators..ElementsBase$LT$A$C$D$GT$$u20$as$u20$core..iter..traits..iterator..Iterator$GT$4fold17hf16efea4e88d5e02E', symObjAddr: 0x1B48, symBinAddr: 0x3A30, symSize: 0x5C }
  - { offset: 0x7770, size: 0x8, addend: 0x0, symName: '__ZN104_$LT$ndarray..iterators..ElementsBase$LT$A$C$D$GT$$u20$as$u20$core..iter..traits..iterator..Iterator$GT$4fold28_$u7b$$u7b$closure$u7d$$u7d$17h028126aface359e5E', symObjAddr: 0x1BA4, symBinAddr: 0x3A8C, symSize: 0x84 }
  - { offset: 0x77F7, size: 0x8, addend: 0x0, symName: '__ZN104_$LT$ndarray..iterators..ElementsBase$LT$A$C$D$GT$$u20$as$u20$core..iter..traits..iterator..Iterator$GT$4fold28_$u7b$$u7b$closure$u7d$$u7d$17h64aefdec423d7738E', symObjAddr: 0x1C28, symBinAddr: 0x3B10, symSize: 0x84 }
  - { offset: 0x787E, size: 0x8, addend: 0x0, symName: '__ZN104_$LT$ndarray..iterators..ElementsBase$LT$A$C$D$GT$$u20$as$u20$core..iter..traits..iterator..Iterator$GT$4fold28_$u7b$$u7b$closure$u7d$$u7d$17h6649e13372fcbd2fE', symObjAddr: 0x1CAC, symBinAddr: 0x3B94, symSize: 0x84 }
  - { offset: 0x7905, size: 0x8, addend: 0x0, symName: '__ZN104_$LT$ndarray..iterators..ElementsBase$LT$A$C$D$GT$$u20$as$u20$core..iter..traits..iterator..Iterator$GT$4fold28_$u7b$$u7b$closure$u7d$$u7d$17h9299794b89970c96E', symObjAddr: 0x1D30, symBinAddr: 0x3C18, symSize: 0x84 }
  - { offset: 0x798C, size: 0x8, addend: 0x0, symName: '__ZN104_$LT$ndarray..iterators..ElementsBase$LT$A$C$D$GT$$u20$as$u20$core..iter..traits..iterator..Iterator$GT$4fold28_$u7b$$u7b$closure$u7d$$u7d$17hb17223af3c6085f9E', symObjAddr: 0x1DB4, symBinAddr: 0x3C9C, symSize: 0x84 }
  - { offset: 0x7A73, size: 0x8, addend: 0x0, symName: '__ZN104_$LT$ndarray..iterators..ElementsBase$LT$A$C$D$GT$$u20$as$u20$core..iter..traits..iterator..Iterator$GT$4next17ha534a1e585331ea4E', symObjAddr: 0x1E38, symBinAddr: 0x3D20, symSize: 0x28 }
  - { offset: 0x7AB1, size: 0x8, addend: 0x0, symName: '__ZN104_$LT$ndarray..iterators..ElementsBase$LT$A$C$D$GT$$u20$as$u20$core..iter..traits..iterator..Iterator$GT$4next17heceb5c26417ed686E', symObjAddr: 0x1E60, symBinAddr: 0x3D48, symSize: 0x28 }
  - { offset: 0x7AF4, size: 0x8, addend: 0x0, symName: '__ZN104_$LT$ndarray..iterators..ElementsBase$LT$A$C$D$GT$$u20$as$u20$core..iter..traits..iterator..Iterator$GT$4next28_$u7b$$u7b$closure$u7d$$u7d$17h2ad5ff573cdc0d5aE', symObjAddr: 0x1E88, symBinAddr: 0x3D70, symSize: 0x1C }
  - { offset: 0x7B59, size: 0x8, addend: 0x0, symName: '__ZN104_$LT$ndarray..iterators..ElementsBase$LT$A$C$D$GT$$u20$as$u20$core..iter..traits..iterator..Iterator$GT$4next28_$u7b$$u7b$closure$u7d$$u7d$17ha2be876c18341373E', symObjAddr: 0x1EA4, symBinAddr: 0x3D8C, symSize: 0x1C }
  - { offset: 0x7BCD, size: 0x8, addend: 0x0, symName: '__ZN104_$LT$ndarray..iterators..ElementsBase$LT$A$C$D$GT$$u20$as$u20$core..iter..traits..iterator..Iterator$GT$9size_hint17h0b7f1979ae5d4d76E', symObjAddr: 0x1EC0, symBinAddr: 0x3DA8, symSize: 0x24 }
  - { offset: 0x7C0B, size: 0x8, addend: 0x0, symName: '__ZN104_$LT$ndarray..iterators..ElementsBase$LT$A$C$D$GT$$u20$as$u20$core..iter..traits..iterator..Iterator$GT$9size_hint17h605ad42392453fccE', symObjAddr: 0x1EE4, symBinAddr: 0x3DCC, symSize: 0x24 }
  - { offset: 0x7C49, size: 0x8, addend: 0x0, symName: '__ZN104_$LT$ndarray..iterators..ElementsBase$LT$A$C$D$GT$$u20$as$u20$core..iter..traits..iterator..Iterator$GT$9size_hint17he700ec67678057d1E', symObjAddr: 0x1F08, symBinAddr: 0x3DF0, symSize: 0x24 }
  - { offset: 0x7C8D, size: 0x8, addend: 0x0, symName: '__ZN111_$LT$ndarray..iterators..Baseiter$LT$A$C$D$GT$$u20$as$u20$core..iter..traits..exact_size..ExactSizeIterator$GT$3len17h6200dea2ce356554E', symObjAddr: 0x1F2C, symBinAddr: 0x3E14, symSize: 0x144 }
  - { offset: 0x7CF5, size: 0x8, addend: 0x0, symName: '__ZN111_$LT$ndarray..iterators..Baseiter$LT$A$C$D$GT$$u20$as$u20$core..iter..traits..exact_size..ExactSizeIterator$GT$3len17ha6f52f955b8dd26cE', symObjAddr: 0x2070, symBinAddr: 0x3F58, symSize: 0x144 }
  - { offset: 0x7D5D, size: 0x8, addend: 0x0, symName: '__ZN111_$LT$ndarray..iterators..Baseiter$LT$A$C$D$GT$$u20$as$u20$core..iter..traits..exact_size..ExactSizeIterator$GT$3len17hb7061b7a3f116251E', symObjAddr: 0x21B4, symBinAddr: 0x409C, symSize: 0x144 }
  - { offset: 0x7DCA, size: 0x8, addend: 0x0, symName: '__ZN111_$LT$ndarray..iterators..Baseiter$LT$A$C$D$GT$$u20$as$u20$core..iter..traits..exact_size..ExactSizeIterator$GT$3len28_$u7b$$u7b$closure$u7d$$u7d$17h36382c11d23f2107E', symObjAddr: 0x22F8, symBinAddr: 0x41E0, symSize: 0x90 }
  - { offset: 0x7E40, size: 0x8, addend: 0x0, symName: '__ZN111_$LT$ndarray..iterators..Baseiter$LT$A$C$D$GT$$u20$as$u20$core..iter..traits..exact_size..ExactSizeIterator$GT$3len28_$u7b$$u7b$closure$u7d$$u7d$17h4b4d84ab41c3b883E', symObjAddr: 0x2388, symBinAddr: 0x4270, symSize: 0x90 }
  - { offset: 0x7EB6, size: 0x8, addend: 0x0, symName: '__ZN111_$LT$ndarray..iterators..Baseiter$LT$A$C$D$GT$$u20$as$u20$core..iter..traits..exact_size..ExactSizeIterator$GT$3len28_$u7b$$u7b$closure$u7d$$u7d$17hda4c8607b422a467E', symObjAddr: 0x2418, symBinAddr: 0x4300, symSize: 0x90 }
  - { offset: 0x7F43, size: 0x8, addend: 0x0, symName: __ZN7ndarray9iterators13to_vec_mapped17h0796bffa160bb455E, symObjAddr: 0x26D0, symBinAddr: 0x45B8, symSize: 0x17C }
  - { offset: 0x805B, size: 0x8, addend: 0x0, symName: __ZN7ndarray9iterators13to_vec_mapped17h0d4a7e33a6cb7ceeE, symObjAddr: 0x284C, symBinAddr: 0x4734, symSize: 0x1B8 }
  - { offset: 0x8175, size: 0x8, addend: 0x0, symName: __ZN7ndarray9iterators13to_vec_mapped17h2f36f7c3cc9c41d1E, symObjAddr: 0x2A04, symBinAddr: 0x48EC, symSize: 0x1B8 }
  - { offset: 0x828F, size: 0x8, addend: 0x0, symName: __ZN7ndarray9iterators13to_vec_mapped17h44b5b8d00ef3d8b8E, symObjAddr: 0x2BBC, symBinAddr: 0x4AA4, symSize: 0x1B8 }
  - { offset: 0x83A9, size: 0x8, addend: 0x0, symName: __ZN7ndarray9iterators13to_vec_mapped17h7ac6bf5db0bb3a2cE, symObjAddr: 0x2D74, symBinAddr: 0x4C5C, symSize: 0x17C }
  - { offset: 0x84C1, size: 0x8, addend: 0x0, symName: __ZN7ndarray9iterators13to_vec_mapped17h87fbce68be7c725fE, symObjAddr: 0x2EF0, symBinAddr: 0x4DD8, symSize: 0x17C }
  - { offset: 0x85D9, size: 0x8, addend: 0x0, symName: __ZN7ndarray9iterators13to_vec_mapped17h887c371954812497E, symObjAddr: 0x306C, symBinAddr: 0x4F54, symSize: 0x17C }
  - { offset: 0x86F1, size: 0x8, addend: 0x0, symName: __ZN7ndarray9iterators13to_vec_mapped17hbd26495500bd38cbE, symObjAddr: 0x31E8, symBinAddr: 0x50D0, symSize: 0x17C }
  - { offset: 0x8809, size: 0x8, addend: 0x0, symName: __ZN7ndarray9iterators13to_vec_mapped17hc9e9bbfea150d970E, symObjAddr: 0x3364, symBinAddr: 0x524C, symSize: 0x1B8 }
  - { offset: 0x8923, size: 0x8, addend: 0x0, symName: __ZN7ndarray9iterators13to_vec_mapped17heb8b65b50df00291E, symObjAddr: 0x351C, symBinAddr: 0x5404, symSize: 0x1B8 }
  - { offset: 0x8A42, size: 0x8, addend: 0x0, symName: '__ZN7ndarray9iterators13to_vec_mapped28_$u7b$$u7b$closure$u7d$$u7d$17h2f1c9897578a3094E', symObjAddr: 0x36D4, symBinAddr: 0x55BC, symSize: 0xE8 }
  - { offset: 0x8B06, size: 0x8, addend: 0x0, symName: '__ZN7ndarray9iterators13to_vec_mapped28_$u7b$$u7b$closure$u7d$$u7d$17h4e8f44c4cfdc75c1E', symObjAddr: 0x37BC, symBinAddr: 0x56A4, symSize: 0xE8 }
  - { offset: 0x8BCA, size: 0x8, addend: 0x0, symName: '__ZN7ndarray9iterators13to_vec_mapped28_$u7b$$u7b$closure$u7d$$u7d$17h641f265d8344ceffE', symObjAddr: 0x38A4, symBinAddr: 0x578C, symSize: 0xE4 }
  - { offset: 0x8C8E, size: 0x8, addend: 0x0, symName: '__ZN7ndarray9iterators13to_vec_mapped28_$u7b$$u7b$closure$u7d$$u7d$17h7348cda6e8f205f4E', symObjAddr: 0x3988, symBinAddr: 0x5870, symSize: 0xE8 }
  - { offset: 0x8D52, size: 0x8, addend: 0x0, symName: '__ZN7ndarray9iterators13to_vec_mapped28_$u7b$$u7b$closure$u7d$$u7d$17h75cc72bbaafa359fE', symObjAddr: 0x3A70, symBinAddr: 0x5958, symSize: 0xE4 }
  - { offset: 0x8E16, size: 0x8, addend: 0x0, symName: '__ZN7ndarray9iterators13to_vec_mapped28_$u7b$$u7b$closure$u7d$$u7d$17h762cae81349f62bbE', symObjAddr: 0x3B54, symBinAddr: 0x5A3C, symSize: 0xE8 }
  - { offset: 0x8EDA, size: 0x8, addend: 0x0, symName: '__ZN7ndarray9iterators13to_vec_mapped28_$u7b$$u7b$closure$u7d$$u7d$17h8be914db3b3a08c8E', symObjAddr: 0x3C3C, symBinAddr: 0x5B24, symSize: 0xE8 }
  - { offset: 0x8F9E, size: 0x8, addend: 0x0, symName: '__ZN7ndarray9iterators13to_vec_mapped28_$u7b$$u7b$closure$u7d$$u7d$17h8cd51956cf6d5df6E', symObjAddr: 0x3D24, symBinAddr: 0x5C0C, symSize: 0xE8 }
  - { offset: 0x9062, size: 0x8, addend: 0x0, symName: '__ZN7ndarray9iterators13to_vec_mapped28_$u7b$$u7b$closure$u7d$$u7d$17h994b8c4c31131b0dE', symObjAddr: 0x3E0C, symBinAddr: 0x5CF4, symSize: 0xE8 }
  - { offset: 0x9126, size: 0x8, addend: 0x0, symName: '__ZN7ndarray9iterators13to_vec_mapped28_$u7b$$u7b$closure$u7d$$u7d$17hcbcb9cf1a18d0d65E', symObjAddr: 0x3EF4, symBinAddr: 0x5DDC, symSize: 0xE8 }
  - { offset: 0x97E0, size: 0x8, addend: 0x0, symName: '__ZN96_$LT$ndarray..iterators..Iter$LT$A$C$D$GT$$u20$as$u20$core..iter..traits..iterator..Iterator$GT$4fold17h09d388a6325921a0E', symObjAddr: 0x4624, symBinAddr: 0x650C, symSize: 0xBC }
  - { offset: 0x988C, size: 0x8, addend: 0x0, symName: '__ZN96_$LT$ndarray..iterators..Iter$LT$A$C$D$GT$$u20$as$u20$core..iter..traits..iterator..Iterator$GT$4fold17h8f3594a66fc96c40E', symObjAddr: 0x46E0, symBinAddr: 0x65C8, symSize: 0xBC }
  - { offset: 0x9938, size: 0x8, addend: 0x0, symName: '__ZN96_$LT$ndarray..iterators..Iter$LT$A$C$D$GT$$u20$as$u20$core..iter..traits..iterator..Iterator$GT$4fold17h92cc8c1ee6286456E', symObjAddr: 0x479C, symBinAddr: 0x6684, symSize: 0xBC }
  - { offset: 0x99E4, size: 0x8, addend: 0x0, symName: '__ZN96_$LT$ndarray..iterators..Iter$LT$A$C$D$GT$$u20$as$u20$core..iter..traits..iterator..Iterator$GT$4fold17hcc01f28f4ed2d2faE', symObjAddr: 0x4858, symBinAddr: 0x6740, symSize: 0xBC }
  - { offset: 0x9A90, size: 0x8, addend: 0x0, symName: '__ZN96_$LT$ndarray..iterators..Iter$LT$A$C$D$GT$$u20$as$u20$core..iter..traits..iterator..Iterator$GT$4fold17hf97d3c649e5f87d9E', symObjAddr: 0x4914, symBinAddr: 0x67FC, symSize: 0xBC }
  - { offset: 0x9B3C, size: 0x8, addend: 0x0, symName: '__ZN96_$LT$ndarray..iterators..Iter$LT$A$C$D$GT$$u20$as$u20$core..iter..traits..iterator..Iterator$GT$4next17h9ad4057716519f1eE', symObjAddr: 0x49D0, symBinAddr: 0x68B8, symSize: 0x70 }
  - { offset: 0x9BB8, size: 0x8, addend: 0x0, symName: '__ZN96_$LT$ndarray..iterators..Iter$LT$A$C$D$GT$$u20$as$u20$core..iter..traits..iterator..Iterator$GT$8position17hce82b49d55c12e63E', symObjAddr: 0x4A40, symBinAddr: 0x6928, symSize: 0x8C }
  - { offset: 0x9C4C, size: 0x8, addend: 0x0, symName: '__ZN96_$LT$ndarray..iterators..Iter$LT$A$C$D$GT$$u20$as$u20$core..iter..traits..iterator..Iterator$GT$9size_hint17h59e178abe32be30dE', symObjAddr: 0x4ACC, symBinAddr: 0x69B4, symSize: 0x70 }
  - { offset: 0x9CC8, size: 0x8, addend: 0x0, symName: '__ZN96_$LT$ndarray..iterators..Iter$LT$A$C$D$GT$$u20$as$u20$core..iter..traits..iterator..Iterator$GT$9size_hint17hdfb2919dd580c94fE', symObjAddr: 0x4B3C, symBinAddr: 0x6A24, symSize: 0x70 }
  - { offset: 0x9D44, size: 0x8, addend: 0x0, symName: '__ZN96_$LT$ndarray..iterators..Iter$LT$A$C$D$GT$$u20$as$u20$core..iter..traits..iterator..Iterator$GT$9size_hint17hef73a9795a33d12eE', symObjAddr: 0x4BAC, symBinAddr: 0x6A94, symSize: 0x70 }
  - { offset: 0xA24F, size: 0x8, addend: 0x0, symName: '__ZN7ndarray9iterators17Iter$LT$A$C$D$GT$3new17h22521518db4b96d6E', symObjAddr: 0x3FDC, symBinAddr: 0x5EC4, symSize: 0x128 }
  - { offset: 0xA29B, size: 0x8, addend: 0x0, symName: '__ZN7ndarray9iterators17Iter$LT$A$C$D$GT$3new17h4f769f89b98e4c06E', symObjAddr: 0x4104, symBinAddr: 0x5FEC, symSize: 0x128 }
  - { offset: 0xA2E7, size: 0x8, addend: 0x0, symName: '__ZN7ndarray9iterators17Iter$LT$A$C$D$GT$3new17h951fcc50a72f1b89E', symObjAddr: 0x422C, symBinAddr: 0x6114, symSize: 0x128 }
  - { offset: 0xA333, size: 0x8, addend: 0x0, symName: '__ZN7ndarray9iterators21Baseiter$LT$A$C$D$GT$3new17h33c0000945404c72E', symObjAddr: 0x4354, symBinAddr: 0x623C, symSize: 0x9C }
  - { offset: 0xA383, size: 0x8, addend: 0x0, symName: '__ZN7ndarray9iterators21Baseiter$LT$A$C$D$GT$3new17h60852a61da269cb9E', symObjAddr: 0x43F0, symBinAddr: 0x62D8, symSize: 0x9C }
  - { offset: 0xA3D3, size: 0x8, addend: 0x0, symName: '__ZN7ndarray9iterators21Baseiter$LT$A$C$D$GT$3new17hb1a00f93935f872eE', symObjAddr: 0x448C, symBinAddr: 0x6374, symSize: 0x9C }
  - { offset: 0xA423, size: 0x8, addend: 0x0, symName: '__ZN7ndarray9iterators25ElementsBase$LT$A$C$D$GT$3new17h3ba1f55c51805356E', symObjAddr: 0x4528, symBinAddr: 0x6410, symSize: 0x54 }
  - { offset: 0xA458, size: 0x8, addend: 0x0, symName: '__ZN7ndarray9iterators25ElementsBase$LT$A$C$D$GT$3new17hac40f71bb374e1c9E', symObjAddr: 0x457C, symBinAddr: 0x6464, symSize: 0x54 }
  - { offset: 0xA48D, size: 0x8, addend: 0x0, symName: '__ZN7ndarray9iterators25ElementsBase$LT$A$C$D$GT$3new17he1b28683d67eb187E', symObjAddr: 0x45D0, symBinAddr: 0x64B8, symSize: 0x54 }
  - { offset: 0xA97A, size: 0x8, addend: 0x0, symName: __ZN4core5slice20copy_from_slice_impl17h21359d2fb34095aeE, symObjAddr: 0x0, symBinAddr: 0x6B04, symSize: 0xAC }
  - { offset: 0xB1F3, size: 0x8, addend: 0x0, symName: '__ZN4core5slice29_$LT$impl$u20$$u5b$T$u5d$$GT$12chunks_exact17h147228d7cdc380b5E', symObjAddr: 0xAC, symBinAddr: 0x6BB0, symSize: 0xF0 }
  - { offset: 0xB2E4, size: 0x8, addend: 0x0, symName: '__ZN4core5slice29_$LT$impl$u20$$u5b$T$u5d$$GT$12split_at_mut17h2b07e88f39bb9238E', symObjAddr: 0x19C, symBinAddr: 0x6CA0, symSize: 0xAC }
  - { offset: 0xB37B, size: 0x8, addend: 0x0, symName: '__ZN4core5slice29_$LT$impl$u20$$u5b$T$u5d$$GT$12split_at_mut17h38c3cf2ad566a4d7E', symObjAddr: 0x248, symBinAddr: 0x6D4C, symSize: 0xAC }
  - { offset: 0xB406, size: 0x8, addend: 0x0, symName: '__ZN4core5slice29_$LT$impl$u20$$u5b$T$u5d$$GT$18split_at_unchecked17haf4fc497064cd9e2E', symObjAddr: 0x2F4, symBinAddr: 0x6DF8, symSize: 0xE8 }
  - { offset: 0xB587, size: 0x8, addend: 0x0, symName: '__ZN4core5slice29_$LT$impl$u20$$u5b$T$u5d$$GT$22split_at_mut_unchecked17h1bc6fa9e6851d0ceE', symObjAddr: 0x3DC, symBinAddr: 0x6EE0, symSize: 0xF4 }
  - { offset: 0xB702, size: 0x8, addend: 0x0, symName: '__ZN4core5slice29_$LT$impl$u20$$u5b$T$u5d$$GT$22split_at_mut_unchecked17h3fb8d9688422a6a4E', symObjAddr: 0x4D0, symBinAddr: 0x6FD4, symSize: 0xF4 }
  - { offset: 0xB856, size: 0x8, addend: 0x0, symName: '__ZN4core5slice29_$LT$impl$u20$$u5b$T$u5d$$GT$4iter17h031e5c774129391fE', symObjAddr: 0x5C4, symBinAddr: 0x70C8, symSize: 0x28 }
  - { offset: 0xB88D, size: 0x8, addend: 0x0, symName: '__ZN4core5slice29_$LT$impl$u20$$u5b$T$u5d$$GT$4iter17ha37d723de0ae5095E', symObjAddr: 0x5EC, symBinAddr: 0x70F0, symSize: 0x28 }
  - { offset: 0xB8C4, size: 0x8, addend: 0x0, symName: '__ZN4core5slice29_$LT$impl$u20$$u5b$T$u5d$$GT$4swap17he313554ccb621427E', symObjAddr: 0x614, symBinAddr: 0x7118, symSize: 0xA8 }
  - { offset: 0xB997, size: 0x8, addend: 0x0, symName: '__ZN4core5slice29_$LT$impl$u20$$u5b$T$u5d$$GT$7reverse17h57c323e03eefd7f3E', symObjAddr: 0x6BC, symBinAddr: 0x71C0, symSize: 0x10C }
  - { offset: 0xBB75, size: 0x8, addend: 0x0, symName: '__ZN4core5slice29_$LT$impl$u20$$u5b$T$u5d$$GT$7reverse17hcba0b864c5b98d7aE', symObjAddr: 0x7C8, symBinAddr: 0x72CC, symSize: 0x10C }
  - { offset: 0xBD0A, size: 0x8, addend: 0x0, symName: '__ZN4core5slice29_$LT$impl$u20$$u5b$T$u5d$$GT$7reverse7revswap17h4dcd03dda3718a88E', symObjAddr: 0x8D4, symBinAddr: 0x73D8, symSize: 0x17C }
  - { offset: 0xBDC7, size: 0x8, addend: 0x0, symName: '__ZN4core5slice29_$LT$impl$u20$$u5b$T$u5d$$GT$7reverse7revswap17h92ddea579241411cE', symObjAddr: 0xA50, symBinAddr: 0x7554, symSize: 0x17C }
  - { offset: 0xBE85, size: 0x8, addend: 0x0, symName: '__ZN4core5slice29_$LT$impl$u20$$u5b$T$u5d$$GT$8contains17hf16eedf806626217E', symObjAddr: 0xBCC, symBinAddr: 0x76D0, symSize: 0x48 }
  - { offset: 0xBECC, size: 0x8, addend: 0x0, symName: __ZN4core5slice20copy_from_slice_impl17h21359d2fb34095aeE, symObjAddr: 0x0, symBinAddr: 0x6B04, symSize: 0xAC }
  - { offset: 0xD8AA, size: 0x8, addend: 0x0, symName: __ZN4core3fmt9Arguments3new17h18d694ba8498caf2E, symObjAddr: 0x0, symBinAddr: 0x7718, symSize: 0x1C }
  - { offset: 0xDC0D, size: 0x8, addend: 0x0, symName: __ZN4core3fmt9Arguments3new17h18d694ba8498caf2E, symObjAddr: 0x0, symBinAddr: 0x7718, symSize: 0x1C }
  - { offset: 0xDC73, size: 0x8, addend: 0x0, symName: __ZN4core3fmt9Arguments3new17h58fcb1c512956a41E, symObjAddr: 0x1C, symBinAddr: 0x7734, symSize: 0x1C }
  - { offset: 0xDCC3, size: 0x8, addend: 0x0, symName: '__ZN4core3cmp5impls54_$LT$impl$u20$core..cmp..PartialEq$u20$for$u20$f64$GT$2eq17ha2db03f81c64593cE', symObjAddr: 0x0, symBinAddr: 0x7750, symSize: 0x2C }
  - { offset: 0xDCE4, size: 0x8, addend: 0x0, symName: '__ZN4core3cmp5impls54_$LT$impl$u20$core..cmp..PartialEq$u20$for$u20$f64$GT$2eq17ha2db03f81c64593cE', symObjAddr: 0x0, symBinAddr: 0x7750, symSize: 0x2C }
  - { offset: 0xDD27, size: 0x8, addend: 0x0, symName: '__ZN4core3cmp5impls54_$LT$impl$u20$core..cmp..PartialEq$u20$for$u20$i32$GT$2eq17hc68f27ce56ebce13E', symObjAddr: 0x2C, symBinAddr: 0x777C, symSize: 0x2C }
  - { offset: 0xDDB5, size: 0x8, addend: 0x0, symName: '__ZN4core3ptr7mut_ptr31_$LT$impl$u20$$BP$mut$u20$T$GT$7is_null17ha72d72f09c53ad04E', symObjAddr: 0x0, symBinAddr: 0x77A8, symSize: 0x18 }
  - { offset: 0xDE13, size: 0x8, addend: 0x0, symName: '__ZN4core3ptr7mut_ptr31_$LT$impl$u20$$BP$mut$u20$T$GT$7is_null17ha72d72f09c53ad04E', symObjAddr: 0x0, symBinAddr: 0x77A8, symSize: 0x18 }
  - { offset: 0xDEAF, size: 0x8, addend: 0x0, symName: '__ZN4pyo35impl_10trampoline32fastcall_cfunction_with_keywords5inner28_$u7b$$u7b$closure$u7d$$u7d$17h306e74206eb816dcE', symObjAddr: 0x0, symBinAddr: 0x77C0, symSize: 0x48 }
  - { offset: 0xF2F0, size: 0x8, addend: 0x0, symName: '__ZN4pyo35impl_10trampoline32fastcall_cfunction_with_keywords5inner28_$u7b$$u7b$closure$u7d$$u7d$17h306e74206eb816dcE', symObjAddr: 0x0, symBinAddr: 0x77C0, symSize: 0x48 }
  - { offset: 0xFBEC, size: 0x8, addend: 0x0, symName: '__ZN3log13__private_api70_$LT$impl$u20$log..__private_api..sealed..KVs$u20$for$u20$$LP$$RP$$GT$8into_kvs17he4fe722d9d689239E', symObjAddr: 0x0, symBinAddr: 0x7808, symSize: 0x10 }
  - { offset: 0xFC08, size: 0x8, addend: 0x0, symName: '__ZN3log13__private_api70_$LT$impl$u20$log..__private_api..sealed..KVs$u20$for$u20$$LP$$RP$$GT$8into_kvs17he4fe722d9d689239E', symObjAddr: 0x0, symBinAddr: 0x7808, symSize: 0x10 }
  - { offset: 0xFD55, size: 0x8, addend: 0x0, symName: __ZN3log13__private_api3log17h7eebe86725bee7ddE, symObjAddr: 0x0, symBinAddr: 0x7818, symSize: 0xA4 }
  - { offset: 0xFD96, size: 0x8, addend: 0x0, symName: __ZN3log13__private_api3log17h7eebe86725bee7ddE, symObjAddr: 0x0, symBinAddr: 0x7818, symSize: 0xA4 }
  - { offset: 0xFE08, size: 0x8, addend: 0x0, symName: __ZN3log13__private_api8log_impl17hbc803b9c06134522E, symObjAddr: 0xA4, symBinAddr: 0x78BC, symSize: 0x1E0 }
  - { offset: 0x1051B, size: 0x8, addend: 0x0, symName: '__ZN132_$LT$usize$u20$as$u20$ndarray..dimension..ndindex..NdIndex$LT$ndarray..dimension..dim..Dim$LT$$u5b$usize$u3b$$u20$1$u5d$$GT$$GT$$GT$13index_checked17h74faab7982f5dea6E', symObjAddr: 0x0, symBinAddr: 0x7A9C, symSize: 0x7C }
  - { offset: 0x10582, size: 0x8, addend: 0x0, symName: '__ZN132_$LT$usize$u20$as$u20$ndarray..dimension..ndindex..NdIndex$LT$ndarray..dimension..dim..Dim$LT$$u5b$usize$u3b$$u20$1$u5d$$GT$$GT$$GT$13index_checked17h74faab7982f5dea6E', symObjAddr: 0x0, symBinAddr: 0x7A9C, symSize: 0x7C }
  - { offset: 0x106BA, size: 0x8, addend: 0x0, symName: '__ZN5alloc3vec16Vec$LT$T$C$A$GT$17from_raw_parts_in18precondition_check17hd1fdd5782a469550E', symObjAddr: 0x0, symBinAddr: 0x7B18, symSize: 0x60 }
  - { offset: 0x106DB, size: 0x8, addend: 0x0, symName: '__ZN5alloc3vec16Vec$LT$T$C$A$GT$17from_raw_parts_in18precondition_check17hd1fdd5782a469550E', symObjAddr: 0x0, symBinAddr: 0x7B18, symSize: 0x60 }
  - { offset: 0x10734, size: 0x8, addend: 0x0, symName: '__ZN5alloc3vec16Vec$LT$T$C$A$GT$7set_len18precondition_check17h18f30ecb4d6868ccE', symObjAddr: 0x60, symBinAddr: 0x7B78, symSize: 0x60 }
  - { offset: 0x107DE, size: 0x8, addend: 0x0, symName: __ZN11_cringepack6sparse12CCMatrixBase10printsmall17hb0959231d444179aE, symObjAddr: 0x0, symBinAddr: 0x7BD8, symSize: 0x294 }
  - { offset: 0x10824, size: 0x8, addend: 0x0, symName: __ZN11_cringepack6sparse12CCMatrixBase10printsmall17hb0959231d444179aE, symObjAddr: 0x0, symBinAddr: 0x7BD8, symSize: 0x294 }
  - { offset: 0x10974, size: 0x8, addend: 0x0, symName: __ZN11_cringepack6sparse12CCMatrixBase3get17hc16e1730ac4d9a95E, symObjAddr: 0x294, symBinAddr: 0x7E6C, symSize: 0x234 }
  - { offset: 0x10AD2, size: 0x8, addend: 0x0, symName: '__ZN11_cringepack6sparse12CCMatrixBase3get28_$u7b$$u7b$closure$u7d$$u7d$17h4dde9243360552dcE', symObjAddr: 0x4C8, symBinAddr: 0x80A0, symSize: 0x34 }
  - { offset: 0x10B32, size: 0x8, addend: 0x0, symName: __ZN11_cringepack6sparse12CCMatrixBase8iter_col17h23e31e7118ecd079E, symObjAddr: 0x4FC, symBinAddr: 0x80D4, symSize: 0xC0 }
  - { offset: 0x10BAC, size: 0x8, addend: 0x0, symName: '__ZN11_cringepack6sparse12CCMatrixBase8iter_col28_$u7b$$u7b$closure$u7d$$u7d$17h2b9a310bd4559931E', symObjAddr: 0x5BC, symBinAddr: 0x8194, symSize: 0xA4 }
  - { offset: 0x10C11, size: 0x8, addend: 0x0, symName: '__ZN11_cringepack6sparse12CCMatrixView3new28_$u7b$$u7b$closure$u7d$$u7d$17h2fb5029164491d2dE', symObjAddr: 0x660, symBinAddr: 0x8238, symSize: 0x1C }
  - { offset: 0x10C4A, size: 0x8, addend: 0x0, symName: '__ZN11_cringepack6sparse12CCMatrixView3new28_$u7b$$u7b$closure$u7d$$u7d$17h316817895e5d6248E', symObjAddr: 0x67C, symBinAddr: 0x8254, symSize: 0x1C }
  - { offset: 0x10C83, size: 0x8, addend: 0x0, symName: '__ZN11_cringepack6sparse12CCMatrixView3new28_$u7b$$u7b$closure$u7d$$u7d$17hf63ebb5efce23f59E', symObjAddr: 0x698, symBinAddr: 0x8270, symSize: 0xB4 }
  - { offset: 0x10CDD, size: 0x8, addend: 0x0, symName: '__ZN11_cringepack6sparse13CCMatrixOwned3new28_$u7b$$u7b$closure$u7d$$u7d$17h7f78347c2d903c64E', symObjAddr: 0x74C, symBinAddr: 0x8324, symSize: 0xB4 }
  - { offset: 0x10D23, size: 0x8, addend: 0x0, symName: '__ZN11_cringepack6sparse13CCMatrixOwned8iter_col28_$u7b$$u7b$closure$u7d$$u7d$17h75dd6b9556a802a6E', symObjAddr: 0x800, symBinAddr: 0x83D8, symSize: 0x84 }
  - { offset: 0x117F1, size: 0x8, addend: 0x0, symName: '__ZN75_$LT$usize$u20$as$u20$core..slice..index..SliceIndex$LT$$u5b$T$u5d$$GT$$GT$5index17h001597f2026085c8E', symObjAddr: 0x0, symBinAddr: 0x845C, symSize: 0x64 }
  - { offset: 0x11812, size: 0x8, addend: 0x0, symName: '__ZN75_$LT$usize$u20$as$u20$core..slice..index..SliceIndex$LT$$u5b$T$u5d$$GT$$GT$5index17h001597f2026085c8E', symObjAddr: 0x0, symBinAddr: 0x845C, symSize: 0x64 }
  - { offset: 0x11858, size: 0x8, addend: 0x0, symName: '__ZN75_$LT$usize$u20$as$u20$core..slice..index..SliceIndex$LT$$u5b$T$u5d$$GT$$GT$5index17h74d5d40a000338b1E', symObjAddr: 0x64, symBinAddr: 0x84C0, symSize: 0x5C }
  - { offset: 0x1189E, size: 0x8, addend: 0x0, symName: '__ZN75_$LT$usize$u20$as$u20$core..slice..index..SliceIndex$LT$$u5b$T$u5d$$GT$$GT$5index17he30b971431f456bbE', symObjAddr: 0xC0, symBinAddr: 0x851C, symSize: 0x64 }
  - { offset: 0x118E4, size: 0x8, addend: 0x0, symName: '__ZN75_$LT$usize$u20$as$u20$core..slice..index..SliceIndex$LT$$u5b$T$u5d$$GT$$GT$9index_mut17h6dfe6c1ba45193d3E', symObjAddr: 0x124, symBinAddr: 0x8580, symSize: 0x64 }
  - { offset: 0x1192A, size: 0x8, addend: 0x0, symName: '__ZN75_$LT$usize$u20$as$u20$core..slice..index..SliceIndex$LT$$u5b$T$u5d$$GT$$GT$9index_mut17h8b40c297584be1e4E', symObjAddr: 0x188, symBinAddr: 0x85E4, symSize: 0x5C }
  - { offset: 0x11970, size: 0x8, addend: 0x0, symName: '__ZN75_$LT$usize$u20$as$u20$core..slice..index..SliceIndex$LT$$u5b$T$u5d$$GT$$GT$9index_mut17h8d083bc20a96fcc8E', symObjAddr: 0x1E4, symBinAddr: 0x8640, symSize: 0x5C }
  - { offset: 0x119B6, size: 0x8, addend: 0x0, symName: '__ZN75_$LT$usize$u20$as$u20$core..slice..index..SliceIndex$LT$$u5b$T$u5d$$GT$$GT$9index_mut17hb5b70d59787d453eE', symObjAddr: 0x240, symBinAddr: 0x869C, symSize: 0x64 }
  - { offset: 0x11E78, size: 0x8, addend: 0x0, symName: '__ZN73_$LT$pyo3..types..any..PyAny$u20$as$u20$pyo3..type_object..PyTypeInfo$GT$15type_object_raw17h4e23ae966e1d026dE', symObjAddr: 0x0, symBinAddr: 0x8700, symSize: 0x24 }
  - { offset: 0x12FB5, size: 0x8, addend: 0x0, symName: '__ZN73_$LT$pyo3..types..any..PyAny$u20$as$u20$pyo3..type_object..PyTypeInfo$GT$15type_object_raw17h4e23ae966e1d026dE', symObjAddr: 0x0, symBinAddr: 0x8700, symSize: 0x24 }
  - { offset: 0x13509, size: 0x8, addend: 0x0, symName: __ZN4pyo35impl_10trampoline11module_exec17h2e7a7b6b8db3db63E, symObjAddr: 0x0, symBinAddr: 0x8724, symSize: 0x34 }
  - { offset: 0x1497C, size: 0x8, addend: 0x0, symName: __ZN4pyo35impl_10trampoline11module_exec17h2e7a7b6b8db3db63E, symObjAddr: 0x0, symBinAddr: 0x8724, symSize: 0x34 }
  - { offset: 0x149B6, size: 0x8, addend: 0x0, symName: __ZN4pyo35impl_10trampoline7dealloc17h1e70b76c439c8b58E, symObjAddr: 0x34, symBinAddr: 0x8758, symSize: 0x34 }
  - { offset: 0x152E0, size: 0x8, addend: 0x0, symName: '__ZN4core3ptr9const_ptr33_$LT$impl$u20$$BP$const$u20$T$GT$20offset_from_unsigned18precondition_check17h2413098d9910284eE', symObjAddr: 0x0, symBinAddr: 0x878C, symSize: 0x60 }
  - { offset: 0x15306, size: 0x8, addend: 0x0, symName: '__ZN4core3ptr9const_ptr33_$LT$impl$u20$$BP$const$u20$T$GT$20offset_from_unsigned18precondition_check17h2413098d9910284eE', symObjAddr: 0x0, symBinAddr: 0x878C, symSize: 0x60 }
  - { offset: 0x153EF, size: 0x8, addend: 0x0, symName: '__ZN4core3ptr9const_ptr33_$LT$impl$u20$$BP$const$u20$T$GT$6offset18precondition_check17h2bf97f6327954cd9E', symObjAddr: 0x60, symBinAddr: 0x87EC, symSize: 0xC4 }
  - { offset: 0x157D6, size: 0x8, addend: 0x0, symName: '__ZN102_$LT$core..iter..adapters..zip..Zip$LT$A$C$B$GT$$u20$as$u20$core..iter..traits..iterator..Iterator$GT$4fold17h14bc6710307760e7E', symObjAddr: 0x0, symBinAddr: 0x88B0, symSize: 0x20 }
  - { offset: 0x1600B, size: 0x8, addend: 0x0, symName: '__ZN102_$LT$core..iter..adapters..zip..Zip$LT$A$C$B$GT$$u20$as$u20$core..iter..traits..iterator..Iterator$GT$4fold17h14bc6710307760e7E', symObjAddr: 0x0, symBinAddr: 0x88B0, symSize: 0x20 }
  - { offset: 0x16078, size: 0x8, addend: 0x0, symName: '__ZN102_$LT$core..iter..adapters..zip..Zip$LT$A$C$B$GT$$u20$as$u20$core..iter..traits..iterator..Iterator$GT$4fold17h8c3af803b0dc5867E', symObjAddr: 0x20, symBinAddr: 0x88D0, symSize: 0x20 }
  - { offset: 0x160E5, size: 0x8, addend: 0x0, symName: '__ZN102_$LT$core..iter..adapters..zip..Zip$LT$A$C$B$GT$$u20$as$u20$core..iter..traits..iterator..Iterator$GT$4fold17haaf30fdba1310e85E', symObjAddr: 0x40, symBinAddr: 0x88F0, symSize: 0x20 }
  - { offset: 0x16152, size: 0x8, addend: 0x0, symName: '__ZN102_$LT$core..iter..adapters..zip..Zip$LT$A$C$B$GT$$u20$as$u20$core..iter..traits..iterator..Iterator$GT$4fold17hcc5ed8af526dcfc9E', symObjAddr: 0x60, symBinAddr: 0x8910, symSize: 0x20 }
  - { offset: 0x161BF, size: 0x8, addend: 0x0, symName: '__ZN102_$LT$core..iter..adapters..zip..Zip$LT$A$C$B$GT$$u20$as$u20$core..iter..traits..iterator..Iterator$GT$4next17h1219d044fa263e4dE', symObjAddr: 0x80, symBinAddr: 0x8930, symSize: 0x24 }
  - { offset: 0x161FD, size: 0x8, addend: 0x0, symName: '__ZN102_$LT$core..iter..adapters..zip..Zip$LT$A$C$B$GT$$u20$as$u20$core..iter..traits..iterator..Iterator$GT$4next17h22666404af1a093cE', symObjAddr: 0xA4, symBinAddr: 0x8954, symSize: 0x24 }
  - { offset: 0x1623B, size: 0x8, addend: 0x0, symName: '__ZN102_$LT$core..iter..adapters..zip..Zip$LT$A$C$B$GT$$u20$as$u20$core..iter..traits..iterator..Iterator$GT$4next17h3b81cf7774fa1229E', symObjAddr: 0xC8, symBinAddr: 0x8978, symSize: 0x24 }
  - { offset: 0x16279, size: 0x8, addend: 0x0, symName: '__ZN102_$LT$core..iter..adapters..zip..Zip$LT$A$C$B$GT$$u20$as$u20$core..iter..traits..iterator..Iterator$GT$4next17hb15dd46e2a92a4a0E', symObjAddr: 0xEC, symBinAddr: 0x899C, symSize: 0x24 }
  - { offset: 0x162B7, size: 0x8, addend: 0x0, symName: '__ZN102_$LT$core..iter..adapters..zip..Zip$LT$A$C$B$GT$$u20$as$u20$core..iter..traits..iterator..Iterator$GT$4next17hcaa14b598a8990e9E', symObjAddr: 0x110, symBinAddr: 0x89C0, symSize: 0x24 }
  - { offset: 0x162FB, size: 0x8, addend: 0x0, symName: '__ZN111_$LT$core..iter..adapters..zip..Zip$LT$A$C$B$GT$$u20$as$u20$core..iter..adapters..zip..ZipImpl$LT$A$C$B$GT$$GT$3new17h458c93b78e83da12E', symObjAddr: 0x134, symBinAddr: 0x89E4, symSize: 0xBC }
  - { offset: 0x1638E, size: 0x8, addend: 0x0, symName: '__ZN111_$LT$core..iter..adapters..zip..Zip$LT$A$C$B$GT$$u20$as$u20$core..iter..adapters..zip..ZipImpl$LT$A$C$B$GT$$GT$3new17h7dbe1c493adc0020E', symObjAddr: 0x22C, symBinAddr: 0x8ADC, symSize: 0xBC }
  - { offset: 0x16421, size: 0x8, addend: 0x0, symName: '__ZN111_$LT$core..iter..adapters..zip..Zip$LT$A$C$B$GT$$u20$as$u20$core..iter..adapters..zip..ZipImpl$LT$A$C$B$GT$$GT$4next17h106140710603cbc5E', symObjAddr: 0xAD8, symBinAddr: 0x9388, symSize: 0xB0 }
  - { offset: 0x16477, size: 0x8, addend: 0x0, symName: '__ZN111_$LT$core..iter..adapters..zip..Zip$LT$A$C$B$GT$$u20$as$u20$core..iter..adapters..zip..ZipImpl$LT$A$C$B$GT$$GT$4next17hfa9836cc40664374E', symObjAddr: 0xD6C, symBinAddr: 0x961C, symSize: 0xB0 }
  - { offset: 0x164D3, size: 0x8, addend: 0x0, symName: '__ZN111_$LT$core..iter..adapters..zip..Zip$LT$A$C$B$GT$$u20$as$u20$core..iter..adapters..zip..ZipImpl$LT$A$C$B$GT$$GT$3new17h4eeeedb083347328E', symObjAddr: 0x1F0, symBinAddr: 0x8AA0, symSize: 0x3C }
  - { offset: 0x1651F, size: 0x8, addend: 0x0, symName: '__ZN111_$LT$core..iter..adapters..zip..Zip$LT$A$C$B$GT$$u20$as$u20$core..iter..adapters..zip..ZipImpl$LT$A$C$B$GT$$GT$3new17hf9f43be94b571c62E', symObjAddr: 0x324, symBinAddr: 0x8BD4, symSize: 0x44 }
  - { offset: 0x1656B, size: 0x8, addend: 0x0, symName: '__ZN111_$LT$core..iter..adapters..zip..Zip$LT$A$C$B$GT$$u20$as$u20$core..iter..adapters..zip..ZipImpl$LT$A$C$B$GT$$GT$4next17h00baacfdf8111ee3E', symObjAddr: 0x9F8, symBinAddr: 0x92A8, symSize: 0xE0 }
  - { offset: 0x166CC, size: 0x8, addend: 0x0, symName: '__ZN111_$LT$core..iter..adapters..zip..Zip$LT$A$C$B$GT$$u20$as$u20$core..iter..adapters..zip..ZipImpl$LT$A$C$B$GT$$GT$4next17h79448a65284397fbE', symObjAddr: 0xC8C, symBinAddr: 0x953C, symSize: 0xE0 }
  - { offset: 0x16833, size: 0x8, addend: 0x0, symName: '__ZN111_$LT$core..iter..adapters..zip..Zip$LT$A$C$B$GT$$u20$as$u20$core..iter..adapters..zip..ZipImpl$LT$A$C$B$GT$$GT$3new17hbf34d454f208108cE', symObjAddr: 0x2E8, symBinAddr: 0x8B98, symSize: 0x3C }
  - { offset: 0x1687F, size: 0x8, addend: 0x0, symName: '__ZN111_$LT$core..iter..adapters..zip..Zip$LT$A$C$B$GT$$u20$as$u20$core..iter..adapters..zip..ZipImpl$LT$A$C$B$GT$$GT$4fold17h2cf4089cbd450f11E', symObjAddr: 0x368, symBinAddr: 0x8C18, symSize: 0x1A4 }
  - { offset: 0x169CC, size: 0x8, addend: 0x0, symName: '__ZN111_$LT$core..iter..adapters..zip..Zip$LT$A$C$B$GT$$u20$as$u20$core..iter..adapters..zip..ZipImpl$LT$A$C$B$GT$$GT$4fold17h62db54bc7ac40ed5E', symObjAddr: 0x50C, symBinAddr: 0x8DBC, symSize: 0x1A4 }
  - { offset: 0x16B19, size: 0x8, addend: 0x0, symName: '__ZN111_$LT$core..iter..adapters..zip..Zip$LT$A$C$B$GT$$u20$as$u20$core..iter..adapters..zip..ZipImpl$LT$A$C$B$GT$$GT$4fold17h927c05608f141ae3E', symObjAddr: 0x6B0, symBinAddr: 0x8F60, symSize: 0x1A4 }
  - { offset: 0x16C66, size: 0x8, addend: 0x0, symName: '__ZN111_$LT$core..iter..adapters..zip..Zip$LT$A$C$B$GT$$u20$as$u20$core..iter..adapters..zip..ZipImpl$LT$A$C$B$GT$$GT$4fold17hfdafb37de82b6befE', symObjAddr: 0x854, symBinAddr: 0x9104, symSize: 0x1A4 }
  - { offset: 0x16DB3, size: 0x8, addend: 0x0, symName: '__ZN111_$LT$core..iter..adapters..zip..Zip$LT$A$C$B$GT$$u20$as$u20$core..iter..adapters..zip..ZipImpl$LT$A$C$B$GT$$GT$4next17h40eca1c6f16a1438E', symObjAddr: 0xB88, symBinAddr: 0x9438, symSize: 0x104 }
  - { offset: 0x173AA, size: 0x8, addend: 0x0, symName: __ZN4core4iter6traits8iterator8Iterator8try_fold17h017572979ca4ce15E, symObjAddr: 0xE1C, symBinAddr: 0x96CC, symSize: 0x1B8 }
  - { offset: 0x1746C, size: 0x8, addend: 0x0, symName: '__ZN63_$LT$I$u20$as$u20$core..iter..traits..collect..IntoIterator$GT$9into_iter17h22c4e4444d4f5898E', symObjAddr: 0xFD4, symBinAddr: 0x9884, symSize: 0x30 }
  - { offset: 0x174A4, size: 0x8, addend: 0x0, symName: '__ZN63_$LT$I$u20$as$u20$core..iter..traits..collect..IntoIterator$GT$9into_iter17h47a322af219996f4E', symObjAddr: 0x1004, symBinAddr: 0x98B4, symSize: 0x30 }
  - { offset: 0x174DC, size: 0x8, addend: 0x0, symName: '__ZN63_$LT$I$u20$as$u20$core..iter..traits..collect..IntoIterator$GT$9into_iter17h4e275db1905a3781E', symObjAddr: 0x1034, symBinAddr: 0x98E4, symSize: 0x30 }
  - { offset: 0x17514, size: 0x8, addend: 0x0, symName: '__ZN63_$LT$I$u20$as$u20$core..iter..traits..collect..IntoIterator$GT$9into_iter17h55a9d6fddfee8b7fE', symObjAddr: 0x1064, symBinAddr: 0x9914, symSize: 0x30 }
  - { offset: 0x1754C, size: 0x8, addend: 0x0, symName: '__ZN63_$LT$I$u20$as$u20$core..iter..traits..collect..IntoIterator$GT$9into_iter17h5e09eba43b803c3aE', symObjAddr: 0x1094, symBinAddr: 0x9944, symSize: 0x30 }
  - { offset: 0x17584, size: 0x8, addend: 0x0, symName: '__ZN63_$LT$I$u20$as$u20$core..iter..traits..collect..IntoIterator$GT$9into_iter17h6f417ccb73715376E', symObjAddr: 0x10C4, symBinAddr: 0x9974, symSize: 0x30 }
  - { offset: 0x19405, size: 0x8, addend: 0x0, symName: __ZN11_cringepack4perm11Permutation3new17h0de46b3799e41cf8E, symObjAddr: 0x0, symBinAddr: 0x99A4, symSize: 0x8C }
  - { offset: 0x196C3, size: 0x8, addend: 0x0, symName: __ZN11_cringepack4perm11Permutation3new17h0de46b3799e41cf8E, symObjAddr: 0x0, symBinAddr: 0x99A4, symSize: 0x8C }
  - { offset: 0x19703, size: 0x8, addend: 0x0, symName: __ZN11_cringepack4perm11Permutation5empty17hc945c66cc596d574E, symObjAddr: 0x8C, symBinAddr: 0x9A30, symSize: 0x88 }
  - { offset: 0x19957, size: 0x8, addend: 0x0, symName: __ZN11_cringepack4perm11Permutation5metis17hf2f61474df6afe24E, symObjAddr: 0x114, symBinAddr: 0x9AB8, symSize: 0x3C }
  - { offset: 0x19997, size: 0x8, addend: 0x0, symName: '__ZN50_$LT$T$u20$as$u20$core..convert..Into$LT$U$GT$$GT$4into17h8966bc0b0dbb2e1aE', symObjAddr: 0x0, symBinAddr: 0x9AF4, symSize: 0x18 }
  - { offset: 0x19A04, size: 0x8, addend: 0x0, symName: '__ZN50_$LT$T$u20$as$u20$core..convert..Into$LT$U$GT$$GT$4into17h8966bc0b0dbb2e1aE', symObjAddr: 0x0, symBinAddr: 0x9AF4, symSize: 0x18 }
  - { offset: 0x19A62, size: 0x8, addend: 0x0, symName: '__ZN50_$LT$T$u20$as$u20$core..convert..Into$LT$U$GT$$GT$4into17hdaab49a21acd0fffE', symObjAddr: 0x18, symBinAddr: 0x9B0C, symSize: 0x14 }
  - { offset: 0x19D3D, size: 0x8, addend: 0x0, symName: '__ZN58_$LT$T$u20$as$u20$ndarray..shape_builder..ShapeBuilder$GT$21into_shape_with_order17h894e9b5d361de0ecE', symObjAddr: 0x2C, symBinAddr: 0x9B20, symSize: 0x78 }
  - { offset: 0x19E86, size: 0x8, addend: 0x0, symName: '__ZN93_$LT$ndarray..shape_builder..StrideShape$LT$D$GT$$u20$as$u20$core..convert..From$LT$T$GT$$GT$4from17h306dd1a00a2cdbd9E', symObjAddr: 0x284, symBinAddr: 0x9D78, symSize: 0xB4 }
  - { offset: 0x19EF7, size: 0x8, addend: 0x0, symName: '__ZN93_$LT$ndarray..shape_builder..StrideShape$LT$D$GT$$u20$as$u20$core..convert..From$LT$T$GT$$GT$4from17h98d75cff3b889760E', symObjAddr: 0x338, symBinAddr: 0x9E2C, symSize: 0xA0 }
  - { offset: 0x19F6E, size: 0x8, addend: 0x0, symName: '__ZN95_$LT$ndarray..shape_builder..Shape$LT$D$GT$$u20$as$u20$ndarray..shape_builder..ShapeBuilder$GT$21into_shape_with_order17h226e9461302ff9e0E', symObjAddr: 0x3D8, symBinAddr: 0x9ECC, symSize: 0xC }
  - { offset: 0x19FA3, size: 0x8, addend: 0x0, symName: '__ZN95_$LT$ndarray..shape_builder..Shape$LT$D$GT$$u20$as$u20$ndarray..shape_builder..ShapeBuilder$GT$7strides17ha15286ef120d9551E', symObjAddr: 0x3E4, symBinAddr: 0x9ED8, symSize: 0x40 }
  - { offset: 0x1A093, size: 0x8, addend: 0x0, symName: '__ZN7ndarray13shape_builder14Shape$LT$D$GT$4is_c17h7d7c02d1a7fbf057E', symObjAddr: 0xA4, symBinAddr: 0x9B98, symSize: 0x20 }
  - { offset: 0x1A0CB, size: 0x8, addend: 0x0, symName: '__ZN7ndarray13shape_builder16Strides$LT$D$GT$15strides_for_dim17h0843d61db29f842cE', symObjAddr: 0xC4, symBinAddr: 0x9BB8, symSize: 0x1C0 }
  - { offset: 0x1A287, size: 0x8, addend: 0x0, symName: __ZN4pyo311type_object10PyTypeInfo10is_type_of17hf2451413104775d1E, symObjAddr: 0x0, symBinAddr: 0x9F18, symSize: 0x50 }
  - { offset: 0x1B8FF, size: 0x8, addend: 0x0, symName: '__ZN73_$LT$_cringepack..Cringepack$u20$as$u20$pyo3..type_object..PyTypeInfo$GT$15type_object_raw28_$u7b$$u7b$closure$u7d$$u7d$17hf18389e2547c43b6E', symObjAddr: 0x148, symBinAddr: 0xA060, symSize: 0x3C }
  - { offset: 0x1BA0D, size: 0x8, addend: 0x0, symName: __ZN4pyo311type_object10PyTypeInfo10is_type_of17hf2451413104775d1E, symObjAddr: 0x0, symBinAddr: 0x9F18, symSize: 0x50 }
  - { offset: 0x1BA42, size: 0x8, addend: 0x0, symName: __ZN4pyo311type_object10PyTypeInfo11type_object17hca6437256a049396E, symObjAddr: 0x50, symBinAddr: 0x9F68, symSize: 0x30 }
  - { offset: 0x1BA88, size: 0x8, addend: 0x0, symName: '__ZN52_$LT$T$u20$as$u20$pyo3..type_object..PyTypeCheck$GT$10type_check17hf4378d076f46ef7dE', symObjAddr: 0x98, symBinAddr: 0x9FB0, symSize: 0x24 }
  - { offset: 0x1BABD, size: 0x8, addend: 0x0, symName: '__ZN52_$LT$T$u20$as$u20$pyo3..type_object..PyTypeCheck$GT$16classinfo_object17hd583c47c75ed0b25E', symObjAddr: 0xBC, symBinAddr: 0x9FD4, symSize: 0x20 }
  - { offset: 0x1BB0E, size: 0x8, addend: 0x0, symName: __ZN4pyo35impl_7pyclass11PyClassImpl11dict_offset17he19a00d2ffe7fe8dE, symObjAddr: 0x80, symBinAddr: 0x9F98, symSize: 0xC }
  - { offset: 0x1BB35, size: 0x8, addend: 0x0, symName: __ZN4pyo35impl_7pyclass11PyClassImpl15weaklist_offset17haab52286aff51745E, symObjAddr: 0x8C, symBinAddr: 0x9FA4, symSize: 0xC }
  - { offset: 0x1BBC4, size: 0x8, addend: 0x0, symName: '__ZN73_$LT$T$u20$as$u20$pyo3..impl_..pyclass_init..PyClassInit$LT$_$C$_$GT$$GT$4init17ha18f246b87b400c3E', symObjAddr: 0xDC, symBinAddr: 0x9FF4, symSize: 0x6C }
  - { offset: 0x1C8E1, size: 0x8, addend: 0x0, symName: '__ZN78_$LT$ndarray..dimension..CanIndexCheckMode$u20$as$u20$core..cmp..PartialEq$GT$2eq17hef125ad9ef0a532eE', symObjAddr: 0x0, symBinAddr: 0xA09C, symSize: 0x3C }
  - { offset: 0x1C915, size: 0x8, addend: 0x0, symName: '__ZN78_$LT$ndarray..dimension..CanIndexCheckMode$u20$as$u20$core..cmp..PartialEq$GT$2eq17hef125ad9ef0a532eE', symObjAddr: 0x0, symBinAddr: 0xA09C, symSize: 0x3C }
  - { offset: 0x1C98A, size: 0x8, addend: 0x0, symName: __ZN7ndarray9dimension9abs_index17h02b357df7269ad2eE, symObjAddr: 0x3C, symBinAddr: 0xA0D8, symSize: 0x9C }
  - { offset: 0x1CA10, size: 0x8, addend: 0x0, symName: '__ZN7ndarray10impl_views11conversions82_$LT$impl$u20$ndarray..ArrayBase$LT$ndarray..ViewRepr$LT$$RF$A$GT$$C$D$C$A$GT$$GT$14into_base_iter17h00b52756ce2c3cbaE', symObjAddr: 0x0, symBinAddr: 0xA174, symSize: 0x4C }
  - { offset: 0x1DD46, size: 0x8, addend: 0x0, symName: __ZN7ndarray10is_aligned17h0e134bf1c61196bcE, symObjAddr: 0x384, symBinAddr: 0xA4F8, symSize: 0x58 }
  - { offset: 0x1DD7D, size: 0x8, addend: 0x0, symName: __ZN7ndarray10is_aligned17h7fb6e7f6ab036b6cE, symObjAddr: 0x3DC, symBinAddr: 0xA550, symSize: 0x58 }
  - { offset: 0x1DDB4, size: 0x8, addend: 0x0, symName: __ZN7ndarray10is_aligned17haddd7401d41b5efaE, symObjAddr: 0x434, symBinAddr: 0xA5A8, symSize: 0x58 }
  - { offset: 0x1EBF3, size: 0x8, addend: 0x0, symName: '__ZN7ndarray11arraytraits136_$LT$impl$u20$core..iter..traits..collect..IntoIterator$u20$for$u20$ndarray..ArrayBase$LT$ndarray..ViewRepr$LT$$RF$A$GT$$C$D$C$A$GT$$GT$9into_iter17h75f21510628d06c7E', symObjAddr: 0x954, symBinAddr: 0xAAC8, symSize: 0x34 }
  - { offset: 0x1EC34, size: 0x8, addend: 0x0, symName: '__ZN7ndarray11arraytraits136_$LT$impl$u20$core..iter..traits..collect..IntoIterator$u20$for$u20$ndarray..ArrayBase$LT$ndarray..ViewRepr$LT$$RF$A$GT$$C$D$C$A$GT$$GT$9into_iter17h789416e7fee7fdb2E', symObjAddr: 0x988, symBinAddr: 0xAAFC, symSize: 0x34 }
  - { offset: 0x1EC75, size: 0x8, addend: 0x0, symName: '__ZN7ndarray11arraytraits136_$LT$impl$u20$core..iter..traits..collect..IntoIterator$u20$for$u20$ndarray..ArrayBase$LT$ndarray..ViewRepr$LT$$RF$A$GT$$C$D$C$A$GT$$GT$9into_iter17h905516dd51ab96daE', symObjAddr: 0x9BC, symBinAddr: 0xAB30, symSize: 0x34 }
  - { offset: 0x1ECBC, size: 0x8, addend: 0x0, symName: '__ZN7ndarray11arraytraits93_$LT$impl$u20$core..ops..index..Index$LT$I$GT$$u20$for$u20$ndarray..ArrayRef$LT$A$C$D$GT$$GT$5index17h09c4284f12142ba3E', symObjAddr: 0x9F0, symBinAddr: 0xAB64, symSize: 0x38C }
  - { offset: 0x1ED90, size: 0x8, addend: 0x0, symName: '__ZN7ndarray11arraytraits93_$LT$impl$u20$core..ops..index..Index$LT$I$GT$$u20$for$u20$ndarray..ArrayRef$LT$A$C$D$GT$$GT$5index17h53e42caaaf8a630aE', symObjAddr: 0xD7C, symBinAddr: 0xAEF0, symSize: 0x38C }
  - { offset: 0x1EE64, size: 0x8, addend: 0x0, symName: '__ZN7ndarray11arraytraits93_$LT$impl$u20$core..ops..index..Index$LT$I$GT$$u20$for$u20$ndarray..ArrayRef$LT$A$C$D$GT$$GT$5index17h68d01d69dcffa631E', symObjAddr: 0x1108, symBinAddr: 0xB27C, symSize: 0x38C }
  - { offset: 0x1EF3E, size: 0x8, addend: 0x0, symName: '__ZN7ndarray11arraytraits94_$LT$impl$u20$core..ops..index..Index$LT$I$GT$$u20$for$u20$ndarray..ArrayBase$LT$S$C$D$GT$$GT$5index17h346f9721a8352985E', symObjAddr: 0x1494, symBinAddr: 0xB608, symSize: 0x94 }
  - { offset: 0x1EF93, size: 0x8, addend: 0x0, symName: '__ZN7ndarray11arraytraits94_$LT$impl$u20$core..ops..index..Index$LT$I$GT$$u20$for$u20$ndarray..ArrayBase$LT$S$C$D$GT$$GT$5index17h74050ecf3174000dE', symObjAddr: 0x1528, symBinAddr: 0xB69C, symSize: 0x94 }
  - { offset: 0x1EFE8, size: 0x8, addend: 0x0, symName: '__ZN7ndarray11arraytraits94_$LT$impl$u20$core..ops..index..Index$LT$I$GT$$u20$for$u20$ndarray..ArrayBase$LT$S$C$D$GT$$GT$5index17h794293dcd72710c9E', symObjAddr: 0x15BC, symBinAddr: 0xB730, symSize: 0x94 }
  - { offset: 0x1F03D, size: 0x8, addend: 0x0, symName: '__ZN7ndarray11arraytraits94_$LT$impl$u20$core..ops..index..Index$LT$I$GT$$u20$for$u20$ndarray..ArrayBase$LT$S$C$D$GT$$GT$5index17hefe3b59acbb0aac5E', symObjAddr: 0x1650, symBinAddr: 0xB7C4, symSize: 0x94 }
  - { offset: 0x1F092, size: 0x8, addend: 0x0, symName: '__ZN7ndarray11arraytraits94_$LT$impl$u20$core..ops..index..Index$LT$I$GT$$u20$for$u20$ndarray..ArrayBase$LT$S$C$D$GT$$GT$5index17hf0cb8c9bb16a1e02E', symObjAddr: 0x16E4, symBinAddr: 0xB858, symSize: 0x94 }
  - { offset: 0x1F0ED, size: 0x8, addend: 0x0, symName: '__ZN7ndarray11arraytraits96_$LT$impl$u20$core..ops..index..IndexMut$LT$I$GT$$u20$for$u20$ndarray..ArrayRef$LT$A$C$D$GT$$GT$9index_mut17h61bc29d22ccdc2a5E', symObjAddr: 0x1778, symBinAddr: 0xB8EC, symSize: 0x398 }
  - { offset: 0x1F1C2, size: 0x8, addend: 0x0, symName: '__ZN7ndarray11arraytraits96_$LT$impl$u20$core..ops..index..IndexMut$LT$I$GT$$u20$for$u20$ndarray..ArrayRef$LT$A$C$D$GT$$GT$9index_mut17h8d672940318ad384E', symObjAddr: 0x1B10, symBinAddr: 0xBC84, symSize: 0x398 }
  - { offset: 0x1F29D, size: 0x8, addend: 0x0, symName: '__ZN7ndarray11arraytraits97_$LT$impl$u20$core..ops..index..IndexMut$LT$I$GT$$u20$for$u20$ndarray..ArrayBase$LT$S$C$D$GT$$GT$9index_mut17h19c29412dacc87cfE', symObjAddr: 0x1EA8, symBinAddr: 0xC01C, symSize: 0x94 }
  - { offset: 0x1F2F2, size: 0x8, addend: 0x0, symName: '__ZN7ndarray11arraytraits97_$LT$impl$u20$core..ops..index..IndexMut$LT$I$GT$$u20$for$u20$ndarray..ArrayBase$LT$S$C$D$GT$$GT$9index_mut17hc1b5ae1756eacdd7E', symObjAddr: 0x1F3C, symBinAddr: 0xC0B0, symSize: 0x94 }
  - { offset: 0x204D9, size: 0x8, addend: 0x0, symName: '__ZN7ndarray14impl_ref_types122_$LT$impl$u20$core..convert..AsRef$LT$ndarray..RawRef$LT$A$C$D$GT$$GT$$u20$for$u20$ndarray..ArrayBase$LT$S$C$D$C$A$GT$$GT$6as_ref17h169ab3ed6f41da5eE', symObjAddr: 0x6AE8, symBinAddr: 0x10C5C, symSize: 0x30 }
  - { offset: 0x2053D, size: 0x8, addend: 0x0, symName: '__ZN7ndarray14impl_ref_types122_$LT$impl$u20$core..convert..AsRef$LT$ndarray..RawRef$LT$A$C$D$GT$$GT$$u20$for$u20$ndarray..ArrayBase$LT$S$C$D$C$A$GT$$GT$6as_ref17h27314723d488a7d6E', symObjAddr: 0x6B18, symBinAddr: 0x10C8C, symSize: 0x30 }
  - { offset: 0x205A1, size: 0x8, addend: 0x0, symName: '__ZN7ndarray14impl_ref_types122_$LT$impl$u20$core..convert..AsRef$LT$ndarray..RawRef$LT$A$C$D$GT$$GT$$u20$for$u20$ndarray..ArrayBase$LT$S$C$D$C$A$GT$$GT$6as_ref17h4e702e861efe74c8E', symObjAddr: 0x6B48, symBinAddr: 0x10CBC, symSize: 0x30 }
  - { offset: 0x20605, size: 0x8, addend: 0x0, symName: '__ZN7ndarray14impl_ref_types122_$LT$impl$u20$core..convert..AsRef$LT$ndarray..RawRef$LT$A$C$D$GT$$GT$$u20$for$u20$ndarray..ArrayBase$LT$S$C$D$C$A$GT$$GT$6as_ref17h6139c2b45b3d9f99E', symObjAddr: 0x6B78, symBinAddr: 0x10CEC, symSize: 0x30 }
  - { offset: 0x20669, size: 0x8, addend: 0x0, symName: '__ZN7ndarray14impl_ref_types122_$LT$impl$u20$core..convert..AsRef$LT$ndarray..RawRef$LT$A$C$D$GT$$GT$$u20$for$u20$ndarray..ArrayBase$LT$S$C$D$C$A$GT$$GT$6as_ref17h64d12970aff64a05E', symObjAddr: 0x6BA8, symBinAddr: 0x10D1C, symSize: 0x30 }
  - { offset: 0x206CD, size: 0x8, addend: 0x0, symName: '__ZN7ndarray14impl_ref_types122_$LT$impl$u20$core..convert..AsRef$LT$ndarray..RawRef$LT$A$C$D$GT$$GT$$u20$for$u20$ndarray..ArrayBase$LT$S$C$D$C$A$GT$$GT$6as_ref17h9c972413086bc080E', symObjAddr: 0x6BD8, symBinAddr: 0x10D4C, symSize: 0x30 }
  - { offset: 0x20731, size: 0x8, addend: 0x0, symName: '__ZN7ndarray14impl_ref_types122_$LT$impl$u20$core..convert..AsRef$LT$ndarray..RawRef$LT$A$C$D$GT$$GT$$u20$for$u20$ndarray..ArrayBase$LT$S$C$D$C$A$GT$$GT$6as_ref17hc4755770a8334083E', symObjAddr: 0x6C08, symBinAddr: 0x10D7C, symSize: 0x30 }
  - { offset: 0x20795, size: 0x8, addend: 0x0, symName: '__ZN7ndarray14impl_ref_types122_$LT$impl$u20$core..convert..AsRef$LT$ndarray..RawRef$LT$A$C$D$GT$$GT$$u20$for$u20$ndarray..ArrayBase$LT$S$C$D$C$A$GT$$GT$6as_ref17hc9415d6226f0edbeE', symObjAddr: 0x6C38, symBinAddr: 0x10DAC, symSize: 0x30 }
  - { offset: 0x207FF, size: 0x8, addend: 0x0, symName: '__ZN7ndarray14impl_ref_types125_$LT$impl$u20$core..convert..AsMut$LT$ndarray..LayoutRef$LT$A$C$D$GT$$GT$$u20$for$u20$ndarray..ArrayBase$LT$S$C$D$C$A$GT$$GT$6as_mut17h084a1590812dbcc4E', symObjAddr: 0x6C68, symBinAddr: 0x10DDC, symSize: 0x30 }
  - { offset: 0x20863, size: 0x8, addend: 0x0, symName: '__ZN7ndarray14impl_ref_types125_$LT$impl$u20$core..convert..AsMut$LT$ndarray..LayoutRef$LT$A$C$D$GT$$GT$$u20$for$u20$ndarray..ArrayBase$LT$S$C$D$C$A$GT$$GT$6as_mut17hfccc0b062dc49f92E', symObjAddr: 0x6C98, symBinAddr: 0x10E0C, symSize: 0x30 }
  - { offset: 0x208C7, size: 0x8, addend: 0x0, symName: '__ZN7ndarray14impl_ref_types125_$LT$impl$u20$core..convert..AsMut$LT$ndarray..LayoutRef$LT$A$C$D$GT$$GT$$u20$for$u20$ndarray..ArrayBase$LT$S$C$D$C$A$GT$$GT$6as_mut17hfdc04c78086a4bbdE', symObjAddr: 0x6CC8, symBinAddr: 0x10E3C, symSize: 0x30 }
  - { offset: 0x20931, size: 0x8, addend: 0x0, symName: '__ZN7ndarray14impl_ref_types125_$LT$impl$u20$core..convert..AsRef$LT$ndarray..LayoutRef$LT$A$C$D$GT$$GT$$u20$for$u20$ndarray..ArrayBase$LT$S$C$D$C$A$GT$$GT$6as_ref17h0cea427892dc1b9fE', symObjAddr: 0x6CF8, symBinAddr: 0x10E6C, symSize: 0x30 }
  - { offset: 0x20995, size: 0x8, addend: 0x0, symName: '__ZN7ndarray14impl_ref_types125_$LT$impl$u20$core..convert..AsRef$LT$ndarray..LayoutRef$LT$A$C$D$GT$$GT$$u20$for$u20$ndarray..ArrayBase$LT$S$C$D$C$A$GT$$GT$6as_ref17h48d9cdb333ca6ebfE', symObjAddr: 0x6D28, symBinAddr: 0x10E9C, symSize: 0x30 }
  - { offset: 0x209F9, size: 0x8, addend: 0x0, symName: '__ZN7ndarray14impl_ref_types125_$LT$impl$u20$core..convert..AsRef$LT$ndarray..LayoutRef$LT$A$C$D$GT$$GT$$u20$for$u20$ndarray..ArrayBase$LT$S$C$D$C$A$GT$$GT$6as_ref17h564b97283c2e49eeE', symObjAddr: 0x6D58, symBinAddr: 0x10ECC, symSize: 0x30 }
  - { offset: 0x20A5D, size: 0x8, addend: 0x0, symName: '__ZN7ndarray14impl_ref_types125_$LT$impl$u20$core..convert..AsRef$LT$ndarray..LayoutRef$LT$A$C$D$GT$$GT$$u20$for$u20$ndarray..ArrayBase$LT$S$C$D$C$A$GT$$GT$6as_ref17h6ea4ccda6ede7a90E', symObjAddr: 0x6D88, symBinAddr: 0x10EFC, symSize: 0x30 }
  - { offset: 0x20AC1, size: 0x8, addend: 0x0, symName: '__ZN7ndarray14impl_ref_types125_$LT$impl$u20$core..convert..AsRef$LT$ndarray..LayoutRef$LT$A$C$D$GT$$GT$$u20$for$u20$ndarray..ArrayBase$LT$S$C$D$C$A$GT$$GT$6as_ref17hf1cfe6f39d1981beE', symObjAddr: 0x6DB8, symBinAddr: 0x10F2C, symSize: 0x30 }
  - { offset: 0x20B25, size: 0x8, addend: 0x0, symName: '__ZN7ndarray14impl_ref_types125_$LT$impl$u20$core..convert..AsRef$LT$ndarray..LayoutRef$LT$A$C$D$GT$$GT$$u20$for$u20$ndarray..ArrayBase$LT$S$C$D$C$A$GT$$GT$6as_ref17hf95c5cf5584ee524E', symObjAddr: 0x6DE8, symBinAddr: 0x10F5C, symSize: 0x30 }
  - { offset: 0x20B8F, size: 0x8, addend: 0x0, symName: '__ZN7ndarray14impl_ref_types82_$LT$impl$u20$core..ops..deref..Deref$u20$for$u20$ndarray..RawRef$LT$A$C$D$GT$$GT$5deref17h045a928e306e9757E', symObjAddr: 0x707C, symBinAddr: 0x111F0, symSize: 0x18 }
  - { offset: 0x20BCD, size: 0x8, addend: 0x0, symName: '__ZN7ndarray14impl_ref_types82_$LT$impl$u20$core..ops..deref..Deref$u20$for$u20$ndarray..RawRef$LT$A$C$D$GT$$GT$5deref17h2c00c251fc908e76E', symObjAddr: 0x7094, symBinAddr: 0x11208, symSize: 0x18 }
  - { offset: 0x20C0B, size: 0x8, addend: 0x0, symName: '__ZN7ndarray14impl_ref_types82_$LT$impl$u20$core..ops..deref..Deref$u20$for$u20$ndarray..RawRef$LT$A$C$D$GT$$GT$5deref17h50ae84833f3614b3E', symObjAddr: 0x70AC, symBinAddr: 0x11220, symSize: 0x18 }
  - { offset: 0x20C4F, size: 0x8, addend: 0x0, symName: '__ZN7ndarray14impl_ref_types84_$LT$impl$u20$core..ops..deref..Deref$u20$for$u20$ndarray..ArrayRef$LT$A$C$D$GT$$GT$5deref17h0669e8b1837a9fc8E', symObjAddr: 0x70C4, symBinAddr: 0x11238, symSize: 0x18 }
  - { offset: 0x20C8D, size: 0x8, addend: 0x0, symName: '__ZN7ndarray14impl_ref_types84_$LT$impl$u20$core..ops..deref..Deref$u20$for$u20$ndarray..ArrayRef$LT$A$C$D$GT$$GT$5deref17h2c1fd7d882e25269E', symObjAddr: 0x70DC, symBinAddr: 0x11250, symSize: 0x18 }
  - { offset: 0x20CCB, size: 0x8, addend: 0x0, symName: '__ZN7ndarray14impl_ref_types84_$LT$impl$u20$core..ops..deref..Deref$u20$for$u20$ndarray..ArrayRef$LT$A$C$D$GT$$GT$5deref17h71800d7e8125da40E', symObjAddr: 0x70F4, symBinAddr: 0x11268, symSize: 0x18 }
  - { offset: 0x20D0F, size: 0x8, addend: 0x0, symName: '__ZN7ndarray14impl_ref_types85_$LT$impl$u20$core..ops..deref..Deref$u20$for$u20$ndarray..ArrayBase$LT$S$C$D$GT$$GT$5deref17h7728e9c62e700a70E', symObjAddr: 0x710C, symBinAddr: 0x11280, symSize: 0x30 }
  - { offset: 0x20D6A, size: 0x8, addend: 0x0, symName: '__ZN7ndarray14impl_ref_types85_$LT$impl$u20$core..ops..deref..Deref$u20$for$u20$ndarray..ArrayBase$LT$S$C$D$GT$$GT$5deref17h89afa45940868517E', symObjAddr: 0x713C, symBinAddr: 0x112B0, symSize: 0x30 }
  - { offset: 0x20DC5, size: 0x8, addend: 0x0, symName: '__ZN7ndarray14impl_ref_types85_$LT$impl$u20$core..ops..deref..Deref$u20$for$u20$ndarray..ArrayBase$LT$S$C$D$GT$$GT$5deref17hab9f974f500d38deE', symObjAddr: 0x716C, symBinAddr: 0x112E0, symSize: 0x30 }
  - { offset: 0x20E20, size: 0x8, addend: 0x0, symName: '__ZN7ndarray14impl_ref_types85_$LT$impl$u20$core..ops..deref..Deref$u20$for$u20$ndarray..ArrayBase$LT$S$C$D$GT$$GT$5deref17hc6ed37f1c0c9d5bbE', symObjAddr: 0x719C, symBinAddr: 0x11310, symSize: 0x30 }
  - { offset: 0x20E7B, size: 0x8, addend: 0x0, symName: '__ZN7ndarray14impl_ref_types85_$LT$impl$u20$core..ops..deref..Deref$u20$for$u20$ndarray..ArrayBase$LT$S$C$D$GT$$GT$5deref17heffd719551356ae5E', symObjAddr: 0x71CC, symBinAddr: 0x11340, symSize: 0x30 }
  - { offset: 0x20ED6, size: 0x8, addend: 0x0, symName: '__ZN7ndarray14impl_ref_types85_$LT$impl$u20$core..ops..deref..Deref$u20$for$u20$ndarray..ArrayBase$LT$S$C$D$GT$$GT$5deref17hfe18587b32d4329eE', symObjAddr: 0x71FC, symBinAddr: 0x11370, symSize: 0x30 }
  - { offset: 0x20F37, size: 0x8, addend: 0x0, symName: '__ZN7ndarray14impl_ref_types87_$LT$impl$u20$core..ops..deref..DerefMut$u20$for$u20$ndarray..ArrayRef$LT$A$C$D$GT$$GT$9deref_mut17h80a3a09f67af2b96E', symObjAddr: 0x722C, symBinAddr: 0x113A0, symSize: 0x18 }
  - { offset: 0x20F75, size: 0x8, addend: 0x0, symName: '__ZN7ndarray14impl_ref_types87_$LT$impl$u20$core..ops..deref..DerefMut$u20$for$u20$ndarray..ArrayRef$LT$A$C$D$GT$$GT$9deref_mut17hc1fbbb8c69df9a4eE', symObjAddr: 0x7244, symBinAddr: 0x113B8, symSize: 0x18 }
  - { offset: 0x20FB9, size: 0x8, addend: 0x0, symName: '__ZN7ndarray14impl_ref_types88_$LT$impl$u20$core..ops..deref..DerefMut$u20$for$u20$ndarray..ArrayBase$LT$S$C$D$GT$$GT$9deref_mut17h84007628313b6ef0E', symObjAddr: 0x725C, symBinAddr: 0x113D0, symSize: 0x48 }
  - { offset: 0x21014, size: 0x8, addend: 0x0, symName: '__ZN7ndarray14impl_ref_types88_$LT$impl$u20$core..ops..deref..DerefMut$u20$for$u20$ndarray..ArrayBase$LT$S$C$D$GT$$GT$9deref_mut17hebbd33439c01d867E', symObjAddr: 0x72A4, symBinAddr: 0x11418, symSize: 0x48 }
  - { offset: 0x22E75, size: 0x8, addend: 0x0, symName: '__ZN7ndarray10impl_views11conversions82_$LT$impl$u20$ndarray..ArrayBase$LT$ndarray..ViewRepr$LT$$RF$A$GT$$C$D$C$A$GT$$GT$14into_base_iter17h00b52756ce2c3cbaE', symObjAddr: 0x0, symBinAddr: 0xA174, symSize: 0x4C }
  - { offset: 0x22EFB, size: 0x8, addend: 0x0, symName: '__ZN7ndarray10impl_views11conversions82_$LT$impl$u20$ndarray..ArrayBase$LT$ndarray..ViewRepr$LT$$RF$A$GT$$C$D$C$A$GT$$GT$14into_base_iter17h83cd394edf35cf14E', symObjAddr: 0x4C, symBinAddr: 0xA1C0, symSize: 0x4C }
  - { offset: 0x22F51, size: 0x8, addend: 0x0, symName: '__ZN7ndarray10impl_views11conversions82_$LT$impl$u20$ndarray..ArrayBase$LT$ndarray..ViewRepr$LT$$RF$A$GT$$C$D$C$A$GT$$GT$14into_base_iter17hdf275c59d7695209E', symObjAddr: 0x98, symBinAddr: 0xA20C, symSize: 0x4C }
  - { offset: 0x22F86, size: 0x8, addend: 0x0, symName: '__ZN7ndarray10impl_views11conversions82_$LT$impl$u20$ndarray..ArrayBase$LT$ndarray..ViewRepr$LT$$RF$A$GT$$C$D$C$A$GT$$GT$18into_elements_base17ha177ead2fcfeea68E', symObjAddr: 0xE4, symBinAddr: 0xA258, symSize: 0x34 }
  - { offset: 0x22FBB, size: 0x8, addend: 0x0, symName: '__ZN7ndarray10impl_views11conversions82_$LT$impl$u20$ndarray..ArrayBase$LT$ndarray..ViewRepr$LT$$RF$A$GT$$C$D$C$A$GT$$GT$18into_elements_base17hded8ac6ddaa299fbE', symObjAddr: 0x118, symBinAddr: 0xA28C, symSize: 0x34 }
  - { offset: 0x22FF0, size: 0x8, addend: 0x0, symName: '__ZN7ndarray10impl_views11conversions82_$LT$impl$u20$ndarray..ArrayBase$LT$ndarray..ViewRepr$LT$$RF$A$GT$$C$D$C$A$GT$$GT$18into_elements_base17he02efca2fbee5452E', symObjAddr: 0x14C, symBinAddr: 0xA2C0, symSize: 0x34 }
  - { offset: 0x23059, size: 0x8, addend: 0x0, symName: '__ZN7ndarray10impl_views11conversions82_$LT$impl$u20$ndarray..ArrayBase$LT$ndarray..ViewRepr$LT$$RF$A$GT$$C$D$C$A$GT$$GT$8to_slice17h2c245a392d0f8fd4E', symObjAddr: 0x180, symBinAddr: 0xA2F4, symSize: 0x74 }
  - { offset: 0x230C1, size: 0x8, addend: 0x0, symName: '__ZN7ndarray10impl_views11conversions82_$LT$impl$u20$ndarray..ArrayBase$LT$ndarray..ViewRepr$LT$$RF$A$GT$$C$D$C$A$GT$$GT$8to_slice17h2fba9a1842f86a39E', symObjAddr: 0x1F4, symBinAddr: 0xA368, symSize: 0x74 }
  - { offset: 0x23129, size: 0x8, addend: 0x0, symName: '__ZN7ndarray10impl_views11conversions82_$LT$impl$u20$ndarray..ArrayBase$LT$ndarray..ViewRepr$LT$$RF$A$GT$$C$D$C$A$GT$$GT$8to_slice17hb04c2a9a8a40d52bE', symObjAddr: 0x268, symBinAddr: 0xA3DC, symSize: 0x74 }
  - { offset: 0x2315D, size: 0x8, addend: 0x0, symName: '__ZN7ndarray10impl_views12constructors82_$LT$impl$u20$ndarray..ArrayBase$LT$ndarray..ViewRepr$LT$$RF$A$GT$$C$D$C$A$GT$$GT$14from_shape_ptr17ha77ac3087019349bE', symObjAddr: 0x2DC, symBinAddr: 0xA450, symSize: 0x54 }
  - { offset: 0x231A9, size: 0x8, addend: 0x0, symName: '__ZN7ndarray10impl_views12constructors82_$LT$impl$u20$ndarray..ArrayBase$LT$ndarray..ViewRepr$LT$$RF$A$GT$$C$D$C$A$GT$$GT$14from_shape_ptr17hf835126432032cdcE', symObjAddr: 0x330, symBinAddr: 0xA4A4, symSize: 0x54 }
  - { offset: 0x23254, size: 0x8, addend: 0x0, symName: '__ZN7ndarray11alias_asref49_$LT$impl$u20$ndarray..ArrayBase$LT$S$C$D$GT$$GT$11invert_axis17h4daec50f3c96ae75E', symObjAddr: 0x48C, symBinAddr: 0xA600, symSize: 0x3C }
  - { offset: 0x232A3, size: 0x8, addend: 0x0, symName: '__ZN7ndarray11alias_asref49_$LT$impl$u20$ndarray..ArrayBase$LT$S$C$D$GT$$GT$11invert_axis17hc129bb29037d2d92E', symObjAddr: 0x4C8, symBinAddr: 0xA63C, symSize: 0x3C }
  - { offset: 0x232F2, size: 0x8, addend: 0x0, symName: '__ZN7ndarray11alias_asref49_$LT$impl$u20$ndarray..ArrayBase$LT$S$C$D$GT$$GT$13collapse_axis17h97d5ab3e834e27d6E', symObjAddr: 0x504, symBinAddr: 0xA678, symSize: 0x48 }
  - { offset: 0x23342, size: 0x8, addend: 0x0, symName: '__ZN7ndarray11alias_asref49_$LT$impl$u20$ndarray..ArrayBase$LT$S$C$D$GT$$GT$13collapse_axis17hf275388c3432b912E', symObjAddr: 0x54C, symBinAddr: 0xA6C0, symSize: 0x48 }
  - { offset: 0x233A6, size: 0x8, addend: 0x0, symName: '__ZN7ndarray11alias_asref49_$LT$impl$u20$ndarray..ArrayBase$LT$S$C$D$GT$$GT$18is_standard_layout17h08e922ea8bb91bc0E', symObjAddr: 0x594, symBinAddr: 0xA708, symSize: 0x28 }
  - { offset: 0x233DA, size: 0x8, addend: 0x0, symName: '__ZN7ndarray11alias_asref49_$LT$impl$u20$ndarray..ArrayBase$LT$S$C$D$GT$$GT$18is_standard_layout17h1deea2c4234cbdf5E', symObjAddr: 0x5BC, symBinAddr: 0xA730, symSize: 0x28 }
  - { offset: 0x2341B, size: 0x8, addend: 0x0, symName: '__ZN7ndarray11alias_asref49_$LT$impl$u20$ndarray..ArrayBase$LT$S$C$D$GT$$GT$18is_standard_layout17h51d2a6681b2e62d0E', symObjAddr: 0x5E4, symBinAddr: 0xA758, symSize: 0x28 }
  - { offset: 0x2344F, size: 0x8, addend: 0x0, symName: '__ZN7ndarray11alias_asref49_$LT$impl$u20$ndarray..ArrayBase$LT$S$C$D$GT$$GT$18is_standard_layout17h95037cbd951b6589E', symObjAddr: 0x60C, symBinAddr: 0xA780, symSize: 0x28 }
  - { offset: 0x23483, size: 0x8, addend: 0x0, symName: '__ZN7ndarray11alias_asref49_$LT$impl$u20$ndarray..ArrayBase$LT$S$C$D$GT$$GT$18is_standard_layout17ha819be7bd3af731eE', symObjAddr: 0x634, symBinAddr: 0xA7A8, symSize: 0x28 }
  - { offset: 0x234BE, size: 0x8, addend: 0x0, symName: '__ZN7ndarray11alias_asref49_$LT$impl$u20$ndarray..ArrayBase$LT$S$C$D$GT$$GT$18slice_axis_inplace17h333283f1e402644aE', symObjAddr: 0x65C, symBinAddr: 0xA7D0, symSize: 0x58 }
  - { offset: 0x2350F, size: 0x8, addend: 0x0, symName: '__ZN7ndarray11alias_asref49_$LT$impl$u20$ndarray..ArrayBase$LT$S$C$D$GT$$GT$18slice_axis_inplace17h8c3c1ae2a9b7628fE', symObjAddr: 0x6B4, symBinAddr: 0xA828, symSize: 0x58 }
  - { offset: 0x23560, size: 0x8, addend: 0x0, symName: '__ZN7ndarray11alias_asref49_$LT$impl$u20$ndarray..ArrayBase$LT$S$C$D$GT$$GT$3len17h0a137022eb932896E', symObjAddr: 0x70C, symBinAddr: 0xA880, symSize: 0x28 }
  - { offset: 0x235A2, size: 0x8, addend: 0x0, symName: '__ZN7ndarray11alias_asref49_$LT$impl$u20$ndarray..ArrayBase$LT$S$C$D$GT$$GT$3len17h5962a8ce82a082ceE', symObjAddr: 0x734, symBinAddr: 0xA8A8, symSize: 0x28 }
  - { offset: 0x235D7, size: 0x8, addend: 0x0, symName: '__ZN7ndarray11alias_asref49_$LT$impl$u20$ndarray..ArrayBase$LT$S$C$D$GT$$GT$3len17hde531b6b40e34879E', symObjAddr: 0x75C, symBinAddr: 0xA8D0, symSize: 0x28 }
  - { offset: 0x2360C, size: 0x8, addend: 0x0, symName: '__ZN7ndarray11alias_asref49_$LT$impl$u20$ndarray..ArrayBase$LT$S$C$D$GT$$GT$3len17he1affc30187fa513E', symObjAddr: 0x784, symBinAddr: 0xA8F8, symSize: 0x28 }
  - { offset: 0x23641, size: 0x8, addend: 0x0, symName: '__ZN7ndarray11alias_asref49_$LT$impl$u20$ndarray..ArrayBase$LT$S$C$D$GT$$GT$3len17hffe74efcba45dd84E', symObjAddr: 0x7AC, symBinAddr: 0xA920, symSize: 0x28 }
  - { offset: 0x23676, size: 0x8, addend: 0x0, symName: '__ZN7ndarray11alias_asref49_$LT$impl$u20$ndarray..ArrayBase$LT$S$C$D$GT$$GT$4ndim17h2b6b40a4e423a6ccE', symObjAddr: 0x7D4, symBinAddr: 0xA948, symSize: 0x28 }
  - { offset: 0x236AB, size: 0x8, addend: 0x0, symName: '__ZN7ndarray11alias_asref49_$LT$impl$u20$ndarray..ArrayBase$LT$S$C$D$GT$$GT$4ndim17h7d93746a971faf55E', symObjAddr: 0x7FC, symBinAddr: 0xA970, symSize: 0x28 }
  - { offset: 0x236E0, size: 0x8, addend: 0x0, symName: '__ZN7ndarray11alias_asref49_$LT$impl$u20$ndarray..ArrayBase$LT$S$C$D$GT$$GT$4ndim17h823c21d16f62b119E', symObjAddr: 0x824, symBinAddr: 0xA998, symSize: 0x28 }
  - { offset: 0x23715, size: 0x8, addend: 0x0, symName: '__ZN7ndarray11alias_asref49_$LT$impl$u20$ndarray..ArrayBase$LT$S$C$D$GT$$GT$6len_of17h00ee01b940a1db46E', symObjAddr: 0x84C, symBinAddr: 0xA9C0, symSize: 0x3C }
  - { offset: 0x23759, size: 0x8, addend: 0x0, symName: '__ZN7ndarray11alias_asref49_$LT$impl$u20$ndarray..ArrayBase$LT$S$C$D$GT$$GT$6len_of17h59563c67721289feE', symObjAddr: 0x888, symBinAddr: 0xA9FC, symSize: 0x3C }
  - { offset: 0x2379D, size: 0x8, addend: 0x0, symName: '__ZN7ndarray11alias_asref49_$LT$impl$u20$ndarray..ArrayBase$LT$S$C$D$GT$$GT$7raw_dim17h8e2a2f02ee44413aE', symObjAddr: 0x8C4, symBinAddr: 0xAA38, symSize: 0x38 }
  - { offset: 0x237F9, size: 0x8, addend: 0x0, symName: '__ZN7ndarray11alias_asref49_$LT$impl$u20$ndarray..ArrayBase$LT$S$C$D$GT$$GT$7strides17h524c47188096124fE', symObjAddr: 0x8FC, symBinAddr: 0xAA70, symSize: 0x28 }
  - { offset: 0x2382E, size: 0x8, addend: 0x0, symName: '__ZN7ndarray11alias_asref53_$LT$impl$u20$ndarray..ArrayBase$LT$S$C$D$C$A$GT$$GT$8raw_view17h64412a970bf124f6E', symObjAddr: 0x924, symBinAddr: 0xAA98, symSize: 0x30 }
  - { offset: 0x2399C, size: 0x8, addend: 0x0, symName: '__ZN7ndarray12impl_methods46_$LT$impl$u20$ndarray..RawRef$LT$A$C$D$GT$$GT$8raw_view17h0ed447a0aea8d3bbE', symObjAddr: 0x1FD0, symBinAddr: 0xC144, symSize: 0x118 }
  - { offset: 0x23A48, size: 0x8, addend: 0x0, symName: '__ZN7ndarray12impl_methods48_$LT$impl$u20$ndarray..ArrayRef$LT$A$C$D$GT$$GT$21as_slice_memory_order17h6c1f0fd02792807fE', symObjAddr: 0x20E8, symBinAddr: 0xC25C, symSize: 0x130 }
  - { offset: 0x23B7D, size: 0x8, addend: 0x0, symName: '__ZN7ndarray12impl_methods48_$LT$impl$u20$ndarray..ArrayRef$LT$A$C$D$GT$$GT$21as_slice_memory_order17h6cc745cc1e7fa420E', symObjAddr: 0x2218, symBinAddr: 0xC38C, symSize: 0x130 }
  - { offset: 0x23CB2, size: 0x8, addend: 0x0, symName: '__ZN7ndarray12impl_methods48_$LT$impl$u20$ndarray..ArrayRef$LT$A$C$D$GT$$GT$21as_slice_memory_order17he5d7ff6a6c83deecE', symObjAddr: 0x2348, symBinAddr: 0xC4BC, symSize: 0x130 }
  - { offset: 0x23D96, size: 0x8, addend: 0x0, symName: '__ZN7ndarray12impl_methods48_$LT$impl$u20$ndarray..ArrayRef$LT$A$C$D$GT$$GT$3map17h0c73c0da56f696d3E', symObjAddr: 0x2478, symBinAddr: 0xC5EC, symSize: 0x314 }
  - { offset: 0x23E1D, size: 0x8, addend: 0x0, symName: '__ZN7ndarray12impl_methods48_$LT$impl$u20$ndarray..ArrayRef$LT$A$C$D$GT$$GT$3map17h15a6993a3957cbb8E', symObjAddr: 0x278C, symBinAddr: 0xC900, symSize: 0x314 }
  - { offset: 0x23E8C, size: 0x8, addend: 0x0, symName: '__ZN7ndarray12impl_methods48_$LT$impl$u20$ndarray..ArrayRef$LT$A$C$D$GT$$GT$3map17h8c68208abb84f1bcE', symObjAddr: 0x2AA0, symBinAddr: 0xCC14, symSize: 0x314 }
  - { offset: 0x23F13, size: 0x8, addend: 0x0, symName: '__ZN7ndarray12impl_methods48_$LT$impl$u20$ndarray..ArrayRef$LT$A$C$D$GT$$GT$3map17hab0eb2e41cc083a9E', symObjAddr: 0x2DB4, symBinAddr: 0xCF28, symSize: 0x314 }
  - { offset: 0x23F9A, size: 0x8, addend: 0x0, symName: '__ZN7ndarray12impl_methods48_$LT$impl$u20$ndarray..ArrayRef$LT$A$C$D$GT$$GT$3map17hae2544e3c0e21e17E', symObjAddr: 0x30C8, symBinAddr: 0xD23C, symSize: 0x314 }
  - { offset: 0x24009, size: 0x8, addend: 0x0, symName: '__ZN7ndarray12impl_methods48_$LT$impl$u20$ndarray..ArrayRef$LT$A$C$D$GT$$GT$4iter17h3373f2de96e98ae5E', symObjAddr: 0x33DC, symBinAddr: 0xD550, symSize: 0x40 }
  - { offset: 0x2403E, size: 0x8, addend: 0x0, symName: '__ZN7ndarray12impl_methods48_$LT$impl$u20$ndarray..ArrayRef$LT$A$C$D$GT$$GT$4iter17haf4d662da55dbd38E', symObjAddr: 0x341C, symBinAddr: 0xD590, symSize: 0x40 }
  - { offset: 0x24073, size: 0x8, addend: 0x0, symName: '__ZN7ndarray12impl_methods48_$LT$impl$u20$ndarray..ArrayRef$LT$A$C$D$GT$$GT$4iter17hc7cc647d6d529b5aE', symObjAddr: 0x345C, symBinAddr: 0xD5D0, symSize: 0x40 }
  - { offset: 0x240A8, size: 0x8, addend: 0x0, symName: '__ZN7ndarray12impl_methods48_$LT$impl$u20$ndarray..ArrayRef$LT$A$C$D$GT$$GT$4mapv17h7fd67ce60142e6d5E', symObjAddr: 0x349C, symBinAddr: 0xD610, symSize: 0x28 }
  - { offset: 0x240FE, size: 0x8, addend: 0x0, symName: '__ZN7ndarray12impl_methods48_$LT$impl$u20$ndarray..ArrayRef$LT$A$C$D$GT$$GT$4mapv17h84d91339bcd2cb7fE', symObjAddr: 0x34C4, symBinAddr: 0xD638, symSize: 0x28 }
  - { offset: 0x241E1, size: 0x8, addend: 0x0, symName: '__ZN7ndarray12impl_methods48_$LT$impl$u20$ndarray..ArrayRef$LT$A$C$D$GT$$GT$4view17h2d802ab4b22224c4E', symObjAddr: 0x34EC, symBinAddr: 0xD660, symSize: 0x2FC }
  - { offset: 0x242DC, size: 0x8, addend: 0x0, symName: '__ZN7ndarray12impl_methods48_$LT$impl$u20$ndarray..ArrayRef$LT$A$C$D$GT$$GT$4view17h9837395a06b3f319E', symObjAddr: 0x37E8, symBinAddr: 0xD95C, symSize: 0x2FC }
  - { offset: 0x243D7, size: 0x8, addend: 0x0, symName: '__ZN7ndarray12impl_methods48_$LT$impl$u20$ndarray..ArrayRef$LT$A$C$D$GT$$GT$4view17ha5d6da6ecb1bdb13E', symObjAddr: 0x3AE4, symBinAddr: 0xDC58, symSize: 0x2FC }
  - { offset: 0x24495, size: 0x8, addend: 0x0, symName: '__ZN7ndarray12impl_methods48_$LT$impl$u20$ndarray..ArrayRef$LT$A$C$D$GT$$GT$5slice17h1c6409325a6870a1E', symObjAddr: 0x3DE0, symBinAddr: 0xDF54, symSize: 0xA0 }
  - { offset: 0x244E3, size: 0x8, addend: 0x0, symName: '__ZN7ndarray12impl_methods48_$LT$impl$u20$ndarray..ArrayRef$LT$A$C$D$GT$$GT$5slice17h392804ac88aafaa3E', symObjAddr: 0x3E80, symBinAddr: 0xDFF4, symSize: 0xA0 }
  - { offset: 0x24531, size: 0x8, addend: 0x0, symName: '__ZN7ndarray12impl_methods48_$LT$impl$u20$ndarray..ArrayRef$LT$A$C$D$GT$$GT$8to_owned17h312d471cded21a01E', symObjAddr: 0x3F20, symBinAddr: 0xE094, symSize: 0x1D0 }
  - { offset: 0x2457C, size: 0x8, addend: 0x0, symName: '__ZN7ndarray12impl_methods48_$LT$impl$u20$ndarray..ArrayRef$LT$A$C$D$GT$$GT$8to_owned17h6f921acda821aa5fE', symObjAddr: 0x40F0, symBinAddr: 0xE264, symSize: 0x1D0 }
  - { offset: 0x245C7, size: 0x8, addend: 0x0, symName: '__ZN7ndarray12impl_methods48_$LT$impl$u20$ndarray..ArrayRef$LT$A$C$D$GT$$GT$8to_owned17h9e73380b2fbfb11fE', symObjAddr: 0x42C0, symBinAddr: 0xE434, symSize: 0x1D0 }
  - { offset: 0x24661, size: 0x8, addend: 0x0, symName: '__ZN7ndarray12impl_methods49_$LT$impl$u20$ndarray..LayoutRef$LT$A$C$D$GT$$GT$11invert_axis17h1aff198dbf0f17c2E', symObjAddr: 0x4490, symBinAddr: 0xE604, symSize: 0x14C }
  - { offset: 0x2476D, size: 0x8, addend: 0x0, symName: '__ZN7ndarray12impl_methods49_$LT$impl$u20$ndarray..LayoutRef$LT$A$C$D$GT$$GT$11invert_axis17hbb0c93cccf8c605cE', symObjAddr: 0x45DC, symBinAddr: 0xE750, symSize: 0x14C }
  - { offset: 0x2482A, size: 0x8, addend: 0x0, symName: '__ZN7ndarray12impl_methods49_$LT$impl$u20$ndarray..LayoutRef$LT$A$C$D$GT$$GT$13collapse_axis17h198a7fe9115981c6E', symObjAddr: 0x4728, symBinAddr: 0xE89C, symSize: 0x8C }
  - { offset: 0x2492E, size: 0x8, addend: 0x0, symName: '__ZN7ndarray12impl_methods49_$LT$impl$u20$ndarray..LayoutRef$LT$A$C$D$GT$$GT$13collapse_axis17h6474259c8ff787a9E', symObjAddr: 0x47B4, symBinAddr: 0xE928, symSize: 0x8C }
  - { offset: 0x24A01, size: 0x8, addend: 0x0, symName: '__ZN7ndarray12impl_methods49_$LT$impl$u20$ndarray..LayoutRef$LT$A$C$D$GT$$GT$13is_contiguous17h40b969a569aecb3bE', symObjAddr: 0x4840, symBinAddr: 0xE9B4, symSize: 0x50 }
  - { offset: 0x24A54, size: 0x8, addend: 0x0, symName: '__ZN7ndarray12impl_methods49_$LT$impl$u20$ndarray..LayoutRef$LT$A$C$D$GT$$GT$13is_contiguous17ha5a21e7537115aa7E', symObjAddr: 0x4890, symBinAddr: 0xEA04, symSize: 0x50 }
  - { offset: 0x24AA7, size: 0x8, addend: 0x0, symName: '__ZN7ndarray12impl_methods49_$LT$impl$u20$ndarray..LayoutRef$LT$A$C$D$GT$$GT$13is_contiguous17hd3a8b4ddf5cad8caE', symObjAddr: 0x48E0, symBinAddr: 0xEA54, symSize: 0x50 }
  - { offset: 0x24ADC, size: 0x8, addend: 0x0, symName: '__ZN7ndarray12impl_methods49_$LT$impl$u20$ndarray..LayoutRef$LT$A$C$D$GT$$GT$18is_standard_layout17h8e76395548ed2f28E', symObjAddr: 0x4930, symBinAddr: 0xEAA4, symSize: 0x50 }
  - { offset: 0x24B11, size: 0x8, addend: 0x0, symName: '__ZN7ndarray12impl_methods49_$LT$impl$u20$ndarray..LayoutRef$LT$A$C$D$GT$$GT$18is_standard_layout17hbab59ab0de1fd22aE', symObjAddr: 0x4980, symBinAddr: 0xEAF4, symSize: 0x50 }
  - { offset: 0x24B46, size: 0x8, addend: 0x0, symName: '__ZN7ndarray12impl_methods49_$LT$impl$u20$ndarray..LayoutRef$LT$A$C$D$GT$$GT$18is_standard_layout17hd1147900dcd8e198E', symObjAddr: 0x49D0, symBinAddr: 0xEB44, symSize: 0x50 }
  - { offset: 0x24B7B, size: 0x8, addend: 0x0, symName: '__ZN7ndarray12impl_methods49_$LT$impl$u20$ndarray..LayoutRef$LT$A$C$D$GT$$GT$18slice_axis_inplace17h8a305e684161a4c0E', symObjAddr: 0x4A20, symBinAddr: 0xEB94, symSize: 0x12C }
  - { offset: 0x24C2C, size: 0x8, addend: 0x0, symName: '__ZN7ndarray12impl_methods49_$LT$impl$u20$ndarray..LayoutRef$LT$A$C$D$GT$$GT$18slice_axis_inplace17hb0912658dff709b0E', symObjAddr: 0x4B4C, symBinAddr: 0xECC0, symSize: 0x12C }
  - { offset: 0x24CDD, size: 0x8, addend: 0x0, symName: '__ZN7ndarray12impl_methods49_$LT$impl$u20$ndarray..LayoutRef$LT$A$C$D$GT$$GT$3len17h9d0dfe94e46f6881E', symObjAddr: 0x4C78, symBinAddr: 0xEDEC, symSize: 0x2C }
  - { offset: 0x24D11, size: 0x8, addend: 0x0, symName: '__ZN7ndarray12impl_methods49_$LT$impl$u20$ndarray..LayoutRef$LT$A$C$D$GT$$GT$3len17ha68c6ffc69cec6ebE', symObjAddr: 0x4CA4, symBinAddr: 0xEE18, symSize: 0x2C }
  - { offset: 0x24D45, size: 0x8, addend: 0x0, symName: '__ZN7ndarray12impl_methods49_$LT$impl$u20$ndarray..LayoutRef$LT$A$C$D$GT$$GT$3len17hb2f84b0de9b53c8fE', symObjAddr: 0x4CD0, symBinAddr: 0xEE44, symSize: 0x2C }
  - { offset: 0x24D79, size: 0x8, addend: 0x0, symName: '__ZN7ndarray12impl_methods49_$LT$impl$u20$ndarray..LayoutRef$LT$A$C$D$GT$$GT$4ndim17h4e69137aa16d9ce4E', symObjAddr: 0x4CFC, symBinAddr: 0xEE70, symSize: 0x2C }
  - { offset: 0x24DAD, size: 0x8, addend: 0x0, symName: '__ZN7ndarray12impl_methods49_$LT$impl$u20$ndarray..LayoutRef$LT$A$C$D$GT$$GT$4ndim17he716a6774066b265E', symObjAddr: 0x4D28, symBinAddr: 0xEE9C, symSize: 0x2C }
  - { offset: 0x24DE1, size: 0x8, addend: 0x0, symName: '__ZN7ndarray12impl_methods49_$LT$impl$u20$ndarray..LayoutRef$LT$A$C$D$GT$$GT$5shape17h0b91edfbcf49102cE', symObjAddr: 0x4D54, symBinAddr: 0xEEC8, symSize: 0x2C }
  - { offset: 0x24E15, size: 0x8, addend: 0x0, symName: '__ZN7ndarray12impl_methods49_$LT$impl$u20$ndarray..LayoutRef$LT$A$C$D$GT$$GT$5shape17h1acf4eb8c318d2d2E', symObjAddr: 0x4D80, symBinAddr: 0xEEF4, symSize: 0x2C }
  - { offset: 0x24E49, size: 0x8, addend: 0x0, symName: '__ZN7ndarray12impl_methods49_$LT$impl$u20$ndarray..LayoutRef$LT$A$C$D$GT$$GT$5shape17hce1cfa21e57f0d10E', symObjAddr: 0x4DAC, symBinAddr: 0xEF20, symSize: 0x2C }
  - { offset: 0x24E8A, size: 0x8, addend: 0x0, symName: '__ZN7ndarray12impl_methods49_$LT$impl$u20$ndarray..LayoutRef$LT$A$C$D$GT$$GT$6len_of17h544e301786d1428bE', symObjAddr: 0x4DD8, symBinAddr: 0xEF4C, symSize: 0x7C }
  - { offset: 0x24EF1, size: 0x8, addend: 0x0, symName: '__ZN7ndarray12impl_methods49_$LT$impl$u20$ndarray..LayoutRef$LT$A$C$D$GT$$GT$6len_of17h903418ff7bb31409E', symObjAddr: 0x4E54, symBinAddr: 0xEFC8, symSize: 0x7C }
  - { offset: 0x24F58, size: 0x8, addend: 0x0, symName: '__ZN7ndarray12impl_methods49_$LT$impl$u20$ndarray..LayoutRef$LT$A$C$D$GT$$GT$7raw_dim17h9d11a99ab09fe556E', symObjAddr: 0x4ED0, symBinAddr: 0xF044, symSize: 0x3C }
  - { offset: 0x24F8C, size: 0x8, addend: 0x0, symName: '__ZN7ndarray12impl_methods49_$LT$impl$u20$ndarray..LayoutRef$LT$A$C$D$GT$$GT$7strides17h7a2540e79512b09dE', symObjAddr: 0x4F0C, symBinAddr: 0xF080, symSize: 0x50 }
  - { offset: 0x24FDD, size: 0x8, addend: 0x0, symName: '__ZN7ndarray12impl_methods53_$LT$impl$u20$ndarray..ArrayBase$LT$S$C$D$C$A$GT$$GT$10slice_move17h16ffd5234e3f27aaE', symObjAddr: 0x4F5C, symBinAddr: 0xF0D0, symSize: 0x330 }
  - { offset: 0x25181, size: 0x8, addend: 0x0, symName: '__ZN7ndarray12impl_methods53_$LT$impl$u20$ndarray..ArrayBase$LT$S$C$D$C$A$GT$$GT$10slice_move17h2eac3e73cc4b7873E', symObjAddr: 0x528C, symBinAddr: 0xF400, symSize: 0x330 }
  - { offset: 0x25332, size: 0x8, addend: 0x0, symName: '__ZN7ndarray12impl_methods53_$LT$impl$u20$ndarray..ArrayBase$LT$S$C$D$C$A$GT$$GT$13ensure_unique17h47404ce6f30fca9dE', symObjAddr: 0x55BC, symBinAddr: 0xF730, symSize: 0x80 }
  - { offset: 0x2537D, size: 0x8, addend: 0x0, symName: '__ZN7ndarray12impl_methods53_$LT$impl$u20$ndarray..ArrayBase$LT$S$C$D$C$A$GT$$GT$13ensure_unique17h92771cd846dd949aE', symObjAddr: 0x563C, symBinAddr: 0xF7B0, symSize: 0x80 }
  - { offset: 0x253BB, size: 0x8, addend: 0x0, symName: '__ZN7ndarray12impl_methods53_$LT$impl$u20$ndarray..ArrayBase$LT$S$C$D$C$A$GT$$GT$13reversed_axes17hdece7918c3179826E', symObjAddr: 0x56BC, symBinAddr: 0xF830, symSize: 0x9C }
  - { offset: 0x2544C, size: 0x8, addend: 0x0, symName: '__ZN7ndarray12impl_methods53_$LT$impl$u20$ndarray..ArrayBase$LT$S$C$D$C$A$GT$$GT$19pointer_is_inbounds17h12add427381ba46aE', symObjAddr: 0x5758, symBinAddr: 0xF8CC, symSize: 0x60 }
  - { offset: 0x254F2, size: 0x8, addend: 0x0, symName: '__ZN7ndarray12impl_methods53_$LT$impl$u20$ndarray..ArrayBase$LT$S$C$D$C$A$GT$$GT$19pointer_is_inbounds17h19d50928a56b3c6eE', symObjAddr: 0x57B8, symBinAddr: 0xF92C, symSize: 0x58 }
  - { offset: 0x25598, size: 0x8, addend: 0x0, symName: '__ZN7ndarray12impl_methods53_$LT$impl$u20$ndarray..ArrayBase$LT$S$C$D$C$A$GT$$GT$19pointer_is_inbounds17h250f68096fc86160E', symObjAddr: 0x5810, symBinAddr: 0xF984, symSize: 0x60 }
  - { offset: 0x25681, size: 0x8, addend: 0x0, symName: '__ZN7ndarray12impl_methods53_$LT$impl$u20$ndarray..ArrayBase$LT$S$C$D$C$A$GT$$GT$19pointer_is_inbounds17h2894003bc20b0b50E', symObjAddr: 0x5870, symBinAddr: 0xF9E4, symSize: 0x58 }
  - { offset: 0x25773, size: 0x8, addend: 0x0, symName: '__ZN7ndarray12impl_methods53_$LT$impl$u20$ndarray..ArrayBase$LT$S$C$D$C$A$GT$$GT$19pointer_is_inbounds17h5737a929cda84c78E', symObjAddr: 0x58C8, symBinAddr: 0xFA3C, symSize: 0x60 }
  - { offset: 0x25826, size: 0x8, addend: 0x0, symName: '__ZN7ndarray12impl_methods53_$LT$impl$u20$ndarray..ArrayBase$LT$S$C$D$C$A$GT$$GT$19pointer_is_inbounds17h6bb625e829bb47a8E', symObjAddr: 0x5928, symBinAddr: 0xFA9C, symSize: 0x60 }
  - { offset: 0x258CC, size: 0x8, addend: 0x0, symName: '__ZN7ndarray12impl_methods53_$LT$impl$u20$ndarray..ArrayBase$LT$S$C$D$C$A$GT$$GT$19pointer_is_inbounds17hf000203508e373bdE', symObjAddr: 0x5988, symBinAddr: 0xFAFC, symSize: 0x60 }
  - { offset: 0x2597F, size: 0x8, addend: 0x0, symName: '__ZN7ndarray12impl_methods53_$LT$impl$u20$ndarray..ArrayBase$LT$S$C$D$C$A$GT$$GT$19pointer_is_inbounds17hfa18ed517d5df15fE', symObjAddr: 0x59E8, symBinAddr: 0xFB5C, symSize: 0x58 }
  - { offset: 0x259F8, size: 0x8, addend: 0x0, symName: '__ZN7ndarray12impl_methods53_$LT$impl$u20$ndarray..ArrayBase$LT$S$C$D$C$A$GT$$GT$8to_owned17h75767f726bfe3949E', symObjAddr: 0x5A40, symBinAddr: 0xFBB4, symSize: 0x30 }
  - { offset: 0x25A36, size: 0x8, addend: 0x0, symName: '__ZN7ndarray12impl_methods53_$LT$impl$u20$ndarray..ArrayBase$LT$S$C$D$C$A$GT$$GT$8to_owned17h82c9afc4c3733b67E', symObjAddr: 0x5A70, symBinAddr: 0xFBE4, symSize: 0x30 }
  - { offset: 0x25A74, size: 0x8, addend: 0x0, symName: '__ZN7ndarray12impl_methods53_$LT$impl$u20$ndarray..ArrayBase$LT$S$C$D$C$A$GT$$GT$8to_owned17ha7472f69a7f8c3e6E', symObjAddr: 0x5AA0, symBinAddr: 0xFC14, symSize: 0x30 }
  - { offset: 0x25AB2, size: 0x8, addend: 0x0, symName: '__ZN7ndarray12impl_methods53_$LT$impl$u20$ndarray..ArrayBase$LT$S$C$D$C$A$GT$$GT$8to_owned17hedc8f5d282e4c4a6E', symObjAddr: 0x5AD0, symBinAddr: 0xFC44, symSize: 0x30 }
  - { offset: 0x25B33, size: 0x8, addend: 0x0, symName: '__ZN7ndarray14impl_raw_views95_$LT$impl$u20$ndarray..ArrayBase$LT$ndarray..RawViewRepr$LT$$BP$const$u20$A$GT$$C$D$C$A$GT$$GT$14from_shape_ptr17h3045f5add1fa948aE', symObjAddr: 0x5B00, symBinAddr: 0xFC74, symSize: 0x364 }
  - { offset: 0x25C8A, size: 0x8, addend: 0x0, symName: '__ZN7ndarray14impl_raw_views95_$LT$impl$u20$ndarray..ArrayBase$LT$ndarray..RawViewRepr$LT$$BP$const$u20$A$GT$$C$D$C$A$GT$$GT$14from_shape_ptr17h3c127b8b41431996E', symObjAddr: 0x5E64, symBinAddr: 0xFFD8, symSize: 0x364 }
  - { offset: 0x25DE1, size: 0x8, addend: 0x0, symName: '__ZN7ndarray14impl_raw_views95_$LT$impl$u20$ndarray..ArrayBase$LT$ndarray..RawViewRepr$LT$$BP$const$u20$A$GT$$C$D$C$A$GT$$GT$15deref_into_view17hcee6c6a74d9f6f5fE', symObjAddr: 0x61C8, symBinAddr: 0x1033C, symSize: 0x2E0 }
  - { offset: 0x25EB0, size: 0x8, addend: 0x0, symName: '__ZN7ndarray14impl_raw_views95_$LT$impl$u20$ndarray..ArrayBase$LT$ndarray..RawViewRepr$LT$$BP$const$u20$A$GT$$C$D$C$A$GT$$GT$15deref_into_view17hde03a9bbd7ff3fcdE', symObjAddr: 0x64A8, symBinAddr: 0x1061C, symSize: 0x2E0 }
  - { offset: 0x25F8F, size: 0x8, addend: 0x0, symName: '__ZN7ndarray14impl_raw_views95_$LT$impl$u20$ndarray..ArrayBase$LT$ndarray..RawViewRepr$LT$$BP$const$u20$A$GT$$C$D$C$A$GT$$GT$3new17hf109f9a1672afdc2E', symObjAddr: 0x6788, symBinAddr: 0x108FC, symSize: 0xDC }
  - { offset: 0x26003, size: 0x8, addend: 0x0, symName: '__ZN7ndarray14impl_raw_views95_$LT$impl$u20$ndarray..ArrayBase$LT$ndarray..RawViewRepr$LT$$BP$const$u20$A$GT$$C$D$C$A$GT$$GT$3new17hf6f67249fdf36d81E', symObjAddr: 0x6864, symBinAddr: 0x109D8, symSize: 0xDC }
  - { offset: 0x26067, size: 0x8, addend: 0x0, symName: '__ZN7ndarray14impl_raw_views95_$LT$impl$u20$ndarray..ArrayBase$LT$ndarray..RawViewRepr$LT$$BP$const$u20$A$GT$$C$D$C$A$GT$$GT$4new_17h355db9ae0f601b0fE', symObjAddr: 0x6940, symBinAddr: 0x10AB4, symSize: 0xD4 }
  - { offset: 0x260B7, size: 0x8, addend: 0x0, symName: '__ZN7ndarray14impl_raw_views95_$LT$impl$u20$ndarray..ArrayBase$LT$ndarray..RawViewRepr$LT$$BP$const$u20$A$GT$$C$D$C$A$GT$$GT$4new_17hb2e2112ed25b9b40E', symObjAddr: 0x6A14, symBinAddr: 0x10B88, symSize: 0xD4 }
  - { offset: 0x26107, size: 0x8, addend: 0x0, symName: '__ZN7ndarray14impl_ref_types53_$LT$impl$u20$ndarray..ArrayBase$LT$S$C$D$C$A$GT$$GT$10as_raw_ref17h39b71284c2ac92baE', symObjAddr: 0x6E18, symBinAddr: 0x10F8C, symSize: 0x24 }
  - { offset: 0x26145, size: 0x8, addend: 0x0, symName: '__ZN7ndarray14impl_ref_types53_$LT$impl$u20$ndarray..ArrayBase$LT$S$C$D$C$A$GT$$GT$10as_raw_ref17h609f827827437795E', symObjAddr: 0x6E3C, symBinAddr: 0x10FB0, symSize: 0x24 }
  - { offset: 0x26183, size: 0x8, addend: 0x0, symName: '__ZN7ndarray14impl_ref_types53_$LT$impl$u20$ndarray..ArrayBase$LT$S$C$D$C$A$GT$$GT$10as_raw_ref17h778b38b5fe8c6039E', symObjAddr: 0x6E60, symBinAddr: 0x10FD4, symSize: 0x24 }
  - { offset: 0x261C1, size: 0x8, addend: 0x0, symName: '__ZN7ndarray14impl_ref_types53_$LT$impl$u20$ndarray..ArrayBase$LT$S$C$D$C$A$GT$$GT$10as_raw_ref17h85e0ec2251e293b1E', symObjAddr: 0x6E84, symBinAddr: 0x10FF8, symSize: 0x24 }
  - { offset: 0x261FF, size: 0x8, addend: 0x0, symName: '__ZN7ndarray14impl_ref_types53_$LT$impl$u20$ndarray..ArrayBase$LT$S$C$D$C$A$GT$$GT$10as_raw_ref17ha457078346841483E', symObjAddr: 0x6EA8, symBinAddr: 0x1101C, symSize: 0x24 }
  - { offset: 0x2623D, size: 0x8, addend: 0x0, symName: '__ZN7ndarray14impl_ref_types53_$LT$impl$u20$ndarray..ArrayBase$LT$S$C$D$C$A$GT$$GT$10as_raw_ref17hac0456289b5b3a87E', symObjAddr: 0x6ECC, symBinAddr: 0x11040, symSize: 0x24 }
  - { offset: 0x2627B, size: 0x8, addend: 0x0, symName: '__ZN7ndarray14impl_ref_types53_$LT$impl$u20$ndarray..ArrayBase$LT$S$C$D$C$A$GT$$GT$10as_raw_ref17hdeffdaf626ca21c3E', symObjAddr: 0x6EF0, symBinAddr: 0x11064, symSize: 0x24 }
  - { offset: 0x262B9, size: 0x8, addend: 0x0, symName: '__ZN7ndarray14impl_ref_types53_$LT$impl$u20$ndarray..ArrayBase$LT$S$C$D$C$A$GT$$GT$10as_raw_ref17he2fd72070909c121E', symObjAddr: 0x6F14, symBinAddr: 0x11088, symSize: 0x24 }
  - { offset: 0x262F7, size: 0x8, addend: 0x0, symName: '__ZN7ndarray14impl_ref_types53_$LT$impl$u20$ndarray..ArrayBase$LT$S$C$D$C$A$GT$$GT$13as_layout_ref17h29ec4d59b6500ca5E', symObjAddr: 0x6F38, symBinAddr: 0x110AC, symSize: 0x24 }
  - { offset: 0x26335, size: 0x8, addend: 0x0, symName: '__ZN7ndarray14impl_ref_types53_$LT$impl$u20$ndarray..ArrayBase$LT$S$C$D$C$A$GT$$GT$13as_layout_ref17h4b20161fadc3602aE', symObjAddr: 0x6F5C, symBinAddr: 0x110D0, symSize: 0x24 }
  - { offset: 0x26373, size: 0x8, addend: 0x0, symName: '__ZN7ndarray14impl_ref_types53_$LT$impl$u20$ndarray..ArrayBase$LT$S$C$D$C$A$GT$$GT$13as_layout_ref17h7631b30fe52651afE', symObjAddr: 0x6F80, symBinAddr: 0x110F4, symSize: 0x24 }
  - { offset: 0x263B1, size: 0x8, addend: 0x0, symName: '__ZN7ndarray14impl_ref_types53_$LT$impl$u20$ndarray..ArrayBase$LT$S$C$D$C$A$GT$$GT$13as_layout_ref17h7c43c8da813c1529E', symObjAddr: 0x6FA4, symBinAddr: 0x11118, symSize: 0x24 }
  - { offset: 0x263EF, size: 0x8, addend: 0x0, symName: '__ZN7ndarray14impl_ref_types53_$LT$impl$u20$ndarray..ArrayBase$LT$S$C$D$C$A$GT$$GT$13as_layout_ref17h930cf770c45f1f3dE', symObjAddr: 0x6FC8, symBinAddr: 0x1113C, symSize: 0x24 }
  - { offset: 0x2642D, size: 0x8, addend: 0x0, symName: '__ZN7ndarray14impl_ref_types53_$LT$impl$u20$ndarray..ArrayBase$LT$S$C$D$C$A$GT$$GT$13as_layout_ref17hca51aa71ae1b6f81E', symObjAddr: 0x6FEC, symBinAddr: 0x11160, symSize: 0x24 }
  - { offset: 0x2646B, size: 0x8, addend: 0x0, symName: '__ZN7ndarray14impl_ref_types53_$LT$impl$u20$ndarray..ArrayBase$LT$S$C$D$C$A$GT$$GT$17as_layout_ref_mut17h4510f28df62588fbE', symObjAddr: 0x7010, symBinAddr: 0x11184, symSize: 0x24 }
  - { offset: 0x264A9, size: 0x8, addend: 0x0, symName: '__ZN7ndarray14impl_ref_types53_$LT$impl$u20$ndarray..ArrayBase$LT$S$C$D$C$A$GT$$GT$17as_layout_ref_mut17hbfb3abc56d909407E', symObjAddr: 0x7034, symBinAddr: 0x111A8, symSize: 0x24 }
  - { offset: 0x264E7, size: 0x8, addend: 0x0, symName: '__ZN7ndarray14impl_ref_types53_$LT$impl$u20$ndarray..ArrayBase$LT$S$C$D$C$A$GT$$GT$17as_layout_ref_mut17hd646c7702f86695eE', symObjAddr: 0x7058, symBinAddr: 0x111CC, symSize: 0x24 }
  - { offset: 0x266BA, size: 0x8, addend: 0x0, symName: '__ZN7ndarray17impl_constructors53_$LT$impl$u20$ndarray..ArrayBase$LT$S$C$D$C$A$GT$$GT$24from_shape_vec_unchecked17h0254145b0697dc9eE', symObjAddr: 0x72EC, symBinAddr: 0x11460, symSize: 0x138 }
  - { offset: 0x2675C, size: 0x8, addend: 0x0, symName: '__ZN7ndarray17impl_constructors53_$LT$impl$u20$ndarray..ArrayBase$LT$S$C$D$C$A$GT$$GT$24from_shape_vec_unchecked17h68dd758694f81b81E', symObjAddr: 0x7424, symBinAddr: 0x11598, symSize: 0x144 }
  - { offset: 0x267FE, size: 0x8, addend: 0x0, symName: '__ZN7ndarray17impl_constructors53_$LT$impl$u20$ndarray..ArrayBase$LT$S$C$D$C$A$GT$$GT$24from_shape_vec_unchecked17h9a26b5238bd14f22E', symObjAddr: 0x7568, symBinAddr: 0x116DC, symSize: 0x144 }
  - { offset: 0x268A0, size: 0x8, addend: 0x0, symName: '__ZN7ndarray17impl_constructors53_$LT$impl$u20$ndarray..ArrayBase$LT$S$C$D$C$A$GT$$GT$24from_shape_vec_unchecked17hddf51be3db249519E', symObjAddr: 0x76AC, symBinAddr: 0x11820, symSize: 0x138 }
  - { offset: 0x26942, size: 0x8, addend: 0x0, symName: '__ZN7ndarray17impl_constructors53_$LT$impl$u20$ndarray..ArrayBase$LT$S$C$D$C$A$GT$$GT$24from_shape_vec_unchecked17he41c8128f4c9c911E', symObjAddr: 0x77E4, symBinAddr: 0x11958, symSize: 0x144 }
  - { offset: 0x26A0C, size: 0x8, addend: 0x0, symName: '__ZN7ndarray17impl_constructors53_$LT$impl$u20$ndarray..ArrayBase$LT$S$C$D$C$A$GT$$GT$29from_vec_dim_stride_unchecked17h7312844a5bc21aaeE', symObjAddr: 0x7928, symBinAddr: 0x11A9C, symSize: 0x1F8 }
  - { offset: 0x26AD7, size: 0x8, addend: 0x0, symName: '__ZN7ndarray17impl_constructors53_$LT$impl$u20$ndarray..ArrayBase$LT$S$C$D$C$A$GT$$GT$29from_vec_dim_stride_unchecked17h7c63ee649ca54a45E', symObjAddr: 0x7B20, symBinAddr: 0x11C94, symSize: 0x1F8 }
  - { offset: 0x26BA2, size: 0x8, addend: 0x0, symName: '__ZN7ndarray17impl_constructors53_$LT$impl$u20$ndarray..ArrayBase$LT$S$C$D$C$A$GT$$GT$29from_vec_dim_stride_unchecked17hc0820e2b45357fccE', symObjAddr: 0x7D18, symBinAddr: 0x11E8C, symSize: 0x1F8 }
  - { offset: 0x26C45, size: 0x8, addend: 0x0, symName: '__ZN7ndarray17impl_constructors53_$LT$impl$u20$ndarray..ArrayBase$LT$S$C$D$C$A$GT$$GT$33from_shape_trusted_iter_unchecked17h03f392bc1d5441b6E', symObjAddr: 0x7F10, symBinAddr: 0x12084, symSize: 0x1BC }
  - { offset: 0x26D21, size: 0x8, addend: 0x0, symName: '__ZN7ndarray17impl_constructors53_$LT$impl$u20$ndarray..ArrayBase$LT$S$C$D$C$A$GT$$GT$33from_shape_trusted_iter_unchecked17h0cd1ee920547e5fcE', symObjAddr: 0x80CC, symBinAddr: 0x12240, symSize: 0x1BC }
  - { offset: 0x26DFD, size: 0x8, addend: 0x0, symName: '__ZN7ndarray17impl_constructors53_$LT$impl$u20$ndarray..ArrayBase$LT$S$C$D$C$A$GT$$GT$33from_shape_trusted_iter_unchecked17h3680b3d541270437E', symObjAddr: 0x8288, symBinAddr: 0x123FC, symSize: 0x1BC }
  - { offset: 0x26ED9, size: 0x8, addend: 0x0, symName: '__ZN7ndarray17impl_constructors53_$LT$impl$u20$ndarray..ArrayBase$LT$S$C$D$C$A$GT$$GT$33from_shape_trusted_iter_unchecked17h38233cc7dc5ed177E', symObjAddr: 0x8444, symBinAddr: 0x125B8, symSize: 0x1B8 }
  - { offset: 0x26FB6, size: 0x8, addend: 0x0, symName: '__ZN7ndarray17impl_constructors53_$LT$impl$u20$ndarray..ArrayBase$LT$S$C$D$C$A$GT$$GT$33from_shape_trusted_iter_unchecked17h51b613e2cda57cc3E', symObjAddr: 0x85FC, symBinAddr: 0x12770, symSize: 0x1BC }
  - { offset: 0x27092, size: 0x8, addend: 0x0, symName: '__ZN7ndarray17impl_constructors53_$LT$impl$u20$ndarray..ArrayBase$LT$S$C$D$C$A$GT$$GT$33from_shape_trusted_iter_unchecked17h7479ba72165b16b1E', symObjAddr: 0x87B8, symBinAddr: 0x1292C, symSize: 0x1BC }
  - { offset: 0x2716E, size: 0x8, addend: 0x0, symName: '__ZN7ndarray17impl_constructors53_$LT$impl$u20$ndarray..ArrayBase$LT$S$C$D$C$A$GT$$GT$33from_shape_trusted_iter_unchecked17hbb9c3caabe475741E', symObjAddr: 0x8974, symBinAddr: 0x12AE8, symSize: 0x1B8 }
  - { offset: 0x2724B, size: 0x8, addend: 0x0, symName: '__ZN7ndarray17impl_constructors53_$LT$impl$u20$ndarray..ArrayBase$LT$S$C$D$C$A$GT$$GT$33from_shape_trusted_iter_unchecked17hc7b9b4db7b1a8613E', symObjAddr: 0x8B2C, symBinAddr: 0x12CA0, symSize: 0x1B8 }
  - { offset: 0x27328, size: 0x8, addend: 0x0, symName: '__ZN7ndarray17impl_constructors53_$LT$impl$u20$ndarray..ArrayBase$LT$S$C$D$C$A$GT$$GT$33from_shape_trusted_iter_unchecked17hecd8db6bdd4cfdb1E', symObjAddr: 0x8CE4, symBinAddr: 0x12E58, symSize: 0x1B8 }
  - { offset: 0x27405, size: 0x8, addend: 0x0, symName: '__ZN7ndarray17impl_constructors53_$LT$impl$u20$ndarray..ArrayBase$LT$S$C$D$C$A$GT$$GT$33from_shape_trusted_iter_unchecked17heddaeb3674c1cf22E', symObjAddr: 0x8E9C, symBinAddr: 0x13010, symSize: 0x1B8 }
  - { offset: 0x274E2, size: 0x8, addend: 0x0, symName: '__ZN7ndarray17impl_constructors53_$LT$impl$u20$ndarray..ArrayBase$LT$S$C$D$C$A$GT$$GT$5zeros17hd99bf0fe3a262116E', symObjAddr: 0x9054, symBinAddr: 0x131C8, symSize: 0x80 }
  - { offset: 0x27529, size: 0x8, addend: 0x0, symName: '__ZN7ndarray17impl_constructors53_$LT$impl$u20$ndarray..ArrayBase$LT$S$C$D$C$A$GT$$GT$5zeros17he1dfc0d74401f3d3E', symObjAddr: 0x90D4, symBinAddr: 0x13248, symSize: 0x88 }
  - { offset: 0x27570, size: 0x8, addend: 0x0, symName: '__ZN7ndarray17impl_constructors53_$LT$impl$u20$ndarray..ArrayBase$LT$S$C$D$C$A$GT$$GT$9from_elem17h0aa6636c9fe0396eE', symObjAddr: 0x915C, symBinAddr: 0x132D0, symSize: 0x174 }
  - { offset: 0x27650, size: 0x8, addend: 0x0, symName: '__ZN7ndarray17impl_constructors53_$LT$impl$u20$ndarray..ArrayBase$LT$S$C$D$C$A$GT$$GT$9from_elem17ha45f63ef940753f1E', symObjAddr: 0x92D0, symBinAddr: 0x13444, symSize: 0x168 }
  - { offset: 0x27730, size: 0x8, addend: 0x0, symName: '__ZN7ndarray22LayoutRef$LT$A$C$D$GT$4_dim17h229cb7de8c20c1c8E', symObjAddr: 0x9438, symBinAddr: 0x135AC, symSize: 0x18 }
  - { offset: 0x27765, size: 0x8, addend: 0x0, symName: '__ZN7ndarray22LayoutRef$LT$A$C$D$GT$4_dim17h63390c441454252cE', symObjAddr: 0x9450, symBinAddr: 0x135C4, symSize: 0x18 }
  - { offset: 0x2779A, size: 0x8, addend: 0x0, symName: '__ZN7ndarray22LayoutRef$LT$A$C$D$GT$4_dim17hc92b656af0cd814aE', symObjAddr: 0x9468, symBinAddr: 0x135DC, symSize: 0x18 }
  - { offset: 0x277DC, size: 0x8, addend: 0x0, symName: '__ZN7ndarray22LayoutRef$LT$A$C$D$GT$4_ptr17h6821a28472a4a420E', symObjAddr: 0x9480, symBinAddr: 0x135F4, symSize: 0x18 }
  - { offset: 0x2781E, size: 0x8, addend: 0x0, symName: '__ZN7ndarray22LayoutRef$LT$A$C$D$GT$4_ptr17hc608ecc3e5a40e0eE', symObjAddr: 0x9498, symBinAddr: 0x1360C, symSize: 0x18 }
  - { offset: 0x27860, size: 0x8, addend: 0x0, symName: '__ZN7ndarray22LayoutRef$LT$A$C$D$GT$4_ptr17hfa24c732efbfd57fE', symObjAddr: 0x94B0, symBinAddr: 0x13624, symSize: 0x18 }
  - { offset: 0x27895, size: 0x8, addend: 0x0, symName: '__ZN7ndarray22LayoutRef$LT$A$C$D$GT$8_strides17h598c735bef16cf35E', symObjAddr: 0x94C8, symBinAddr: 0x1363C, symSize: 0x18 }
  - { offset: 0x278CA, size: 0x8, addend: 0x0, symName: '__ZN7ndarray22LayoutRef$LT$A$C$D$GT$8_strides17h99e125b3d8c7bdbaE', symObjAddr: 0x94E0, symBinAddr: 0x13654, symSize: 0x18 }
  - { offset: 0x278FF, size: 0x8, addend: 0x0, symName: '__ZN7ndarray22LayoutRef$LT$A$C$D$GT$8_strides17hfb1b0207a180e1d5E', symObjAddr: 0x94F8, symBinAddr: 0x1366C, symSize: 0x18 }
  - { offset: 0x27934, size: 0x8, addend: 0x0, symName: '__ZN7ndarray26impl_internal_constructors114_$LT$impl$u20$ndarray..ArrayBase$LT$S$C$ndarray..dimension..dim..Dim$LT$$u5b$usize$u3b$$u20$1$u5d$$GT$$C$A$GT$$GT$13from_data_ptr17h0222ccfc4209ee3fE', symObjAddr: 0x9510, symBinAddr: 0x13684, symSize: 0x184 }
  - { offset: 0x279C9, size: 0x8, addend: 0x0, symName: '__ZN7ndarray26impl_internal_constructors114_$LT$impl$u20$ndarray..ArrayBase$LT$S$C$ndarray..dimension..dim..Dim$LT$$u5b$usize$u3b$$u20$1$u5d$$GT$$C$A$GT$$GT$13from_data_ptr17h21dd39493e5cee34E', symObjAddr: 0x9694, symBinAddr: 0x13808, symSize: 0x1B8 }
  - { offset: 0x27A5E, size: 0x8, addend: 0x0, symName: '__ZN7ndarray26impl_internal_constructors114_$LT$impl$u20$ndarray..ArrayBase$LT$S$C$ndarray..dimension..dim..Dim$LT$$u5b$usize$u3b$$u20$1$u5d$$GT$$C$A$GT$$GT$13from_data_ptr17h29fb21446731da9eE', symObjAddr: 0x984C, symBinAddr: 0x139C0, symSize: 0x184 }
  - { offset: 0x27AF3, size: 0x8, addend: 0x0, symName: '__ZN7ndarray26impl_internal_constructors114_$LT$impl$u20$ndarray..ArrayBase$LT$S$C$ndarray..dimension..dim..Dim$LT$$u5b$usize$u3b$$u20$1$u5d$$GT$$C$A$GT$$GT$13from_data_ptr17h336dca74ab4f9c84E', symObjAddr: 0x99D0, symBinAddr: 0x13B44, symSize: 0x184 }
  - { offset: 0x27B88, size: 0x8, addend: 0x0, symName: '__ZN7ndarray26impl_internal_constructors114_$LT$impl$u20$ndarray..ArrayBase$LT$S$C$ndarray..dimension..dim..Dim$LT$$u5b$usize$u3b$$u20$1$u5d$$GT$$C$A$GT$$GT$13from_data_ptr17h34823b44d13586a2E', symObjAddr: 0x9B54, symBinAddr: 0x13CC8, symSize: 0x1B8 }
  - { offset: 0x27C1D, size: 0x8, addend: 0x0, symName: '__ZN7ndarray26impl_internal_constructors114_$LT$impl$u20$ndarray..ArrayBase$LT$S$C$ndarray..dimension..dim..Dim$LT$$u5b$usize$u3b$$u20$1$u5d$$GT$$C$A$GT$$GT$13from_data_ptr17h718a2b4d53ad285cE', symObjAddr: 0x9D0C, symBinAddr: 0x13E80, symSize: 0x1B8 }
  - { offset: 0x27CB2, size: 0x8, addend: 0x0, symName: '__ZN7ndarray26impl_internal_constructors114_$LT$impl$u20$ndarray..ArrayBase$LT$S$C$ndarray..dimension..dim..Dim$LT$$u5b$usize$u3b$$u20$1$u5d$$GT$$C$A$GT$$GT$13from_data_ptr17h7452e2081717d947E', symObjAddr: 0x9EC4, symBinAddr: 0x14038, symSize: 0x184 }
  - { offset: 0x27D47, size: 0x8, addend: 0x0, symName: '__ZN7ndarray26impl_internal_constructors114_$LT$impl$u20$ndarray..ArrayBase$LT$S$C$ndarray..dimension..dim..Dim$LT$$u5b$usize$u3b$$u20$1$u5d$$GT$$C$A$GT$$GT$13from_data_ptr17ha54acb8f57337523E', symObjAddr: 0xA048, symBinAddr: 0x141BC, symSize: 0x184 }
  - { offset: 0x27DDC, size: 0x8, addend: 0x0, symName: '__ZN7ndarray26impl_internal_constructors53_$LT$impl$u20$ndarray..ArrayBase$LT$S$C$D$C$A$GT$$GT$16with_strides_dim17h0686f555eef91331E', symObjAddr: 0xA1CC, symBinAddr: 0x14340, symSize: 0x1C0 }
  - { offset: 0x27E89, size: 0x8, addend: 0x0, symName: '__ZN7ndarray26impl_internal_constructors53_$LT$impl$u20$ndarray..ArrayBase$LT$S$C$D$C$A$GT$$GT$16with_strides_dim17h16d52bdf197c4536E', symObjAddr: 0xA38C, symBinAddr: 0x14500, symSize: 0x18C }
  - { offset: 0x27F35, size: 0x8, addend: 0x0, symName: '__ZN7ndarray26impl_internal_constructors53_$LT$impl$u20$ndarray..ArrayBase$LT$S$C$D$C$A$GT$$GT$16with_strides_dim17h2f2d5e1810fdbed5E', symObjAddr: 0xA518, symBinAddr: 0x1468C, symSize: 0x18C }
  - { offset: 0x27FE1, size: 0x8, addend: 0x0, symName: '__ZN7ndarray26impl_internal_constructors53_$LT$impl$u20$ndarray..ArrayBase$LT$S$C$D$C$A$GT$$GT$16with_strides_dim17h36d71a39f8c40efaE', symObjAddr: 0xA6A4, symBinAddr: 0x14818, symSize: 0x18C }
  - { offset: 0x2808D, size: 0x8, addend: 0x0, symName: '__ZN7ndarray26impl_internal_constructors53_$LT$impl$u20$ndarray..ArrayBase$LT$S$C$D$C$A$GT$$GT$16with_strides_dim17h91dd6c333b71997dE', symObjAddr: 0xA830, symBinAddr: 0x149A4, symSize: 0x1C0 }
  - { offset: 0x2813A, size: 0x8, addend: 0x0, symName: '__ZN7ndarray26impl_internal_constructors53_$LT$impl$u20$ndarray..ArrayBase$LT$S$C$D$C$A$GT$$GT$16with_strides_dim17h9cca776811d8e5bfE', symObjAddr: 0xA9F0, symBinAddr: 0x14B64, symSize: 0x1C0 }
  - { offset: 0x281E7, size: 0x8, addend: 0x0, symName: '__ZN7ndarray26impl_internal_constructors53_$LT$impl$u20$ndarray..ArrayBase$LT$S$C$D$C$A$GT$$GT$16with_strides_dim17hcfb9a2bb28d78556E', symObjAddr: 0xABB0, symBinAddr: 0x14D24, symSize: 0x18C }
  - { offset: 0x28293, size: 0x8, addend: 0x0, symName: '__ZN7ndarray26impl_internal_constructors53_$LT$impl$u20$ndarray..ArrayBase$LT$S$C$D$C$A$GT$$GT$16with_strides_dim17he9ea14836e2f1d6aE', symObjAddr: 0xAD3C, symBinAddr: 0x14EB0, symSize: 0x18C }
  - { offset: 0x2833F, size: 0x8, addend: 0x0, symName: '__ZN7ndarray52ArrayParts$LT$A$C$D$C$$u5b$usize$u3b$$u20$0$u5d$$GT$3new17h129d9d359d14e9e6E', symObjAddr: 0xAEC8, symBinAddr: 0x1503C, symSize: 0x44 }
  - { offset: 0x28392, size: 0x8, addend: 0x0, symName: '__ZN7ndarray52ArrayParts$LT$A$C$D$C$$u5b$usize$u3b$$u20$0$u5d$$GT$3new17h6e04cd010b1fd547E', symObjAddr: 0xAF0C, symBinAddr: 0x15080, symSize: 0x44 }
  - { offset: 0x283E5, size: 0x8, addend: 0x0, symName: '__ZN7ndarray52ArrayParts$LT$A$C$D$C$$u5b$usize$u3b$$u20$0$u5d$$GT$3new17ha6c22acda2e29c8fE', symObjAddr: 0xAF50, symBinAddr: 0x150C4, symSize: 0x44 }
  - { offset: 0x28447, size: 0x8, addend: 0x0, symName: '__ZN80_$LT$ndarray..ArrayBase$LT$S$C$D$C$A$GT$$u20$as$u20$numpy..convert..ArrayExt$GT$11npy_strides17h9debe54414a3365cE', symObjAddr: 0xAF94, symBinAddr: 0x15108, symSize: 0x170 }
  - { offset: 0x284F8, size: 0x8, addend: 0x0, symName: '__ZN80_$LT$ndarray..ArrayBase$LT$S$C$D$C$A$GT$$u20$as$u20$numpy..convert..ArrayExt$GT$5order17h99d105095a48d473E', symObjAddr: 0xB104, symBinAddr: 0x15278, symSize: 0x11C }
  - { offset: 0x28545, size: 0x8, addend: 0x0, symName: '__ZN81_$LT$ndarray..ArrayBase$LT$S$C$D$C$A$GT$$u20$as$u20$numpy..convert..ToPyArray$GT$10to_pyarray17hc148f9f9fe7904c1E', symObjAddr: 0xB220, symBinAddr: 0x15394, symSize: 0x458 }
  - { offset: 0x29032, size: 0x8, addend: 0x0, symName: __ZN4pyo35types4none6PyNone3get17h110b01930f1dea21E, symObjAddr: 0x0, symBinAddr: 0x157EC, symSize: 0x24 }
  - { offset: 0x2A79F, size: 0x8, addend: 0x0, symName: __ZN4pyo35types4none6PyNone3get17h110b01930f1dea21E, symObjAddr: 0x0, symBinAddr: 0x157EC, symSize: 0x24 }
  - { offset: 0x2A7EA, size: 0x8, addend: 0x0, symName: __ZN3std5panic12catch_unwind17h08ad0b51f7324df7E, symObjAddr: 0x0, symBinAddr: 0x15810, symSize: 0xDC }
  - { offset: 0x2C9F9, size: 0x8, addend: 0x0, symName: __ZN3std5panic12catch_unwind17h08ad0b51f7324df7E, symObjAddr: 0x0, symBinAddr: 0x15810, symSize: 0xDC }
  - { offset: 0x2CAAC, size: 0x8, addend: 0x0, symName: __ZN3std5panic12catch_unwind17h3b36198dc91bdc10E, symObjAddr: 0xDC, symBinAddr: 0x158EC, symSize: 0xC0 }
  - { offset: 0x2CB3E, size: 0x8, addend: 0x0, symName: __ZN3std5panic12catch_unwind17h992a5dda44dec6f7E, symObjAddr: 0x19C, symBinAddr: 0x159AC, symSize: 0xC4 }
  - { offset: 0x2CDF8, size: 0x8, addend: 0x0, symName: '__ZN106_$LT$pyo3..impl_..extract_argument..NoVarargs$u20$as$u20$pyo3..impl_..extract_argument..VarargsHandler$GT$20handle_varargs_tuple17h76abb678c9f5c9e1E', symObjAddr: 0x0, symBinAddr: 0x15AC4, symSize: 0xA0 }
  - { offset: 0x2E670, size: 0x8, addend: 0x0, symName: '__ZN106_$LT$pyo3..impl_..extract_argument..NoVarargs$u20$as$u20$pyo3..impl_..extract_argument..VarargsHandler$GT$20handle_varargs_tuple17h76abb678c9f5c9e1E', symObjAddr: 0x0, symBinAddr: 0x15AC4, symSize: 0xA0 }
  - { offset: 0x2E6E9, size: 0x8, addend: 0x0, symName: '__ZN106_$LT$pyo3..impl_..extract_argument..NoVarargs$u20$as$u20$pyo3..impl_..extract_argument..VarargsHandler$GT$23handle_varargs_fastcall17h170d6045ca3cc692E', symObjAddr: 0xA0, symBinAddr: 0x15B64, symSize: 0xB4 }
  - { offset: 0x2E75D, size: 0x8, addend: 0x0, symName: '__ZN114_$LT$pyo3..impl_..extract_argument..NoVarkeywords$u20$as$u20$pyo3..impl_..extract_argument..VarkeywordsHandler$GT$17handle_varkeyword17hae1df6e00a580a6dE', symObjAddr: 0x154, symBinAddr: 0x15C18, symSize: 0x6C }
  - { offset: 0x2E89C, size: 0x8, addend: 0x0, symName: __ZN4pyo35impl_16extract_argument22cast_function_argument17h687b1f08969d2afbE, symObjAddr: 0x574, symBinAddr: 0x16038, symSize: 0x24 }
  - { offset: 0x2E8E5, size: 0x8, addend: 0x0, symName: __ZN4pyo35impl_16extract_argument24unwrap_required_argument17hc3c0a3a26e0a5948E, symObjAddr: 0x598, symBinAddr: 0x1605C, symSize: 0x58 }
  - { offset: 0x2EC3C, size: 0x8, addend: 0x0, symName: __ZN4pyo35impl_16extract_argument19FunctionDescription36find_keyword_parameter_in_positional17h40c52b15996844c6E, symObjAddr: 0x1C0, symBinAddr: 0x15C84, symSize: 0x5C }
  - { offset: 0x2EC6E, size: 0x8, addend: 0x0, symName: __ZN4pyo35impl_16extract_argument19FunctionDescription38find_keyword_parameter_in_keyword_only17h82b249b9b3e27458E, symObjAddr: 0x21C, symBinAddr: 0x15CE0, symSize: 0x5C }
  - { offset: 0x2F32C, size: 0x8, addend: 0x0, symName: __ZN4pyo35impl_16extract_argument19FunctionDescription44ensure_no_missing_required_keyword_arguments17h860a0bfc8686c4aaE, symObjAddr: 0x278, symBinAddr: 0x15D3C, symSize: 0x160 }
  - { offset: 0x2F3F8, size: 0x8, addend: 0x0, symName: __ZN4pyo35impl_16extract_argument19FunctionDescription47ensure_no_missing_required_positional_arguments17h8e792ac23ab4749cE, symObjAddr: 0x3D8, symBinAddr: 0x15E9C, symSize: 0x19C }
  - { offset: 0x2F580, size: 0x8, addend: 0x0, symName: '__ZN4core5slice29_$LT$impl$u20$$u5b$T$u5d$$GT$18split_at_unchecked18precondition_check17he47859963131d432E', symObjAddr: 0x0, symBinAddr: 0x160B4, symSize: 0x60 }
  - { offset: 0x2F5A1, size: 0x8, addend: 0x0, symName: '__ZN4core5slice29_$LT$impl$u20$$u5b$T$u5d$$GT$18split_at_unchecked18precondition_check17he47859963131d432E', symObjAddr: 0x0, symBinAddr: 0x160B4, symSize: 0x60 }
  - { offset: 0x2F5FA, size: 0x8, addend: 0x0, symName: '__ZN4core5slice29_$LT$impl$u20$$u5b$T$u5d$$GT$22split_at_mut_unchecked18precondition_check17h71cb7e9090c99fddE', symObjAddr: 0x60, symBinAddr: 0x16114, symSize: 0x60 }
  - { offset: 0x2F6A4, size: 0x8, addend: 0x0, symName: __ZN4pyo35impl_10trampoline10trampoline17h2aba75e416be34b7E, symObjAddr: 0x0, symBinAddr: 0x16174, symSize: 0x158 }
  - { offset: 0x30D61, size: 0x8, addend: 0x0, symName: __ZN4pyo35impl_10trampoline10trampoline17h2aba75e416be34b7E, symObjAddr: 0x0, symBinAddr: 0x16174, symSize: 0x158 }
  - { offset: 0x30E0A, size: 0x8, addend: 0x0, symName: __ZN4pyo35impl_10trampoline10trampoline17h3fbd39bc9b9f8e7aE, symObjAddr: 0x158, symBinAddr: 0x162CC, symSize: 0x160 }
  - { offset: 0x30EB4, size: 0x8, addend: 0x0, symName: __ZN4pyo35impl_10trampoline10trampoline17hdd7e009b1998a845E, symObjAddr: 0x2B8, symBinAddr: 0x1642C, symSize: 0x15C }
  - { offset: 0x30F62, size: 0x8, addend: 0x0, symName: '__ZN4pyo35impl_10trampoline10trampoline28_$u7b$$u7b$closure$u7d$$u7d$17h2c43b9269096bcb1E', symObjAddr: 0x414, symBinAddr: 0x16588, symSize: 0x40 }
  - { offset: 0x30FB4, size: 0x8, addend: 0x0, symName: '__ZN4pyo35impl_10trampoline10trampoline28_$u7b$$u7b$closure$u7d$$u7d$17h816a4e858628a5c7E', symObjAddr: 0x454, symBinAddr: 0x165C8, symSize: 0x2C }
  - { offset: 0x31005, size: 0x8, addend: 0x0, symName: '__ZN4pyo35impl_10trampoline10trampoline28_$u7b$$u7b$closure$u7d$$u7d$17hb82cbbdecf5069deE', symObjAddr: 0x480, symBinAddr: 0x165F4, symSize: 0x34 }
  - { offset: 0x3105D, size: 0x8, addend: 0x0, symName: '__ZN4pyo35impl_10trampoline11module_exec28_$u7b$$u7b$closure$u7d$$u7d$17h1ae64dfdf588a10fE', symObjAddr: 0x4B4, symBinAddr: 0x16628, symSize: 0x1A4 }
  - { offset: 0x3116F, size: 0x8, addend: 0x0, symName: __ZN4pyo35impl_10trampoline32fastcall_cfunction_with_keywords17h2bfe6935c45c9c23E, symObjAddr: 0x658, symBinAddr: 0x167CC, symSize: 0x50 }
  - { offset: 0x311CE, size: 0x8, addend: 0x0, symName: __ZN4pyo35impl_10trampoline32fastcall_cfunction_with_keywords17h9295c29f23fb35e4E, symObjAddr: 0x6A8, symBinAddr: 0x1681C, symSize: 0x50 }
  - { offset: 0x3122D, size: 0x8, addend: 0x0, symName: __ZN4pyo35impl_10trampoline32fastcall_cfunction_with_keywords17ha6a21d4df75ca548E, symObjAddr: 0x6F8, symBinAddr: 0x1686C, symSize: 0x50 }
  - { offset: 0x3128C, size: 0x8, addend: 0x0, symName: __ZN4pyo35impl_10trampoline32fastcall_cfunction_with_keywords17hf9dff362921902f4E, symObjAddr: 0x748, symBinAddr: 0x168BC, symSize: 0x50 }
  - { offset: 0x312EB, size: 0x8, addend: 0x0, symName: __ZN4pyo35impl_10trampoline7newfunc17he4c3dc319a8471feE, symObjAddr: 0x798, symBinAddr: 0x1690C, symSize: 0x4C }
  - { offset: 0x31ED3, size: 0x8, addend: 0x0, symName: '__ZN102_$LT$core..iter..adapters..map..Map$LT$I$C$F$GT$$u20$as$u20$core..iter..traits..iterator..Iterator$GT$4fold17h1022a7d27305049dE', symObjAddr: 0x0, symBinAddr: 0x16958, symSize: 0x60 }
  - { offset: 0x32025, size: 0x8, addend: 0x0, symName: '__ZN4core4iter8adapters3map8map_fold28_$u7b$$u7b$closure$u7d$$u7d$17h0f40d002b7928d16E', symObjAddr: 0xA70, symBinAddr: 0x173C8, symSize: 0x7C }
  - { offset: 0x320AA, size: 0x8, addend: 0x0, symName: '__ZN4core4iter8adapters3map8map_fold28_$u7b$$u7b$closure$u7d$$u7d$17h17c01aef8f16e969E', symObjAddr: 0xAEC, symBinAddr: 0x17444, symSize: 0x78 }
  - { offset: 0x3212F, size: 0x8, addend: 0x0, symName: '__ZN4core4iter8adapters3map8map_fold28_$u7b$$u7b$closure$u7d$$u7d$17h22def8e70f3aef8eE', symObjAddr: 0xB64, symBinAddr: 0x174BC, symSize: 0x94 }
  - { offset: 0x321B8, size: 0x8, addend: 0x0, symName: '__ZN4core4iter8adapters3map8map_fold28_$u7b$$u7b$closure$u7d$$u7d$17h3d572a5a3a42e082E', symObjAddr: 0xBF8, symBinAddr: 0x17550, symSize: 0x84 }
  - { offset: 0x3223D, size: 0x8, addend: 0x0, symName: '__ZN4core4iter8adapters3map8map_fold28_$u7b$$u7b$closure$u7d$$u7d$17h441fe8f51b05b26cE', symObjAddr: 0xC7C, symBinAddr: 0x175D4, symSize: 0x7C }
  - { offset: 0x322C2, size: 0x8, addend: 0x0, symName: '__ZN4core4iter8adapters3map8map_fold28_$u7b$$u7b$closure$u7d$$u7d$17h572f2c14e33f4882E', symObjAddr: 0xCF8, symBinAddr: 0x17650, symSize: 0x84 }
  - { offset: 0x32347, size: 0x8, addend: 0x0, symName: '__ZN4core4iter8adapters3map8map_fold28_$u7b$$u7b$closure$u7d$$u7d$17h9dcd30e0bb6600fbE', symObjAddr: 0xD7C, symBinAddr: 0x176D4, symSize: 0x7C }
  - { offset: 0x323CC, size: 0x8, addend: 0x0, symName: '__ZN4core4iter8adapters3map8map_fold28_$u7b$$u7b$closure$u7d$$u7d$17hafb279bb86fc3f01E', symObjAddr: 0xDF8, symBinAddr: 0x17750, symSize: 0x94 }
  - { offset: 0x3245B, size: 0x8, addend: 0x0, symName: '__ZN102_$LT$core..iter..adapters..map..Map$LT$I$C$F$GT$$u20$as$u20$core..iter..traits..iterator..Iterator$GT$4fold17h1022a7d27305049dE', symObjAddr: 0x0, symBinAddr: 0x16958, symSize: 0x60 }
  - { offset: 0x324F4, size: 0x8, addend: 0x0, symName: '__ZN102_$LT$core..iter..adapters..map..Map$LT$I$C$F$GT$$u20$as$u20$core..iter..traits..iterator..Iterator$GT$4fold17h1ed10d5c639c4ba0E', symObjAddr: 0x60, symBinAddr: 0x169B8, symSize: 0x44 }
  - { offset: 0x3258C, size: 0x8, addend: 0x0, symName: '__ZN102_$LT$core..iter..adapters..map..Map$LT$I$C$F$GT$$u20$as$u20$core..iter..traits..iterator..Iterator$GT$4fold17h61d69adbcc1947e8E', symObjAddr: 0xA4, symBinAddr: 0x169FC, symSize: 0x4C }
  - { offset: 0x32625, size: 0x8, addend: 0x0, symName: '__ZN102_$LT$core..iter..adapters..map..Map$LT$I$C$F$GT$$u20$as$u20$core..iter..traits..iterator..Iterator$GT$4fold17h6884c9d65de3b432E', symObjAddr: 0xF0, symBinAddr: 0x16A48, symSize: 0x4C }
  - { offset: 0x326BE, size: 0x8, addend: 0x0, symName: '__ZN102_$LT$core..iter..adapters..map..Map$LT$I$C$F$GT$$u20$as$u20$core..iter..traits..iterator..Iterator$GT$4fold17h80a7a94b81637b8bE', symObjAddr: 0x13C, symBinAddr: 0x16A94, symSize: 0x4C }
  - { offset: 0x32757, size: 0x8, addend: 0x0, symName: '__ZN102_$LT$core..iter..adapters..map..Map$LT$I$C$F$GT$$u20$as$u20$core..iter..traits..iterator..Iterator$GT$4fold17ha069dd6e742477d7E', symObjAddr: 0x188, symBinAddr: 0x16AE0, symSize: 0x44 }
  - { offset: 0x327EF, size: 0x8, addend: 0x0, symName: '__ZN102_$LT$core..iter..adapters..map..Map$LT$I$C$F$GT$$u20$as$u20$core..iter..traits..iterator..Iterator$GT$4fold17haddd05c69022c444E', symObjAddr: 0x1CC, symBinAddr: 0x16B24, symSize: 0x38 }
  - { offset: 0x32865, size: 0x8, addend: 0x0, symName: '__ZN102_$LT$core..iter..adapters..map..Map$LT$I$C$F$GT$$u20$as$u20$core..iter..traits..iterator..Iterator$GT$4fold17he4541f3981516f46E', symObjAddr: 0x204, symBinAddr: 0x16B5C, symSize: 0x38 }
  - { offset: 0x328DB, size: 0x8, addend: 0x0, symName: '__ZN102_$LT$core..iter..adapters..map..Map$LT$I$C$F$GT$$u20$as$u20$core..iter..traits..iterator..Iterator$GT$4next17h30fd068ae9ebdda0E', symObjAddr: 0x23C, symBinAddr: 0x16B94, symSize: 0x90 }
  - { offset: 0x32987, size: 0x8, addend: 0x0, symName: '__ZN102_$LT$core..iter..adapters..map..Map$LT$I$C$F$GT$$u20$as$u20$core..iter..traits..iterator..Iterator$GT$4next17ha861e1951b11a6ebE', symObjAddr: 0x2CC, symBinAddr: 0x16C24, symSize: 0x7C }
  - { offset: 0x32A33, size: 0x8, addend: 0x0, symName: '__ZN102_$LT$core..iter..adapters..map..Map$LT$I$C$F$GT$$u20$as$u20$core..iter..traits..iterator..Iterator$GT$4next17hd2b14bfeebe231c4E', symObjAddr: 0x348, symBinAddr: 0x16CA0, symSize: 0x7C }
  - { offset: 0x32ADF, size: 0x8, addend: 0x0, symName: '__ZN102_$LT$core..iter..adapters..map..Map$LT$I$C$F$GT$$u20$as$u20$core..iter..traits..iterator..Iterator$GT$8try_fold17h4b6381857b38df87E', symObjAddr: 0x3C4, symBinAddr: 0x16D1C, symSize: 0x38 }
  - { offset: 0x32B5D, size: 0x8, addend: 0x0, symName: '__ZN102_$LT$core..iter..adapters..map..Map$LT$I$C$F$GT$$u20$as$u20$core..iter..traits..iterator..Iterator$GT$9size_hint17h594d1922ef2b64e6E', symObjAddr: 0x3FC, symBinAddr: 0x16D54, symSize: 0x24 }
  - { offset: 0x32BA4, size: 0x8, addend: 0x0, symName: '__ZN102_$LT$core..iter..adapters..map..Map$LT$I$C$F$GT$$u20$as$u20$core..iter..traits..iterator..Iterator$GT$9size_hint17h839810ce27c8969cE', symObjAddr: 0x420, symBinAddr: 0x16D78, symSize: 0x24 }
  - { offset: 0x32BEB, size: 0x8, addend: 0x0, symName: '__ZN102_$LT$core..iter..adapters..map..Map$LT$I$C$F$GT$$u20$as$u20$core..iter..traits..iterator..Iterator$GT$9size_hint17h96c4c76784491845E', symObjAddr: 0x444, symBinAddr: 0x16D9C, symSize: 0x24 }
  - { offset: 0x32C32, size: 0x8, addend: 0x0, symName: '__ZN102_$LT$core..iter..adapters..map..Map$LT$I$C$F$GT$$u20$as$u20$core..iter..traits..iterator..Iterator$GT$9size_hint17h97bbbd3372d84101E', symObjAddr: 0x468, symBinAddr: 0x16DC0, symSize: 0x24 }
  - { offset: 0x32C79, size: 0x8, addend: 0x0, symName: '__ZN102_$LT$core..iter..adapters..map..Map$LT$I$C$F$GT$$u20$as$u20$core..iter..traits..iterator..Iterator$GT$9size_hint17hab18eb92059d26c7E', symObjAddr: 0x48C, symBinAddr: 0x16DE4, symSize: 0x24 }
  - { offset: 0x32CC0, size: 0x8, addend: 0x0, symName: '__ZN102_$LT$core..iter..adapters..map..Map$LT$I$C$F$GT$$u20$as$u20$core..iter..traits..iterator..Iterator$GT$9size_hint17hf1b1d0b5e9feabbaE', symObjAddr: 0x4B0, symBinAddr: 0x16E08, symSize: 0x24 }
  - { offset: 0x32EE4, size: 0x8, addend: 0x0, symName: '__ZN4core4iter8adapters3map12map_try_fold28_$u7b$$u7b$closure$u7d$$u7d$17habc16208bc0b4d16E', symObjAddr: 0x9DC, symBinAddr: 0x17334, symSize: 0x94 }
  - { offset: 0x33356, size: 0x8, addend: 0x0, symName: __ZN4core4iter6traits8iterator8Iterator3max17h5d6ae5f40519858cE, symObjAddr: 0x4D4, symBinAddr: 0x16E2C, symSize: 0x14 }
  - { offset: 0x3338E, size: 0x8, addend: 0x0, symName: __ZN4core4iter6traits8iterator8Iterator3max17hff0990a48046eb03E, symObjAddr: 0x4E8, symBinAddr: 0x16E40, symSize: 0x14 }
  - { offset: 0x333C6, size: 0x8, addend: 0x0, symName: __ZN4core4iter6traits8iterator8Iterator4find17h9044ce8ebdb8914eE, symObjAddr: 0x4FC, symBinAddr: 0x16E54, symSize: 0x90 }
  - { offset: 0x33445, size: 0x8, addend: 0x0, symName: __ZN4core4iter6traits8iterator8Iterator6filter17h151782d2b5e62d64E, symObjAddr: 0x58C, symBinAddr: 0x16EE4, symSize: 0x28 }
  - { offset: 0x334A9, size: 0x8, addend: 0x0, symName: __ZN4core4iter6traits8iterator8Iterator6max_by17h3cd52af702b8d177E, symObjAddr: 0x5B4, symBinAddr: 0x16F0C, symSize: 0x1C }
  - { offset: 0x334F9, size: 0x8, addend: 0x0, symName: __ZN4core4iter6traits8iterator8Iterator6max_by17h5bc6c7a58950b7cbE, symObjAddr: 0x5D0, symBinAddr: 0x16F28, symSize: 0x1C }
  - { offset: 0x33549, size: 0x8, addend: 0x0, symName: __ZN4core4iter6traits8iterator8Iterator6reduce17h0486dbaa6b3047afE, symObjAddr: 0x5EC, symBinAddr: 0x16F44, symSize: 0xF8 }
  - { offset: 0x3361C, size: 0x8, addend: 0x0, symName: __ZN4core4iter6traits8iterator8Iterator6reduce17h693a2913e20d0629E, symObjAddr: 0x6E4, symBinAddr: 0x1703C, symSize: 0xF8 }
  - { offset: 0x336EF, size: 0x8, addend: 0x0, symName: __ZN4core4iter6traits8iterator8Iterator7collect17h4bee78202fc11512E, symObjAddr: 0x7DC, symBinAddr: 0x17134, symSize: 0x14 }
  - { offset: 0x33730, size: 0x8, addend: 0x0, symName: __ZN4core4iter6traits8iterator8Iterator7collect17h6b89ff3c501ad4d1E, symObjAddr: 0x7F0, symBinAddr: 0x17148, symSize: 0x2C }
  - { offset: 0x33770, size: 0x8, addend: 0x0, symName: __ZN4core4iter6traits8iterator8Iterator7collect17h93ef0b8b8a9c7752E, symObjAddr: 0x81C, symBinAddr: 0x17174, symSize: 0x2C }
  - { offset: 0x337B0, size: 0x8, addend: 0x0, symName: __ZN4core4iter6traits8iterator8Iterator7collect17h9f84417f160c6dedE, symObjAddr: 0x848, symBinAddr: 0x171A0, symSize: 0x14 }
  - { offset: 0x337F1, size: 0x8, addend: 0x0, symName: __ZN4core4iter6traits8iterator8Iterator7collect17hb1e3e0dced16ac98E, symObjAddr: 0x85C, symBinAddr: 0x171B4, symSize: 0x14 }
  - { offset: 0x33832, size: 0x8, addend: 0x0, symName: __ZN4core4iter6traits8iterator8Iterator7collect17hc46540929f951d55E, symObjAddr: 0x870, symBinAddr: 0x171C8, symSize: 0x14 }
  - { offset: 0x33873, size: 0x8, addend: 0x0, symName: __ZN4core4iter6traits8iterator8Iterator8for_each17h152bbc8ae8ed7475E, symObjAddr: 0x884, symBinAddr: 0x171DC, symSize: 0x34 }
  - { offset: 0x338DF, size: 0x8, addend: 0x0, symName: __ZN4core4iter6traits8iterator8Iterator8for_each17h2e8d330ea471fdc2E, symObjAddr: 0x8B8, symBinAddr: 0x17210, symSize: 0x44 }
  - { offset: 0x3394A, size: 0x8, addend: 0x0, symName: __ZN4core4iter6traits8iterator8Iterator8for_each17h3a0220d3b58d1e12E, symObjAddr: 0x8FC, symBinAddr: 0x17254, symSize: 0x44 }
  - { offset: 0x339B5, size: 0x8, addend: 0x0, symName: __ZN4core4iter6traits8iterator8Iterator8for_each17h6cfeabfa89e6482fE, symObjAddr: 0x940, symBinAddr: 0x17298, symSize: 0x34 }
  - { offset: 0x33A21, size: 0x8, addend: 0x0, symName: __ZN4core4iter6traits8iterator8Iterator8for_each17h8a80cd884503d4f1E, symObjAddr: 0x974, symBinAddr: 0x172CC, symSize: 0x34 }
  - { offset: 0x33A8D, size: 0x8, addend: 0x0, symName: __ZN4core4iter6traits8iterator8Iterator8for_each17h9487836584a04dc6E, symObjAddr: 0x9A8, symBinAddr: 0x17300, symSize: 0x34 }
  - { offset: 0x33B43, size: 0x8, addend: 0x0, symName: '__ZN63_$LT$I$u20$as$u20$core..iter..traits..collect..IntoIterator$GT$9into_iter17h7dc95f9244adfa6eE', symObjAddr: 0xE8C, symBinAddr: 0x177E4, symSize: 0x18 }
  - { offset: 0x33B7A, size: 0x8, addend: 0x0, symName: '__ZN63_$LT$I$u20$as$u20$core..iter..traits..collect..IntoIterator$GT$9into_iter17h7e296fe0080c71c8E', symObjAddr: 0xEA4, symBinAddr: 0x177FC, symSize: 0x1C }
  - { offset: 0x33BB1, size: 0x8, addend: 0x0, symName: '__ZN63_$LT$I$u20$as$u20$core..iter..traits..collect..IntoIterator$GT$9into_iter17h98d1b0c9e2db9b0cE', symObjAddr: 0xEC0, symBinAddr: 0x17818, symSize: 0x1C }
  - { offset: 0x33BE8, size: 0x8, addend: 0x0, symName: '__ZN63_$LT$I$u20$as$u20$core..iter..traits..collect..IntoIterator$GT$9into_iter17h9d84c1de893a32c5E', symObjAddr: 0xEDC, symBinAddr: 0x17834, symSize: 0x18 }
  - { offset: 0x33C1F, size: 0x8, addend: 0x0, symName: '__ZN63_$LT$I$u20$as$u20$core..iter..traits..collect..IntoIterator$GT$9into_iter17h9e1a480fe1095e84E', symObjAddr: 0xEF4, symBinAddr: 0x1784C, symSize: 0x18 }
  - { offset: 0x33C56, size: 0x8, addend: 0x0, symName: '__ZN63_$LT$I$u20$as$u20$core..iter..traits..collect..IntoIterator$GT$9into_iter17hd14583828c850d47E', symObjAddr: 0xF0C, symBinAddr: 0x17864, symSize: 0x18 }
  - { offset: 0x33C8D, size: 0x8, addend: 0x0, symName: '__ZN63_$LT$I$u20$as$u20$core..iter..traits..collect..IntoIterator$GT$9into_iter17he4eb1d228dfd78dfE', symObjAddr: 0xF24, symBinAddr: 0x1787C, symSize: 0x30 }
  - { offset: 0x34DED, size: 0x8, addend: 0x0, symName: __ZN4pyo35impl_9pymethods11tp_new_impl17h84dc2c47b462a957E, symObjAddr: 0x0, symBinAddr: 0x178AC, symSize: 0xDC }
  - { offset: 0x36086, size: 0x8, addend: 0x0, symName: '__ZN50_$LT$T$u20$as$u20$core..convert..Into$LT$U$GT$$GT$4into17h2ae38cd79993ccb6E', symObjAddr: 0xDC, symBinAddr: 0x17988, symSize: 0x24 }
  - { offset: 0x3693C, size: 0x8, addend: 0x0, symName: __ZN4pyo35impl_9pymethods11tp_new_impl17h84dc2c47b462a957E, symObjAddr: 0x0, symBinAddr: 0x178AC, symSize: 0xDC }
  - { offset: 0x371B5, size: 0x8, addend: 0x0, symName: '__ZN4core3ptr9const_ptr33_$LT$impl$u20$$BP$const$u20$T$GT$7is_null17h2c931dbdf006cd7dE', symObjAddr: 0x0, symBinAddr: 0x179AC, symSize: 0x18 }
  - { offset: 0x371ED, size: 0x8, addend: 0x0, symName: '__ZN4core3ptr9const_ptr33_$LT$impl$u20$$BP$const$u20$T$GT$7is_null17h2c931dbdf006cd7dE', symObjAddr: 0x0, symBinAddr: 0x179AC, symSize: 0x18 }
  - { offset: 0x37274, size: 0x8, addend: 0x0, symName: '__ZN153_$LT$core..result..Result$LT$T$C$F$GT$$u20$as$u20$core..ops..try_trait..FromResidual$LT$core..result..Result$LT$core..convert..Infallible$C$E$GT$$GT$$GT$13from_residual17h056ae4e918073986E', symObjAddr: 0x0, symBinAddr: 0x179C4, symSize: 0x6C }
  - { offset: 0x38ADC, size: 0x8, addend: 0x0, symName: '__ZN153_$LT$core..result..Result$LT$T$C$F$GT$$u20$as$u20$core..ops..try_trait..FromResidual$LT$core..result..Result$LT$core..convert..Infallible$C$E$GT$$GT$$GT$13from_residual17h056ae4e918073986E', symObjAddr: 0x0, symBinAddr: 0x179C4, symSize: 0x6C }
  - { offset: 0x38B62, size: 0x8, addend: 0x0, symName: '__ZN153_$LT$core..result..Result$LT$T$C$F$GT$$u20$as$u20$core..ops..try_trait..FromResidual$LT$core..result..Result$LT$core..convert..Infallible$C$E$GT$$GT$$GT$13from_residual17h6ab216e85fd20f39E', symObjAddr: 0x6C, symBinAddr: 0x17A30, symSize: 0x4C }
  - { offset: 0x38BC9, size: 0x8, addend: 0x0, symName: '__ZN153_$LT$core..result..Result$LT$T$C$F$GT$$u20$as$u20$core..ops..try_trait..FromResidual$LT$core..result..Result$LT$core..convert..Infallible$C$E$GT$$GT$$GT$13from_residual17h7bce463530fe52b0E', symObjAddr: 0xB8, symBinAddr: 0x17A7C, symSize: 0x6C }
  - { offset: 0x38C4F, size: 0x8, addend: 0x0, symName: '__ZN153_$LT$core..result..Result$LT$T$C$F$GT$$u20$as$u20$core..ops..try_trait..FromResidual$LT$core..result..Result$LT$core..convert..Infallible$C$E$GT$$GT$$GT$13from_residual17h95e7c8302cc38673E', symObjAddr: 0x124, symBinAddr: 0x17AE8, symSize: 0x28 }
  - { offset: 0x38CB6, size: 0x8, addend: 0x0, symName: '__ZN153_$LT$core..result..Result$LT$T$C$F$GT$$u20$as$u20$core..ops..try_trait..FromResidual$LT$core..result..Result$LT$core..convert..Infallible$C$E$GT$$GT$$GT$13from_residual17h98465b7207335613E', symObjAddr: 0x14C, symBinAddr: 0x17B10, symSize: 0x44 }
  - { offset: 0x38D1D, size: 0x8, addend: 0x0, symName: '__ZN153_$LT$core..result..Result$LT$T$C$F$GT$$u20$as$u20$core..ops..try_trait..FromResidual$LT$core..result..Result$LT$core..convert..Infallible$C$E$GT$$GT$$GT$13from_residual17ha91fb49084e0863fE', symObjAddr: 0x190, symBinAddr: 0x17B54, symSize: 0x28 }
  - { offset: 0x38D84, size: 0x8, addend: 0x0, symName: '__ZN153_$LT$core..result..Result$LT$T$C$F$GT$$u20$as$u20$core..ops..try_trait..FromResidual$LT$core..result..Result$LT$core..convert..Infallible$C$E$GT$$GT$$GT$13from_residual17hbd9bb23661070fe1E', symObjAddr: 0x1B8, symBinAddr: 0x17B7C, symSize: 0x6C }
  - { offset: 0x38DEB, size: 0x8, addend: 0x0, symName: '__ZN153_$LT$core..result..Result$LT$T$C$F$GT$$u20$as$u20$core..ops..try_trait..FromResidual$LT$core..result..Result$LT$core..convert..Infallible$C$E$GT$$GT$$GT$13from_residual17hd5a6b5508838d38dE', symObjAddr: 0x224, symBinAddr: 0x17BE8, symSize: 0x28 }
  - { offset: 0x38E52, size: 0x8, addend: 0x0, symName: '__ZN153_$LT$core..result..Result$LT$T$C$F$GT$$u20$as$u20$core..ops..try_trait..FromResidual$LT$core..result..Result$LT$core..convert..Infallible$C$E$GT$$GT$$GT$13from_residual17he0141482577beaafE', symObjAddr: 0x24C, symBinAddr: 0x17C10, symSize: 0x18 }
  - { offset: 0x38E9B, size: 0x8, addend: 0x0, symName: '__ZN153_$LT$core..result..Result$LT$T$C$F$GT$$u20$as$u20$core..ops..try_trait..FromResidual$LT$core..result..Result$LT$core..convert..Infallible$C$E$GT$$GT$$GT$13from_residual17hee975798fa89827cE', symObjAddr: 0x264, symBinAddr: 0x17C28, symSize: 0x6C }
  - { offset: 0x38F02, size: 0x8, addend: 0x0, symName: '__ZN153_$LT$core..result..Result$LT$T$C$F$GT$$u20$as$u20$core..ops..try_trait..FromResidual$LT$core..result..Result$LT$core..convert..Infallible$C$E$GT$$GT$$GT$13from_residual17hfc99e62bac2e38a1E', symObjAddr: 0x2D0, symBinAddr: 0x17C94, symSize: 0x44 }
  - { offset: 0x39848, size: 0x8, addend: 0x0, symName: '__ZN79_$LT$core..result..Result$LT$T$C$E$GT$$u20$as$u20$core..ops..try_trait..Try$GT$6branch17h055d8cc200af6b2cE', symObjAddr: 0x844, symBinAddr: 0x18208, symSize: 0xA0 }
  - { offset: 0x398C5, size: 0x8, addend: 0x0, symName: '__ZN79_$LT$core..result..Result$LT$T$C$E$GT$$u20$as$u20$core..ops..try_trait..Try$GT$6branch17h140ec5e9393d04f0E', symObjAddr: 0x8E4, symBinAddr: 0x182A8, symSize: 0xA0 }
  - { offset: 0x39942, size: 0x8, addend: 0x0, symName: '__ZN79_$LT$core..result..Result$LT$T$C$E$GT$$u20$as$u20$core..ops..try_trait..Try$GT$6branch17h1d92b5a9a3b189d8E', symObjAddr: 0x984, symBinAddr: 0x18348, symSize: 0x68 }
  - { offset: 0x399BF, size: 0x8, addend: 0x0, symName: '__ZN79_$LT$core..result..Result$LT$T$C$E$GT$$u20$as$u20$core..ops..try_trait..Try$GT$6branch17h2f642d82e098a353E', symObjAddr: 0x9EC, symBinAddr: 0x183B0, symSize: 0x68 }
  - { offset: 0x39A3C, size: 0x8, addend: 0x0, symName: '__ZN79_$LT$core..result..Result$LT$T$C$E$GT$$u20$as$u20$core..ops..try_trait..Try$GT$6branch17h32a7a321053cc3f2E', symObjAddr: 0xA54, symBinAddr: 0x18418, symSize: 0xA0 }
  - { offset: 0x39AB9, size: 0x8, addend: 0x0, symName: '__ZN79_$LT$core..result..Result$LT$T$C$E$GT$$u20$as$u20$core..ops..try_trait..Try$GT$6branch17h4484ab0a6de063cdE', symObjAddr: 0xAF4, symBinAddr: 0x184B8, symSize: 0x68 }
  - { offset: 0x39B36, size: 0x8, addend: 0x0, symName: '__ZN79_$LT$core..result..Result$LT$T$C$E$GT$$u20$as$u20$core..ops..try_trait..Try$GT$6branch17h475b398b73f9e659E', symObjAddr: 0xB5C, symBinAddr: 0x18520, symSize: 0xA0 }
  - { offset: 0x39BB3, size: 0x8, addend: 0x0, symName: '__ZN79_$LT$core..result..Result$LT$T$C$E$GT$$u20$as$u20$core..ops..try_trait..Try$GT$6branch17h589120098fda37e9E', symObjAddr: 0xBFC, symBinAddr: 0x185C0, symSize: 0x50 }
  - { offset: 0x39C2F, size: 0x8, addend: 0x0, symName: '__ZN79_$LT$core..result..Result$LT$T$C$E$GT$$u20$as$u20$core..ops..try_trait..Try$GT$6branch17h8083718603ffa113E', symObjAddr: 0xC4C, symBinAddr: 0x18610, symSize: 0x44 }
  - { offset: 0x39CAB, size: 0x8, addend: 0x0, symName: '__ZN79_$LT$core..result..Result$LT$T$C$E$GT$$u20$as$u20$core..ops..try_trait..Try$GT$6branch17h9962c3045ca04a48E', symObjAddr: 0xC90, symBinAddr: 0x18654, symSize: 0x90 }
  - { offset: 0x39D28, size: 0x8, addend: 0x0, symName: '__ZN79_$LT$core..result..Result$LT$T$C$E$GT$$u20$as$u20$core..ops..try_trait..Try$GT$6branch17hdcc5b5a4967ac20bE', symObjAddr: 0xD20, symBinAddr: 0x186E4, symSize: 0x68 }
  - { offset: 0x39DA5, size: 0x8, addend: 0x0, symName: '__ZN79_$LT$core..result..Result$LT$T$C$E$GT$$u20$as$u20$core..ops..try_trait..Try$GT$6branch17hf28021e327d8f3c4E', symObjAddr: 0xD88, symBinAddr: 0x1874C, symSize: 0x5C }
  - { offset: 0x3BF57, size: 0x8, addend: 0x0, symName: '__ZN4core6result19Result$LT$T$C$E$GT$14unwrap_or_else17hfcbbb80b149328b5E', symObjAddr: 0x314, symBinAddr: 0x17CD8, symSize: 0x8C }
  - { offset: 0x3C17C, size: 0x8, addend: 0x0, symName: '__ZN4core6result19Result$LT$T$C$E$GT$3map17h154580abc47938c3E', symObjAddr: 0x3A0, symBinAddr: 0x17D64, symSize: 0x90 }
  - { offset: 0x3C20F, size: 0x8, addend: 0x0, symName: '__ZN4core6result19Result$LT$T$C$E$GT$3map17h4266a6f4c486479eE', symObjAddr: 0x430, symBinAddr: 0x17DF4, symSize: 0x90 }
  - { offset: 0x3C2BA, size: 0x8, addend: 0x0, symName: '__ZN4core6result19Result$LT$T$C$E$GT$3map17h89ea294d43254d48E', symObjAddr: 0x4C0, symBinAddr: 0x17E84, symSize: 0x90 }
  - { offset: 0x3C374, size: 0x8, addend: 0x0, symName: '__ZN4core6result19Result$LT$T$C$E$GT$3map17h9da0d514dc7326d5E', symObjAddr: 0x550, symBinAddr: 0x17F14, symSize: 0x4C }
  - { offset: 0x3C420, size: 0x8, addend: 0x0, symName: '__ZN4core6result19Result$LT$T$C$E$GT$5is_ok17h930cd8ebc491ac8aE', symObjAddr: 0x59C, symBinAddr: 0x17F60, symSize: 0x2C }
  - { offset: 0x3C46F, size: 0x8, addend: 0x0, symName: '__ZN4core6result19Result$LT$T$C$E$GT$5is_ok17ha5587a368d94c29dE', symObjAddr: 0x5C8, symBinAddr: 0x17F8C, symSize: 0x2C }
  - { offset: 0x3C4B1, size: 0x8, addend: 0x0, symName: '__ZN4core6result19Result$LT$T$C$E$GT$5is_ok17hec45fc5b173407f0E', symObjAddr: 0x5F4, symBinAddr: 0x17FB8, symSize: 0x28 }
  - { offset: 0x3C4E6, size: 0x8, addend: 0x0, symName: '__ZN4core6result19Result$LT$T$C$E$GT$6expect17hc33411dad4f9f232E', symObjAddr: 0x61C, symBinAddr: 0x17FE0, symSize: 0x88 }
  - { offset: 0x3C57A, size: 0x8, addend: 0x0, symName: '__ZN4core6result19Result$LT$T$C$E$GT$6is_err17hee567f6cc7ff11e2E', symObjAddr: 0x6A4, symBinAddr: 0x18068, symSize: 0x20 }
  - { offset: 0x3C603, size: 0x8, addend: 0x0, symName: '__ZN4core6result19Result$LT$T$C$E$GT$7map_err17h44b04bdbce4292feE', symObjAddr: 0x6C4, symBinAddr: 0x18088, symSize: 0xC4 }
  - { offset: 0x3C6AE, size: 0x8, addend: 0x0, symName: '__ZN4core6result19Result$LT$T$C$E$GT$7map_err17hf0fa26f4f624b935E', symObjAddr: 0x788, symBinAddr: 0x1814C, symSize: 0x20 }
  - { offset: 0x3C724, size: 0x8, addend: 0x0, symName: '__ZN4core6result19Result$LT$T$C$E$GT$8and_then17hb0df674955441062E', symObjAddr: 0x7A8, symBinAddr: 0x1816C, symSize: 0x9C }
  - { offset: 0x3C841, size: 0x8, addend: 0x0, symName: '__ZN4core3ptr8non_null16NonNull$LT$T$GT$13new_unchecked17h2ff51bbed36f7997E', symObjAddr: 0x0, symBinAddr: 0x187A8, symSize: 0x3C }
  - { offset: 0x3D402, size: 0x8, addend: 0x0, symName: '__ZN90_$LT$core..ptr..non_null..NonNull$LT$T$GT$$u20$as$u20$core..convert..From$LT$$RF$T$GT$$GT$4from17h93efd82fffd69091E', symObjAddr: 0x2A0, symBinAddr: 0x18A48, symSize: 0x14 }
  - { offset: 0x3D439, size: 0x8, addend: 0x0, symName: '__ZN90_$LT$core..ptr..non_null..NonNull$LT$T$GT$$u20$as$u20$core..convert..From$LT$$RF$T$GT$$GT$4from17hdcfcc540fd515ab7E', symObjAddr: 0x2B4, symBinAddr: 0x18A5C, symSize: 0x14 }
  - { offset: 0x3D470, size: 0x8, addend: 0x0, symName: '__ZN90_$LT$core..ptr..non_null..NonNull$LT$T$GT$$u20$as$u20$core..convert..From$LT$$RF$T$GT$$GT$4from17hfb7c6a6f8cfd779fE', symObjAddr: 0x2C8, symBinAddr: 0x18A70, symSize: 0x14 }
  - { offset: 0x3E3D4, size: 0x8, addend: 0x0, symName: '__ZN4core3ptr8non_null16NonNull$LT$T$GT$13new_unchecked17h2ff51bbed36f7997E', symObjAddr: 0x0, symBinAddr: 0x187A8, symSize: 0x3C }
  - { offset: 0x3E419, size: 0x8, addend: 0x0, symName: '__ZN4core3ptr8non_null16NonNull$LT$T$GT$13new_unchecked17h5228e1fafbef3e33E', symObjAddr: 0x3C, symBinAddr: 0x187E4, symSize: 0x3C }
  - { offset: 0x3E465, size: 0x8, addend: 0x0, symName: '__ZN4core3ptr8non_null16NonNull$LT$T$GT$13new_unchecked17h875cab38b4846638E', symObjAddr: 0x78, symBinAddr: 0x18820, symSize: 0x3C }
  - { offset: 0x3E4AC, size: 0x8, addend: 0x0, symName: '__ZN4core3ptr8non_null16NonNull$LT$T$GT$20offset_from_unsigned17h11f3073f05bf64c8E', symObjAddr: 0xB4, symBinAddr: 0x1885C, symSize: 0x7C }
  - { offset: 0x3E5B6, size: 0x8, addend: 0x0, symName: '__ZN4core3ptr8non_null16NonNull$LT$T$GT$20offset_from_unsigned17h683366a0a7461af4E', symObjAddr: 0x130, symBinAddr: 0x188D8, symSize: 0x7C }
  - { offset: 0x3E6A6, size: 0x8, addend: 0x0, symName: '__ZN4core3ptr8non_null16NonNull$LT$T$GT$20offset_from_unsigned17hfc25a78df091fa06E', symObjAddr: 0x1AC, symBinAddr: 0x18954, symSize: 0x7C }
  - { offset: 0x3F174, size: 0x8, addend: 0x0, symName: '__ZN4core3ptr8non_null16NonNull$LT$T$GT$4cast17h029a0a9118e190b3E', symObjAddr: 0x228, symBinAddr: 0x189D0, symSize: 0x14 }
  - { offset: 0x3F1B6, size: 0x8, addend: 0x0, symName: '__ZN4core3ptr8non_null16NonNull$LT$T$GT$4cast17h14539f9646d92c18E', symObjAddr: 0x23C, symBinAddr: 0x189E4, symSize: 0x14 }
  - { offset: 0x3F33B, size: 0x8, addend: 0x0, symName: '__ZN4core3ptr8non_null16NonNull$LT$T$GT$4cast17h8502c8f5e62de512E', symObjAddr: 0x250, symBinAddr: 0x189F8, symSize: 0x14 }
  - { offset: 0x3F37D, size: 0x8, addend: 0x0, symName: '__ZN4core3ptr8non_null16NonNull$LT$T$GT$4cast17h90979cdaf86d695fE', symObjAddr: 0x264, symBinAddr: 0x18A0C, symSize: 0x14 }
  - { offset: 0x3F3B2, size: 0x8, addend: 0x0, symName: '__ZN4core3ptr8non_null16NonNull$LT$T$GT$4cast17h9c10bf6871ec1968E', symObjAddr: 0x278, symBinAddr: 0x18A20, symSize: 0x14 }
  - { offset: 0x3F3E7, size: 0x8, addend: 0x0, symName: '__ZN4core3ptr8non_null16NonNull$LT$T$GT$4cast17hba8366153badfa33E', symObjAddr: 0x28C, symBinAddr: 0x18A34, symSize: 0x14 }
  - { offset: 0x3F461, size: 0x8, addend: 0x0, symName: '__ZN45_$LT$f64$u20$as$u20$core..ops..arith..Add$GT$3add17heb67b950dd4ba32bE', symObjAddr: 0x0, symBinAddr: 0x18A84, symSize: 0x18 }
  - { offset: 0x3F482, size: 0x8, addend: 0x0, symName: '__ZN45_$LT$f64$u20$as$u20$core..ops..arith..Add$GT$3add17heb67b950dd4ba32bE', symObjAddr: 0x0, symBinAddr: 0x18A84, symSize: 0x18 }
  - { offset: 0x3F4C2, size: 0x8, addend: 0x0, symName: '__ZN45_$LT$f64$u20$as$u20$core..ops..arith..Div$GT$3div17h1e12459d34c046f5E', symObjAddr: 0x18, symBinAddr: 0x18A9C, symSize: 0x18 }
  - { offset: 0x3F505, size: 0x8, addend: 0x0, symName: '__ZN45_$LT$f64$u20$as$u20$core..ops..arith..Mul$GT$3mul17hb460b170ee47589aE', symObjAddr: 0x30, symBinAddr: 0x18AB4, symSize: 0x18 }
  - { offset: 0x3F548, size: 0x8, addend: 0x0, symName: '__ZN45_$LT$f64$u20$as$u20$core..ops..arith..Neg$GT$3neg17h58338b0b597b8700E', symObjAddr: 0x48, symBinAddr: 0x18ACC, symSize: 0x14 }
  - { offset: 0x3F57C, size: 0x8, addend: 0x0, symName: '__ZN45_$LT$f64$u20$as$u20$core..ops..arith..Sub$GT$3sub17h54e2c2a65800b4aaE', symObjAddr: 0x5C, symBinAddr: 0x18AE0, symSize: 0x18 }
  - { offset: 0x3F5BC, size: 0x8, addend: 0x0, symName: '__ZN51_$LT$f64$u20$as$u20$core..ops..arith..SubAssign$GT$10sub_assign17h036f24830adbbf82E', symObjAddr: 0x74, symBinAddr: 0x18AF8, symSize: 0x28 }
  - { offset: 0x3F62B, size: 0x8, addend: 0x0, symName: '__ZN5numpy6borrow28PyReadonlyArray$LT$T$C$D$GT$7try_new17h863241ab38308ec4E', symObjAddr: 0x0, symBinAddr: 0x18B20, symSize: 0xEC }
  - { offset: 0x40C6F, size: 0x8, addend: 0x0, symName: '__ZN94_$LT$numpy..borrow..PyReadonlyArray$LT$T$C$D$GT$$u20$as$u20$pyo3..conversion..FromPyObject$GT$7extract17h62ac9da83e573c5cE', symObjAddr: 0x228, symBinAddr: 0x18D48, symSize: 0x9C }
  - { offset: 0x40D04, size: 0x8, addend: 0x0, symName: '__ZN94_$LT$numpy..borrow..PyReadonlyArray$LT$T$C$D$GT$$u20$as$u20$pyo3..conversion..FromPyObject$GT$7extract17ha7ece7609b994d56E', symObjAddr: 0x2C4, symBinAddr: 0x18DE4, symSize: 0x9C }
  - { offset: 0x41111, size: 0x8, addend: 0x0, symName: '__ZN80_$LT$T$u20$as$u20$pyo3..impl_..extract_argument..PyFunctionArgument$LT$_$GT$$GT$7extract17h5bebaa28a32599e4E', symObjAddr: 0x1D8, symBinAddr: 0x18CF8, symSize: 0x28 }
  - { offset: 0x41150, size: 0x8, addend: 0x0, symName: '__ZN80_$LT$T$u20$as$u20$pyo3..impl_..extract_argument..PyFunctionArgument$LT$_$GT$$GT$7extract17h66d79f5233876164E', symObjAddr: 0x200, symBinAddr: 0x18D20, symSize: 0x28 }
  - { offset: 0x4162B, size: 0x8, addend: 0x0, symName: '__ZN5numpy6borrow28PyReadonlyArray$LT$T$C$D$GT$7try_new17h863241ab38308ec4E', symObjAddr: 0x0, symBinAddr: 0x18B20, symSize: 0xEC }
  - { offset: 0x4167E, size: 0x8, addend: 0x0, symName: '__ZN5numpy6borrow28PyReadonlyArray$LT$T$C$D$GT$7try_new17hfb0a2aede7fdac7cE', symObjAddr: 0xEC, symBinAddr: 0x18C0C, symSize: 0xEC }
  - { offset: 0x4172A, size: 0x8, addend: 0x0, symName: __ZN4core4iter6traits8iterator8Iterator3zip17ha8d84be083f9a948E, symObjAddr: 0x0, symBinAddr: 0x18E80, symSize: 0xCC }
  - { offset: 0x417EB, size: 0x8, addend: 0x0, symName: '__ZN98_$LT$core..iter..adapters..rev..Rev$LT$I$GT$$u20$as$u20$core..iter..traits..iterator..Iterator$GT$4next17h4090e444d2fb0045E', symObjAddr: 0xE8, symBinAddr: 0x18F68, symSize: 0x24 }
  - { offset: 0x41832, size: 0x8, addend: 0x0, symName: __ZN4core4iter6traits8iterator8Iterator3zip17ha8d84be083f9a948E, symObjAddr: 0x0, symBinAddr: 0x18E80, symSize: 0xCC }
  - { offset: 0x418B4, size: 0x8, addend: 0x0, symName: '__ZN63_$LT$I$u20$as$u20$core..iter..traits..collect..IntoIterator$GT$9into_iter17hb45aafcd16f92592E', symObjAddr: 0xCC, symBinAddr: 0x18F4C, symSize: 0x1C }
  - { offset: 0x41A5D, size: 0x8, addend: 0x0, symName: '__ZN106_$LT$core..slice..iter..Iter$LT$T$GT$$u20$as$u20$core..iter..traits..double_ended..DoubleEndedIterator$GT$9next_back17h19b443dc8bcfb2a5E', symObjAddr: 0x0, symBinAddr: 0x18F8C, symSize: 0xE8 }
  - { offset: 0x42304, size: 0x8, addend: 0x0, symName: '__ZN106_$LT$core..slice..iter..Iter$LT$T$GT$$u20$as$u20$core..iter..traits..double_ended..DoubleEndedIterator$GT$9next_back17h19b443dc8bcfb2a5E', symObjAddr: 0x0, symBinAddr: 0x18F8C, symSize: 0xE8 }
  - { offset: 0x425DE, size: 0x8, addend: 0x0, symName: '__ZN91_$LT$core..slice..iter..Iter$LT$T$GT$$u20$as$u20$core..iter..traits..iterator..Iterator$GT$24__iterator_get_unchecked17h709c047889af44baE', symObjAddr: 0x9CC, symBinAddr: 0x19958, symSize: 0x20 }
  - { offset: 0x42688, size: 0x8, addend: 0x0, symName: '__ZN91_$LT$core..slice..iter..Iter$LT$T$GT$$u20$as$u20$core..iter..traits..iterator..Iterator$GT$3all17h47f35cfc48bbdef0E', symObjAddr: 0x9EC, symBinAddr: 0x19978, symSize: 0xE0 }
  - { offset: 0x427B0, size: 0x8, addend: 0x0, symName: '__ZN91_$LT$core..slice..iter..Iter$LT$T$GT$$u20$as$u20$core..iter..traits..iterator..Iterator$GT$3any17h89d90f6b78df7066E', symObjAddr: 0xACC, symBinAddr: 0x19A58, symSize: 0xE4 }
  - { offset: 0x4288B, size: 0x8, addend: 0x0, symName: '__ZN91_$LT$core..slice..iter..Iter$LT$T$GT$$u20$as$u20$core..iter..traits..iterator..Iterator$GT$4fold17h01cc2a45c26b3c8cE', symObjAddr: 0xBB0, symBinAddr: 0x19B3C, symSize: 0x1A0 }
  - { offset: 0x429C1, size: 0x8, addend: 0x0, symName: '__ZN91_$LT$core..slice..iter..Iter$LT$T$GT$$u20$as$u20$core..iter..traits..iterator..Iterator$GT$4fold17h01f2e599742bd219E', symObjAddr: 0xD50, symBinAddr: 0x19CDC, symSize: 0x174 }
  - { offset: 0x42AF7, size: 0x8, addend: 0x0, symName: '__ZN91_$LT$core..slice..iter..Iter$LT$T$GT$$u20$as$u20$core..iter..traits..iterator..Iterator$GT$4fold17h048289c7d726fdc8E', symObjAddr: 0xEC4, symBinAddr: 0x19E50, symSize: 0x174 }
  - { offset: 0x42C2D, size: 0x8, addend: 0x0, symName: '__ZN91_$LT$core..slice..iter..Iter$LT$T$GT$$u20$as$u20$core..iter..traits..iterator..Iterator$GT$4fold17h1f1494015cffb316E', symObjAddr: 0x1038, symBinAddr: 0x19FC4, symSize: 0x1B4 }
  - { offset: 0x42D67, size: 0x8, addend: 0x0, symName: '__ZN91_$LT$core..slice..iter..Iter$LT$T$GT$$u20$as$u20$core..iter..traits..iterator..Iterator$GT$4fold17h4167f527606e6381E', symObjAddr: 0x11EC, symBinAddr: 0x1A178, symSize: 0x1A0 }
  - { offset: 0x42E9D, size: 0x8, addend: 0x0, symName: '__ZN91_$LT$core..slice..iter..Iter$LT$T$GT$$u20$as$u20$core..iter..traits..iterator..Iterator$GT$4fold17h432b8bf872d8c47fE', symObjAddr: 0x138C, symBinAddr: 0x1A318, symSize: 0x174 }
  - { offset: 0x42FD3, size: 0x8, addend: 0x0, symName: '__ZN91_$LT$core..slice..iter..Iter$LT$T$GT$$u20$as$u20$core..iter..traits..iterator..Iterator$GT$4fold17h5a36b59fe083024fE', symObjAddr: 0x1500, symBinAddr: 0x1A48C, symSize: 0x1A0 }
  - { offset: 0x43109, size: 0x8, addend: 0x0, symName: '__ZN91_$LT$core..slice..iter..Iter$LT$T$GT$$u20$as$u20$core..iter..traits..iterator..Iterator$GT$4fold17h5fc6395b49616991E', symObjAddr: 0x16A0, symBinAddr: 0x1A62C, symSize: 0x1A0 }
  - { offset: 0x4323F, size: 0x8, addend: 0x0, symName: '__ZN91_$LT$core..slice..iter..Iter$LT$T$GT$$u20$as$u20$core..iter..traits..iterator..Iterator$GT$4fold17h6a2740293fb0cce5E', symObjAddr: 0x1840, symBinAddr: 0x1A7CC, symSize: 0x1A0 }
  - { offset: 0x43375, size: 0x8, addend: 0x0, symName: '__ZN91_$LT$core..slice..iter..Iter$LT$T$GT$$u20$as$u20$core..iter..traits..iterator..Iterator$GT$4fold17h71bd79e33521e550E', symObjAddr: 0x19E0, symBinAddr: 0x1A96C, symSize: 0x174 }
  - { offset: 0x434AB, size: 0x8, addend: 0x0, symName: '__ZN91_$LT$core..slice..iter..Iter$LT$T$GT$$u20$as$u20$core..iter..traits..iterator..Iterator$GT$4fold17h7559a2350fb71006E', symObjAddr: 0x1B54, symBinAddr: 0x1AAE0, symSize: 0x174 }
  - { offset: 0x435E1, size: 0x8, addend: 0x0, symName: '__ZN91_$LT$core..slice..iter..Iter$LT$T$GT$$u20$as$u20$core..iter..traits..iterator..Iterator$GT$4fold17h79b1d6b1b87dc96bE', symObjAddr: 0x1CC8, symBinAddr: 0x1AC54, symSize: 0x1FC }
  - { offset: 0x4371D, size: 0x8, addend: 0x0, symName: '__ZN91_$LT$core..slice..iter..Iter$LT$T$GT$$u20$as$u20$core..iter..traits..iterator..Iterator$GT$4fold17h79b4f3bdaf061da7E', symObjAddr: 0x1EC4, symBinAddr: 0x1AE50, symSize: 0x174 }
  - { offset: 0x43853, size: 0x8, addend: 0x0, symName: '__ZN91_$LT$core..slice..iter..Iter$LT$T$GT$$u20$as$u20$core..iter..traits..iterator..Iterator$GT$4fold17h8c3bed204ed8ca5aE', symObjAddr: 0x2038, symBinAddr: 0x1AFC4, symSize: 0x174 }
  - { offset: 0x43989, size: 0x8, addend: 0x0, symName: '__ZN91_$LT$core..slice..iter..Iter$LT$T$GT$$u20$as$u20$core..iter..traits..iterator..Iterator$GT$4fold17hb432ee45127a9985E', symObjAddr: 0x21AC, symBinAddr: 0x1B138, symSize: 0x174 }
  - { offset: 0x43ABF, size: 0x8, addend: 0x0, symName: '__ZN91_$LT$core..slice..iter..Iter$LT$T$GT$$u20$as$u20$core..iter..traits..iterator..Iterator$GT$4fold17hd0b46f6aef21fcabE', symObjAddr: 0x2320, symBinAddr: 0x1B2AC, symSize: 0x174 }
  - { offset: 0x43BF5, size: 0x8, addend: 0x0, symName: '__ZN91_$LT$core..slice..iter..Iter$LT$T$GT$$u20$as$u20$core..iter..traits..iterator..Iterator$GT$4fold17hef30d5e835ba5903E', symObjAddr: 0x2494, symBinAddr: 0x1B420, symSize: 0x174 }
  - { offset: 0x43D2B, size: 0x8, addend: 0x0, symName: '__ZN91_$LT$core..slice..iter..Iter$LT$T$GT$$u20$as$u20$core..iter..traits..iterator..Iterator$GT$4next17h902b7b2b8df00cd7E', symObjAddr: 0x2608, symBinAddr: 0x1B594, symSize: 0x84 }
  - { offset: 0x43DE1, size: 0x8, addend: 0x0, symName: '__ZN91_$LT$core..slice..iter..Iter$LT$T$GT$$u20$as$u20$core..iter..traits..iterator..Iterator$GT$4next17hd68d78dfb4cb3aceE', symObjAddr: 0x268C, symBinAddr: 0x1B618, symSize: 0x84 }
  - { offset: 0x43EE6, size: 0x8, addend: 0x0, symName: '__ZN91_$LT$core..slice..iter..Iter$LT$T$GT$$u20$as$u20$core..iter..traits..iterator..Iterator$GT$8for_each17h4e70c287ec858421E', symObjAddr: 0x2710, symBinAddr: 0x1B69C, symSize: 0xB0 }
  - { offset: 0x44003, size: 0x8, addend: 0x0, symName: '__ZN91_$LT$core..slice..iter..Iter$LT$T$GT$$u20$as$u20$core..iter..traits..iterator..Iterator$GT$8for_each17h8bb435213f9243bfE', symObjAddr: 0x27C0, symBinAddr: 0x1B74C, symSize: 0xB0 }
  - { offset: 0x44120, size: 0x8, addend: 0x0, symName: '__ZN91_$LT$core..slice..iter..Iter$LT$T$GT$$u20$as$u20$core..iter..traits..iterator..Iterator$GT$8position17h40b69ffddf38f39dE', symObjAddr: 0x2870, symBinAddr: 0x1B7FC, symSize: 0x194 }
  - { offset: 0x442AD, size: 0x8, addend: 0x0, symName: '__ZN91_$LT$core..slice..iter..Iter$LT$T$GT$$u20$as$u20$core..iter..traits..iterator..Iterator$GT$8position17h4fd530659e15d268E', symObjAddr: 0x2A04, symBinAddr: 0x1B990, symSize: 0x194 }
  - { offset: 0x4443A, size: 0x8, addend: 0x0, symName: '__ZN91_$LT$core..slice..iter..Iter$LT$T$GT$$u20$as$u20$core..iter..traits..iterator..Iterator$GT$8position17h6e4818a3a91d1968E', symObjAddr: 0x2B98, symBinAddr: 0x1BB24, symSize: 0x194 }
  - { offset: 0x44578, size: 0x8, addend: 0x0, symName: '__ZN91_$LT$core..slice..iter..Iter$LT$T$GT$$u20$as$u20$core..iter..traits..iterator..Iterator$GT$9size_hint17h923d4475cc5b9763E', symObjAddr: 0x2D2C, symBinAddr: 0x1BCB8, symSize: 0x60 }
  - { offset: 0x445E7, size: 0x8, addend: 0x0, symName: '__ZN91_$LT$core..slice..iter..Iter$LT$T$GT$$u20$as$u20$core..iter..traits..iterator..Iterator$GT$9size_hint17h9a1d8c893c523996E', symObjAddr: 0x2D8C, symBinAddr: 0x1BD18, symSize: 0x60 }
  - { offset: 0x44656, size: 0x8, addend: 0x0, symName: '__ZN91_$LT$core..slice..iter..Iter$LT$T$GT$$u20$as$u20$core..iter..traits..iterator..Iterator$GT$9size_hint17hf61fdf35fd4ada65E', symObjAddr: 0x2DEC, symBinAddr: 0x1BD78, symSize: 0x60 }
  - { offset: 0x4476D, size: 0x8, addend: 0x0, symName: '__ZN94_$LT$core..slice..iter..IterMut$LT$T$GT$$u20$as$u20$core..iter..traits..iterator..Iterator$GT$24__iterator_get_unchecked17hfbeaca268df2db76E', symObjAddr: 0x2E4C, symBinAddr: 0x1BDD8, symSize: 0x20 }
  - { offset: 0x447C8, size: 0x8, addend: 0x0, symName: '__ZN94_$LT$core..slice..iter..IterMut$LT$T$GT$$u20$as$u20$core..iter..traits..iterator..Iterator$GT$9size_hint17hc02d1853ea2f681eE', symObjAddr: 0x2E6C, symBinAddr: 0x1BDF8, symSize: 0x60 }
  - { offset: 0x45C6C, size: 0x8, addend: 0x0, symName: __ZN4core4iter8adapters3zip27TrustedRandomAccessNoCoerce4size17h162a6297c8c09f50E, symObjAddr: 0x818, symBinAddr: 0x197A4, symSize: 0x2C }
  - { offset: 0x45CA3, size: 0x8, addend: 0x0, symName: __ZN4core4iter8adapters3zip27TrustedRandomAccessNoCoerce4size17hf20ca8a2c74a0031E, symObjAddr: 0x844, symBinAddr: 0x197D0, symSize: 0x2C }
  - { offset: 0x45E5D, size: 0x8, addend: 0x0, symName: __ZN4core4iter6traits8iterator8Iterator3map17h43351ff0eb79a7f4E, symObjAddr: 0xE8, symBinAddr: 0x19074, symSize: 0x30 }
  - { offset: 0x45ECA, size: 0x8, addend: 0x0, symName: __ZN4core4iter6traits8iterator8Iterator3map17h43afc21592c447e6E, symObjAddr: 0x118, symBinAddr: 0x190A4, symSize: 0x1C }
  - { offset: 0x45F22, size: 0x8, addend: 0x0, symName: __ZN4core4iter6traits8iterator8Iterator3map17haa5ecec0fd2fa886E, symObjAddr: 0x134, symBinAddr: 0x190C0, symSize: 0x1C }
  - { offset: 0x45F7A, size: 0x8, addend: 0x0, symName: __ZN4core4iter6traits8iterator8Iterator3map17hb29d3094b8a36d01E, symObjAddr: 0x150, symBinAddr: 0x190DC, symSize: 0x30 }
  - { offset: 0x45FE7, size: 0x8, addend: 0x0, symName: __ZN4core4iter6traits8iterator8Iterator3map17hef07e8ccee5550d0E, symObjAddr: 0x180, symBinAddr: 0x1910C, symSize: 0x30 }
  - { offset: 0x46054, size: 0x8, addend: 0x0, symName: __ZN4core4iter6traits8iterator8Iterator3rev17h3af25f1e3245840dE, symObjAddr: 0x1B0, symBinAddr: 0x1913C, symSize: 0x1C }
  - { offset: 0x4608B, size: 0x8, addend: 0x0, symName: __ZN4core4iter6traits8iterator8Iterator3zip17h303edf491b3d71efE, symObjAddr: 0x1CC, symBinAddr: 0x19158, symSize: 0xCC }
  - { offset: 0x46101, size: 0x8, addend: 0x0, symName: __ZN4core4iter6traits8iterator8Iterator3zip17h747985e645b09c0dE, symObjAddr: 0x298, symBinAddr: 0x19224, symSize: 0xCC }
  - { offset: 0x46177, size: 0x8, addend: 0x0, symName: __ZN4core4iter6traits8iterator8Iterator3zip17ha66e8c471dd3a724E, symObjAddr: 0x364, symBinAddr: 0x192F0, symSize: 0xC8 }
  - { offset: 0x461ED, size: 0x8, addend: 0x0, symName: __ZN4core4iter6traits8iterator8Iterator3zip17hac2890380d03fa5dE, symObjAddr: 0x42C, symBinAddr: 0x193B8, symSize: 0x9C }
  - { offset: 0x46263, size: 0x8, addend: 0x0, symName: __ZN4core4iter6traits8iterator8Iterator6copied17h3b11a87b61568dc8E, symObjAddr: 0x4C8, symBinAddr: 0x19454, symSize: 0x1C }
  - { offset: 0x462A3, size: 0x8, addend: 0x0, symName: __ZN4core4iter6traits8iterator8Iterator6filter17h5a45bffb07377b5eE, symObjAddr: 0x4E4, symBinAddr: 0x19470, symSize: 0x1C }
  - { offset: 0x462F2, size: 0x8, addend: 0x0, symName: __ZN4core4iter6traits8iterator8Iterator8try_fold17h90944ede8b7f2b4bE, symObjAddr: 0x500, symBinAddr: 0x1948C, symSize: 0x178 }
  - { offset: 0x463A6, size: 0x8, addend: 0x0, symName: __ZN4core4iter6traits8iterator8Iterator8try_fold17hfcf55f125daf1d06E, symObjAddr: 0x678, symBinAddr: 0x19604, symSize: 0x178 }
  - { offset: 0x46459, size: 0x8, addend: 0x0, symName: __ZN4core4iter6traits8iterator8Iterator9enumerate17h013784c096831216E, symObjAddr: 0x7F0, symBinAddr: 0x1977C, symSize: 0x28 }
  - { offset: 0x4655A, size: 0x8, addend: 0x0, symName: '__ZN63_$LT$I$u20$as$u20$core..iter..traits..collect..IntoIterator$GT$9into_iter17hbbae2274e5d0a6ecE', symObjAddr: 0x9B0, symBinAddr: 0x1993C, symSize: 0x1C }
  - { offset: 0x47ADD, size: 0x8, addend: 0x0, symName: '__ZN4core5slice4iter13Iter$LT$T$GT$3new17h2819b15bb1c38b1cE', symObjAddr: 0x870, symBinAddr: 0x197FC, symSize: 0x50 }
  - { offset: 0x482A0, size: 0x8, addend: 0x0, symName: '__ZN4core5slice4iter13Iter$LT$T$GT$3new17h389a96d5f904a3c4E', symObjAddr: 0x8C0, symBinAddr: 0x1984C, symSize: 0x50 }
  - { offset: 0x4846A, size: 0x8, addend: 0x0, symName: '__ZN4core5slice4iter13Iter$LT$T$GT$3new17h4ce1d945e58676b1E', symObjAddr: 0x910, symBinAddr: 0x1989C, symSize: 0x50 }
  - { offset: 0x48634, size: 0x8, addend: 0x0, symName: '__ZN4core5slice4iter13Iter$LT$T$GT$3new17hc9ea42660f6c358eE', symObjAddr: 0x960, symBinAddr: 0x198EC, symSize: 0x50 }
  - { offset: 0x49358, size: 0x8, addend: 0x0, symName: '__ZN51_$LT$i32$u20$as$u20$alloc..vec..is_zero..IsZero$GT$7is_zero17h378216b02cc6ef04E', symObjAddr: 0x0, symBinAddr: 0x1BE58, symSize: 0x20 }
  - { offset: 0x4938F, size: 0x8, addend: 0x0, symName: '__ZN51_$LT$i32$u20$as$u20$alloc..vec..is_zero..IsZero$GT$7is_zero17h378216b02cc6ef04E', symObjAddr: 0x0, symBinAddr: 0x1BE58, symSize: 0x20 }
  - { offset: 0x493EB, size: 0x8, addend: 0x0, symName: '__ZN51_$LT$i64$u20$as$u20$alloc..vec..is_zero..IsZero$GT$7is_zero17hb7c9cc4c60878abeE', symObjAddr: 0x20, symBinAddr: 0x1BE78, symSize: 0x20 }
  - { offset: 0x49447, size: 0x8, addend: 0x0, symName: '__ZN53_$LT$usize$u20$as$u20$alloc..vec..is_zero..IsZero$GT$7is_zero17h617344f83890b0e3E', symObjAddr: 0x40, symBinAddr: 0x1BE98, symSize: 0x20 }
  - { offset: 0x494EC, size: 0x8, addend: 0x0, symName: '__ZN4pyo35impl_10trampoline7newfunc5inner28_$u7b$$u7b$closure$u7d$$u7d$17hb566d5e1b7dfeeeaE', symObjAddr: 0x0, symBinAddr: 0x1BEB8, symSize: 0x40 }
  - { offset: 0x4A92D, size: 0x8, addend: 0x0, symName: '__ZN4pyo35impl_10trampoline7newfunc5inner28_$u7b$$u7b$closure$u7d$$u7d$17hb566d5e1b7dfeeeaE', symObjAddr: 0x0, symBinAddr: 0x1BEB8, symSize: 0x40 }
  - { offset: 0x4B214, size: 0x8, addend: 0x0, symName: __ZN5alloc6string6String3new17ha3ae39f1ab4639aaE, symObjAddr: 0x0, symBinAddr: 0x1BEF8, symSize: 0x30 }
  - { offset: 0x4B6ED, size: 0x8, addend: 0x0, symName: '__ZN65_$LT$alloc..string..String$u20$as$u20$core..ops..deref..Deref$GT$5deref17h7c6f8648ac07fc5aE', symObjAddr: 0xF0, symBinAddr: 0x1BFE8, symSize: 0x24 }
  - { offset: 0x4B749, size: 0x8, addend: 0x0, symName: __ZN5alloc6string6String3new17ha3ae39f1ab4639aaE, symObjAddr: 0x0, symBinAddr: 0x1BEF8, symSize: 0x30 }
  - { offset: 0x4B8AB, size: 0x8, addend: 0x0, symName: __ZN5alloc6string6String6as_str17h25e78d3ee17f5f4dE, symObjAddr: 0x30, symBinAddr: 0x1BF28, symSize: 0x70 }
  - { offset: 0x4BA93, size: 0x8, addend: 0x0, symName: __ZN5alloc6string6String8push_str17he0fcba874fb44fd1E, symObjAddr: 0xA0, symBinAddr: 0x1BF98, symSize: 0x50 }
  - { offset: 0x4BBF6, size: 0x8, addend: 0x0, symName: __ZN4pyo37pyclass18create_type_object18create_type_object17hf537f19f03e6ff3eE, symObjAddr: 0x0, symBinAddr: 0x1C00C, symSize: 0xEC }
  - { offset: 0x4D47F, size: 0x8, addend: 0x0, symName: __ZN4pyo37pyclass18create_type_object18create_type_object17hf537f19f03e6ff3eE, symObjAddr: 0x0, symBinAddr: 0x1C00C, symSize: 0xEC }
  - { offset: 0x4E256, size: 0x8, addend: 0x0, symName: '__ZN108_$LT$alloc..vec..Vec$LT$T$C$A$GT$..dedup_by..FillGapOnDrop$LT$T$C$A$GT$$u20$as$u20$core..ops..drop..Drop$GT$4drop17h3aa2d7186de1f44cE', symObjAddr: 0x0, symBinAddr: 0x1C0F8, symSize: 0x188 }
  - { offset: 0x4ED60, size: 0x8, addend: 0x0, symName: '__ZN4core3ptr100drop_in_place$LT$ndarray..dimension..dim..Dim$LT$ndarray..dimension..dynindeximpl..IxDynImpl$GT$$GT$17h4463ee8da19ff377E', symObjAddr: 0x400, symBinAddr: 0x1C4D4, symSize: 0x24 }
  - { offset: 0x4ED8F, size: 0x8, addend: 0x0, symName: '__ZN4core3ptr108drop_in_place$LT$alloc..vec..Vec$LT$T$C$A$GT$..dedup_by..FillGapOnDrop$LT$i32$C$alloc..alloc..Global$GT$$GT$17ha2c2f1821711c2e8E', symObjAddr: 0x448, symBinAddr: 0x1C4F8, symSize: 0x24 }
  - { offset: 0x4EDBE, size: 0x8, addend: 0x0, symName: '__ZN4core3ptr117drop_in_place$LT$core..option..Option$LT$pyo3..pyclass..guard..PyClassGuardMut$LT$_cringepack..Cringepack$GT$$GT$$GT$17h40f462cd3b1c0b6bE', symObjAddr: 0x4B4, symBinAddr: 0x1C51C, symSize: 0x44 }
  - { offset: 0x4EDED, size: 0x8, addend: 0x0, symName: '__ZN4core3ptr127drop_in_place$LT$numpy..borrow..PyReadonlyArray$LT$i64$C$ndarray..dimension..dim..Dim$LT$$u5b$usize$u3b$$u20$1$u5d$$GT$$GT$$GT$17hf6156468a1120293E', symObjAddr: 0x51C, symBinAddr: 0x1C560, symSize: 0x5C }
  - { offset: 0x4EE1C, size: 0x8, addend: 0x0, symName: '__ZN4core3ptr138drop_in_place$LT$alloc..vec..Vec$LT$usize$GT$..extend_trusted$LT$core..ops..range..Range$LT$usize$GT$$GT$..$u7b$$u7b$closure$u7d$$u7d$$GT$17hb3068b263d192a08E', symObjAddr: 0x59C, symBinAddr: 0x1C5BC, symSize: 0x24 }
  - { offset: 0x4EE4B, size: 0x8, addend: 0x0, symName: '__ZN4core3ptr147drop_in_place$LT$pyo3..instance..Bound$LT$numpy..array..PyArray$LT$i64$C$ndarray..dimension..dim..Dim$LT$$u5b$usize$u3b$$u20$1$u5d$$GT$$GT$$GT$$GT$17h01f93ba3218a5189E', symObjAddr: 0x5C0, symBinAddr: 0x1C5E0, symSize: 0x24 }
  - { offset: 0x4EE7A, size: 0x8, addend: 0x0, symName: '__ZN4core3ptr155drop_in_place$LT$numpy..borrow..PyReadonlyArray$LT$num_complex..Complex$LT$f64$GT$$C$ndarray..dimension..dim..Dim$LT$$u5b$usize$u3b$$u20$1$u5d$$GT$$GT$$GT$17hc18c009b57b9a4d7E', symObjAddr: 0x5E4, symBinAddr: 0x1C604, symSize: 0x5C }
  - { offset: 0x4EEA9, size: 0x8, addend: 0x0, symName: '__ZN4core3ptr158drop_in_place$LT$ndarray..ArrayBase$LT$ndarray..data_repr..OwnedRepr$LT$i64$GT$$C$ndarray..dimension..dim..Dim$LT$$u5b$usize$u3b$$u20$1$u5d$$GT$$C$i64$GT$$GT$17hd177c98077dce36cE', symObjAddr: 0x640, symBinAddr: 0x1C660, symSize: 0x24 }
  - { offset: 0x4EED8, size: 0x8, addend: 0x0, symName: '__ZN4core3ptr162drop_in_place$LT$ndarray..ArrayBase$LT$ndarray..data_repr..OwnedRepr$LT$usize$GT$$C$ndarray..dimension..dim..Dim$LT$$u5b$usize$u3b$$u20$1$u5d$$GT$$C$usize$GT$$GT$17hdd3a27e71d8aa1d3E', symObjAddr: 0x664, symBinAddr: 0x1C684, symSize: 0x24 }
  - { offset: 0x4EF07, size: 0x8, addend: 0x0, symName: '__ZN4core3ptr168drop_in_place$LT$core..iter..adapters..zip..Zip$LT$core..slice..iter..Iter$LT$usize$GT$$C$alloc..vec..into_iter..IntoIter$LT$num_complex..Complex$LT$f64$GT$$GT$$GT$$GT$17h5f495546e72ec228E', symObjAddr: 0x688, symBinAddr: 0x1C6A8, symSize: 0x24 }
  - { offset: 0x4EF36, size: 0x8, addend: 0x0, symName: '__ZN4core3ptr172drop_in_place$LT$pyo3..instance..Py$LT$numpy..array..PyArray$LT$num_complex..Complex$LT$f64$GT$$C$ndarray..dimension..dim..Dim$LT$$u5b$usize$u3b$$u20$1$u5d$$GT$$GT$$GT$$GT$17h79e98acb5fab33c9E', symObjAddr: 0x6AC, symBinAddr: 0x1C6CC, symSize: 0x24 }
  - { offset: 0x4EF65, size: 0x8, addend: 0x0, symName: '__ZN4core3ptr175drop_in_place$LT$pyo3..instance..Bound$LT$numpy..array..PyArray$LT$num_complex..Complex$LT$f64$GT$$C$ndarray..dimension..dim..Dim$LT$$u5b$usize$u3b$$u20$1$u5d$$GT$$GT$$GT$$GT$17h2802bfdfae8a111aE', symObjAddr: 0x6D0, symBinAddr: 0x1C6F0, symSize: 0x24 }
  - { offset: 0x4EF94, size: 0x8, addend: 0x0, symName: '__ZN4core3ptr185drop_in_place$LT$$LT$alloc..vec..into_iter..IntoIter$LT$T$C$A$GT$$u20$as$u20$core..ops..drop..Drop$GT$..drop..DropGuard$LT$num_complex..Complex$LT$f64$GT$$C$alloc..alloc..Global$GT$$GT$17h21488368221931dfE', symObjAddr: 0x6F4, symBinAddr: 0x1C714, symSize: 0x24 }
  - { offset: 0x4EFC3, size: 0x8, addend: 0x0, symName: '__ZN4core3ptr186drop_in_place$LT$$LP$pyo3..instance..Py$LT$numpy..array..PyArray$LT$num_complex..Complex$LT$f64$GT$$C$ndarray..dimension..dim..Dim$LT$$u5b$usize$u3b$$u20$1$u5d$$GT$$GT$$GT$$C$i64$RP$$GT$17h020f6e88a6273937E', symObjAddr: 0x718, symBinAddr: 0x1C738, symSize: 0x24 }
  - { offset: 0x4EFF2, size: 0x8, addend: 0x0, symName: '__ZN4core3ptr188drop_in_place$LT$$LT$T$u20$as$u20$alloc..slice..$LT$impl$u20$$u5b$T$u5d$$GT$..to_vec_in..ConvertVec$GT$..to_vec..DropGuard$LT$num_complex..Complex$LT$f64$GT$$C$alloc..alloc..Global$GT$$GT$17h892e0bb81003227cE', symObjAddr: 0x73C, symBinAddr: 0x1C75C, symSize: 0x24 }
  - { offset: 0x4F021, size: 0x8, addend: 0x0, symName: '__ZN4core3ptr214drop_in_place$LT$ndarray..ArrayBase$LT$ndarray..data_repr..OwnedRepr$LT$num_complex..Complex$LT$f64$GT$$GT$$C$ndarray..dimension..dim..Dim$LT$$u5b$usize$u3b$$u20$1$u5d$$GT$$C$num_complex..Complex$LT$f64$GT$$GT$$GT$17hcb99bd3c281def72E', symObjAddr: 0x760, symBinAddr: 0x1C780, symSize: 0x24 }
  - { offset: 0x4F050, size: 0x8, addend: 0x0, symName: '__ZN4core3ptr233drop_in_place$LT$core..result..Result$LT$$LP$pyo3..instance..Py$LT$numpy..array..PyArray$LT$num_complex..Complex$LT$f64$GT$$C$ndarray..dimension..dim..Dim$LT$$u5b$usize$u3b$$u20$1$u5d$$GT$$GT$$GT$$C$i64$RP$$C$pyo3..err..PyErr$GT$$GT$17h126a97b9f8fb468dE', symObjAddr: 0x784, symBinAddr: 0x1C7A4, symSize: 0x50 }
  - { offset: 0x4F07F, size: 0x8, addend: 0x0, symName: '__ZN4core3ptr237drop_in_place$LT$alloc..vec..Vec$LT$usize$GT$..extend_trusted$LT$core..iter..adapters..map..Map$LT$core..ops..range..Range$LT$usize$GT$$C$_cringepack..etree..postorder..$u7b$$u7b$closure$u7d$$u7d$$GT$$GT$..$u7b$$u7b$closure$u7d$$u7d$$GT$17hff1a70e186e9fb15E', symObjAddr: 0x7D4, symBinAddr: 0x1C7F4, symSize: 0x24 }
  - { offset: 0x4F0AE, size: 0x8, addend: 0x0, symName: '__ZN4core3ptr237drop_in_place$LT$core..iter..traits..iterator..Iterator..for_each..call$LT$usize$C$alloc..vec..Vec$LT$usize$GT$..extend_trusted$LT$core..ops..range..Range$LT$usize$GT$$GT$..$u7b$$u7b$closure$u7d$$u7d$$GT$..$u7b$$u7b$closure$u7d$$u7d$$GT$17h317a6eda9d5d4553E', symObjAddr: 0x7F8, symBinAddr: 0x1C818, symSize: 0x24 }
  - { offset: 0x4F0DD, size: 0x8, addend: 0x0, symName: '__ZN4core3ptr239drop_in_place$LT$alloc..vec..Vec$LT$usize$GT$..extend_trusted$LT$core..iter..adapters..map..Map$LT$core..slice..iter..Iter$LT$i64$GT$$C$_cringepack..etree..col_non_zeros..$u7b$$u7b$closure$u7d$$u7d$$GT$$GT$..$u7b$$u7b$closure$u7d$$u7d$$GT$17he5141d8d3f1a7d6fE', symObjAddr: 0x81C, symBinAddr: 0x1C83C, symSize: 0x24 }
  - { offset: 0x4F10C, size: 0x8, addend: 0x0, symName: '__ZN4core3ptr243drop_in_place$LT$alloc..vec..Vec$LT$usize$GT$..extend_trusted$LT$core..iter..adapters..map..Map$LT$core..slice..iter..Iter$LT$usize$GT$$C$_cringepack..pmat..PMatColumn..sort..$u7b$$u7b$closure$u7d$$u7d$$GT$$GT$..$u7b$$u7b$closure$u7d$$u7d$$GT$17hc94a1d2bddfbf78cE', symObjAddr: 0x840, symBinAddr: 0x1C860, symSize: 0x24 }
  - { offset: 0x4F13B, size: 0x8, addend: 0x0, symName: '__ZN4core3ptr247drop_in_place$LT$alloc..vec..Vec$LT$usize$GT$..extend_trusted$LT$core..iter..adapters..map..Map$LT$core..slice..iter..Iter$LT$i32$GT$$C$_cringepack..metisperm..nested_dissection..$u7b$$u7b$closure$u7d$$u7d$$GT$$GT$..$u7b$$u7b$closure$u7d$$u7d$$GT$17h8bfb70491d4bf6dcE', symObjAddr: 0x864, symBinAddr: 0x1C884, symSize: 0x24 }
  - { offset: 0x4F16A, size: 0x8, addend: 0x0, symName: '__ZN4core3ptr269drop_in_place$LT$alloc..vec..Vec$LT$num_complex..Complex$LT$f64$GT$$GT$..extend_trusted$LT$core..iter..adapters..map..Map$LT$core..slice..iter..Iter$LT$usize$GT$$C$_cringepack..pmat..PMatColumn..sort..$u7b$$u7b$closure$u7d$$u7d$$GT$$GT$..$u7b$$u7b$closure$u7d$$u7d$$GT$17h4e705c4d1a582da5E', symObjAddr: 0x888, symBinAddr: 0x1C8A8, symSize: 0x24 }
  - { offset: 0x4F199, size: 0x8, addend: 0x0, symName: '__ZN4core3ptr293drop_in_place$LT$alloc..vec..Vec$LT$num_complex..Complex$LT$f64$GT$$GT$..extend_trusted$LT$core..iter..adapters..map..Map$LT$core..slice..iter..Iter$LT$num_complex..Complex$LT$f64$GT$$GT$$C$_cringepack..linsolve..generic_lu..$u7b$$u7b$closure$u7d$$u7d$$GT$$GT$..$u7b$$u7b$closure$u7d$$u7d$$GT$17h5d9efda93d378119E', symObjAddr: 0x8AC, symBinAddr: 0x1C8CC, symSize: 0x24 }
  - { offset: 0x4F1C8, size: 0x8, addend: 0x0, symName: '__ZN4core3ptr336drop_in_place$LT$core..iter..traits..iterator..Iterator..for_each..call$LT$usize$C$alloc..vec..Vec$LT$usize$GT$..extend_trusted$LT$core..iter..adapters..map..Map$LT$core..ops..range..Range$LT$usize$GT$$C$_cringepack..etree..postorder..$u7b$$u7b$closure$u7d$$u7d$$GT$$GT$..$u7b$$u7b$closure$u7d$$u7d$$GT$..$u7b$$u7b$closure$u7d$$u7d$$GT$17h491f0a3595b06adcE', symObjAddr: 0x8D0, symBinAddr: 0x1C8F0, symSize: 0x24 }
  - { offset: 0x4F1F7, size: 0x8, addend: 0x0, symName: '__ZN4core3ptr338drop_in_place$LT$core..iter..traits..iterator..Iterator..for_each..call$LT$usize$C$alloc..vec..Vec$LT$usize$GT$..extend_trusted$LT$core..iter..adapters..map..Map$LT$core..slice..iter..Iter$LT$i64$GT$$C$_cringepack..etree..col_non_zeros..$u7b$$u7b$closure$u7d$$u7d$$GT$$GT$..$u7b$$u7b$closure$u7d$$u7d$$GT$..$u7b$$u7b$closure$u7d$$u7d$$GT$17h09429b4fa5fce80aE', symObjAddr: 0x8F4, symBinAddr: 0x1C914, symSize: 0x24 }
  - { offset: 0x4F226, size: 0x8, addend: 0x0, symName: '__ZN4core3ptr342drop_in_place$LT$core..iter..traits..iterator..Iterator..for_each..call$LT$usize$C$alloc..vec..Vec$LT$usize$GT$..extend_trusted$LT$core..iter..adapters..map..Map$LT$core..slice..iter..Iter$LT$usize$GT$$C$_cringepack..pmat..PMatColumn..sort..$u7b$$u7b$closure$u7d$$u7d$$GT$$GT$..$u7b$$u7b$closure$u7d$$u7d$$GT$..$u7b$$u7b$closure$u7d$$u7d$$GT$17hfca758e0fa737781E', symObjAddr: 0x918, symBinAddr: 0x1C938, symSize: 0x24 }
  - { offset: 0x4F255, size: 0x8, addend: 0x0, symName: '__ZN4core3ptr346drop_in_place$LT$core..iter..traits..iterator..Iterator..for_each..call$LT$usize$C$alloc..vec..Vec$LT$usize$GT$..extend_trusted$LT$core..iter..adapters..map..Map$LT$core..slice..iter..Iter$LT$i32$GT$$C$_cringepack..metisperm..nested_dissection..$u7b$$u7b$closure$u7d$$u7d$$GT$$GT$..$u7b$$u7b$closure$u7d$$u7d$$GT$..$u7b$$u7b$closure$u7d$$u7d$$GT$17h1cf256758622d181E', symObjAddr: 0x93C, symBinAddr: 0x1C95C, symSize: 0x24 }
  - { offset: 0x4F284, size: 0x8, addend: 0x0, symName: '__ZN4core3ptr394drop_in_place$LT$core..iter..traits..iterator..Iterator..for_each..call$LT$num_complex..Complex$LT$f64$GT$$C$alloc..vec..Vec$LT$num_complex..Complex$LT$f64$GT$$GT$..extend_trusted$LT$core..iter..adapters..map..Map$LT$core..slice..iter..Iter$LT$usize$GT$$C$_cringepack..pmat..PMatColumn..sort..$u7b$$u7b$closure$u7d$$u7d$$GT$$GT$..$u7b$$u7b$closure$u7d$$u7d$$GT$..$u7b$$u7b$closure$u7d$$u7d$$GT$17h6ac668828c531425E', symObjAddr: 0x960, symBinAddr: 0x1C980, symSize: 0x24 }
  - { offset: 0x4F2B3, size: 0x8, addend: 0x0, symName: '__ZN4core3ptr418drop_in_place$LT$core..iter..traits..iterator..Iterator..for_each..call$LT$num_complex..Complex$LT$f64$GT$$C$alloc..vec..Vec$LT$num_complex..Complex$LT$f64$GT$$GT$..extend_trusted$LT$core..iter..adapters..map..Map$LT$core..slice..iter..Iter$LT$num_complex..Complex$LT$f64$GT$$GT$$C$_cringepack..linsolve..generic_lu..$u7b$$u7b$closure$u7d$$u7d$$GT$$GT$..$u7b$$u7b$closure$u7d$$u7d$$GT$..$u7b$$u7b$closure$u7d$$u7d$$GT$17h3186068e7123dfcfE', symObjAddr: 0x984, symBinAddr: 0x1C9A4, symSize: 0x24 }
  - { offset: 0x4F2E2, size: 0x8, addend: 0x0, symName: '__ZN4core3ptr44drop_in_place$LT$_cringepack..Cringepack$GT$17hed8a41633f8cbb8dE', symObjAddr: 0x9A8, symBinAddr: 0x1C9C8, symSize: 0x24 }
  - { offset: 0x4F311, size: 0x8, addend: 0x0, symName: '__ZN4core3ptr47drop_in_place$LT$_cringepack..pmat..PMatrix$GT$17hcdd395c2c7222fdeE', symObjAddr: 0x9CC, symBinAddr: 0x1C9EC, symSize: 0x90 }
  - { offset: 0x4F340, size: 0x8, addend: 0x0, symName: '__ZN4core3ptr47drop_in_place$LT$alloc..vec..Vec$LT$i32$GT$$GT$17h659171cb2cb80abfE', symObjAddr: 0xA5C, symBinAddr: 0x1CA7C, symSize: 0x5C }
  - { offset: 0x4F36F, size: 0x8, addend: 0x0, symName: '__ZN4core3ptr496drop_in_place$LT$core..iter..adapters..map..map_fold$LT$usize$C$usize$C$$LP$$RP$$C$_cringepack..etree..postorder..$u7b$$u7b$closure$u7d$$u7d$$C$core..iter..traits..iterator..Iterator..for_each..call$LT$usize$C$alloc..vec..Vec$LT$usize$GT$..extend_trusted$LT$core..iter..adapters..map..Map$LT$core..ops..range..Range$LT$usize$GT$$C$_cringepack..etree..postorder..$u7b$$u7b$closure$u7d$$u7d$$GT$$GT$..$u7b$$u7b$closure$u7d$$u7d$$GT$..$u7b$$u7b$closure$u7d$$u7d$$GT$..$u7b$$u7b$closure$u7d$$u7d$$GT$17h704655d7600f1b82E', symObjAddr: 0xAB8, symBinAddr: 0x1CAD8, symSize: 0x24 }
  - { offset: 0x4F39E, size: 0x8, addend: 0x0, symName: '__ZN4core3ptr504drop_in_place$LT$core..iter..adapters..map..map_fold$LT$$RF$i64$C$usize$C$$LP$$RP$$C$_cringepack..etree..col_non_zeros..$u7b$$u7b$closure$u7d$$u7d$$C$core..iter..traits..iterator..Iterator..for_each..call$LT$usize$C$alloc..vec..Vec$LT$usize$GT$..extend_trusted$LT$core..iter..adapters..map..Map$LT$core..slice..iter..Iter$LT$i64$GT$$C$_cringepack..etree..col_non_zeros..$u7b$$u7b$closure$u7d$$u7d$$GT$$GT$..$u7b$$u7b$closure$u7d$$u7d$$GT$..$u7b$$u7b$closure$u7d$$u7d$$GT$..$u7b$$u7b$closure$u7d$$u7d$$GT$17h1d9cbd79d7c487beE', symObjAddr: 0xADC, symBinAddr: 0x1CAFC, symSize: 0x24 }
  - { offset: 0x4F3CD, size: 0x8, addend: 0x0, symName: '__ZN4core3ptr50drop_in_place$LT$_cringepack..pmat..PMatColumn$GT$17hdcce1b801b20a68aE', symObjAddr: 0xB00, symBinAddr: 0x1CB20, symSize: 0x60 }
  - { offset: 0x4F3FC, size: 0x8, addend: 0x0, symName: '__ZN4core3ptr512drop_in_place$LT$core..iter..adapters..map..map_fold$LT$$RF$usize$C$usize$C$$LP$$RP$$C$_cringepack..pmat..PMatColumn..sort..$u7b$$u7b$closure$u7d$$u7d$$C$core..iter..traits..iterator..Iterator..for_each..call$LT$usize$C$alloc..vec..Vec$LT$usize$GT$..extend_trusted$LT$core..iter..adapters..map..Map$LT$core..slice..iter..Iter$LT$usize$GT$$C$_cringepack..pmat..PMatColumn..sort..$u7b$$u7b$closure$u7d$$u7d$$GT$$GT$..$u7b$$u7b$closure$u7d$$u7d$$GT$..$u7b$$u7b$closure$u7d$$u7d$$GT$..$u7b$$u7b$closure$u7d$$u7d$$GT$17h6a1276d321a839b0E', symObjAddr: 0xB60, symBinAddr: 0x1CB80, symSize: 0x24 }
  - { offset: 0x4F42B, size: 0x8, addend: 0x0, symName: '__ZN4core3ptr51drop_in_place$LT$_cringepack..perm..Permutation$GT$17h426e552b3692580cE', symObjAddr: 0xB84, symBinAddr: 0x1CBA4, symSize: 0x60 }
  - { offset: 0x4F45A, size: 0x8, addend: 0x0, symName: '__ZN4core3ptr520drop_in_place$LT$core..iter..adapters..map..map_fold$LT$$RF$i32$C$usize$C$$LP$$RP$$C$_cringepack..metisperm..nested_dissection..$u7b$$u7b$closure$u7d$$u7d$$C$core..iter..traits..iterator..Iterator..for_each..call$LT$usize$C$alloc..vec..Vec$LT$usize$GT$..extend_trusted$LT$core..iter..adapters..map..Map$LT$core..slice..iter..Iter$LT$i32$GT$$C$_cringepack..metisperm..nested_dissection..$u7b$$u7b$closure$u7d$$u7d$$GT$$GT$..$u7b$$u7b$closure$u7d$$u7d$$GT$..$u7b$$u7b$closure$u7d$$u7d$$GT$..$u7b$$u7b$closure$u7d$$u7d$$GT$17h0674120b95744fcfE', symObjAddr: 0xBE4, symBinAddr: 0x1CC04, symSize: 0x24 }
  - { offset: 0x4F489, size: 0x8, addend: 0x0, symName: '__ZN4core3ptr54drop_in_place$LT$_cringepack..sparse..CCMatrixView$GT$17h577b9eae2e4f071fE', symObjAddr: 0xC2C, symBinAddr: 0x1CC28, symSize: 0x60 }
  - { offset: 0x4F4B8, size: 0x8, addend: 0x0, symName: '__ZN4core3ptr54drop_in_place$LT$_cringepack..symbolic..CCSymbolic$GT$17h0e713041c4f4c020E', symObjAddr: 0xC8C, symBinAddr: 0x1CC88, symSize: 0xC0 }
  - { offset: 0x4F4E7, size: 0x8, addend: 0x0, symName: '__ZN4core3ptr54drop_in_place$LT$alloc..raw_vec..RawVec$LT$i32$GT$$GT$17h519c86db6ca7c48bE', symObjAddr: 0xD4C, symBinAddr: 0x1CD48, symSize: 0x24 }
  - { offset: 0x4F516, size: 0x8, addend: 0x0, symName: '__ZN4core3ptr55drop_in_place$LT$_cringepack..sparse..CCMatrixOwned$GT$17h1b04276cb0bd2060E', symObjAddr: 0xD70, symBinAddr: 0x1CD6C, symSize: 0x90 }
  - { offset: 0x4F545, size: 0x8, addend: 0x0, symName: '__ZN4core3ptr56drop_in_place$LT$_cringepack..linsolve..SparseSolver$GT$17h32637a801dcfd986E', symObjAddr: 0xE00, symBinAddr: 0x1CDFC, symSize: 0x11C }
  - { offset: 0x4F574, size: 0x8, addend: 0x0, symName: '__ZN4core3ptr57drop_in_place$LT$$u5b$alloc..vec..Vec$LT$i32$GT$$u5d$$GT$17h3edf87ea92e58b2fE', symObjAddr: 0xF1C, symBinAddr: 0x1CF18, symSize: 0xC4 }
  - { offset: 0x4F5A3, size: 0x8, addend: 0x0, symName: '__ZN4core3ptr590drop_in_place$LT$core..iter..adapters..map..map_fold$LT$$RF$usize$C$num_complex..Complex$LT$f64$GT$$C$$LP$$RP$$C$_cringepack..pmat..PMatColumn..sort..$u7b$$u7b$closure$u7d$$u7d$$C$core..iter..traits..iterator..Iterator..for_each..call$LT$num_complex..Complex$LT$f64$GT$$C$alloc..vec..Vec$LT$num_complex..Complex$LT$f64$GT$$GT$..extend_trusted$LT$core..iter..adapters..map..Map$LT$core..slice..iter..Iter$LT$usize$GT$$C$_cringepack..pmat..PMatColumn..sort..$u7b$$u7b$closure$u7d$$u7d$$GT$$GT$..$u7b$$u7b$closure$u7d$$u7d$$GT$..$u7b$$u7b$closure$u7d$$u7d$$GT$..$u7b$$u7b$closure$u7d$$u7d$$GT$17h12cb0cc20dae2b59E', symObjAddr: 0xFE0, symBinAddr: 0x1CFDC, symSize: 0x24 }
  - { offset: 0x4F5D2, size: 0x8, addend: 0x0, symName: '__ZN4core3ptr60drop_in_place$LT$$u5b$_cringepack..pmat..PMatColumn$u5d$$GT$17h87735255ca30f40fE', symObjAddr: 0x1004, symBinAddr: 0x1D000, symSize: 0xC4 }
  - { offset: 0x4F601, size: 0x8, addend: 0x0, symName: '__ZN4core3ptr61drop_in_place$LT$ndarray..data_repr..OwnedRepr$LT$i64$GT$$GT$17heb67071ef8231efaE', symObjAddr: 0x10C8, symBinAddr: 0x1D0C4, symSize: 0x24 }
  - { offset: 0x4F630, size: 0x8, addend: 0x0, symName: '__ZN4core3ptr638drop_in_place$LT$core..iter..adapters..map..map_fold$LT$$RF$num_complex..Complex$LT$f64$GT$$C$num_complex..Complex$LT$f64$GT$$C$$LP$$RP$$C$_cringepack..linsolve..generic_lu..$u7b$$u7b$closure$u7d$$u7d$$C$core..iter..traits..iterator..Iterator..for_each..call$LT$num_complex..Complex$LT$f64$GT$$C$alloc..vec..Vec$LT$num_complex..Complex$LT$f64$GT$$GT$..extend_trusted$LT$core..iter..adapters..map..Map$LT$core..slice..iter..Iter$LT$num_complex..Complex$LT$f64$GT$$GT$$C$_cringepack..linsolve..generic_lu..$u7b$$u7b$closure$u7d$$u7d$$GT$$GT$..$u7b$$u7b$closure$u7d$$u7d$$GT$..$u7b$$u7b$closure$u7d$$u7d$$GT$..$u7b$$u7b$closure$u7d$$u7d$$GT$17he533c591169dd664E', symObjAddr: 0x10EC, symBinAddr: 0x1D0E8, symSize: 0x24 }
  - { offset: 0x4F65F, size: 0x8, addend: 0x0, symName: '__ZN4core3ptr63drop_in_place$LT$ndarray..data_repr..OwnedRepr$LT$usize$GT$$GT$17h3a8f9dc634facbc4E', symObjAddr: 0x1110, symBinAddr: 0x1D10C, symSize: 0x24 }
  - { offset: 0x4F68E, size: 0x8, addend: 0x0, symName: '__ZN4core3ptr64drop_in_place$LT$ndarray..dimension..dynindeximpl..IxDynImpl$GT$17h85041ab87086c7abE', symObjAddr: 0x1134, symBinAddr: 0x1D130, symSize: 0x24 }
  - { offset: 0x4F6BD, size: 0x8, addend: 0x0, symName: '__ZN4core3ptr70drop_in_place$LT$alloc..vec..Vec$LT$alloc..vec..Vec$LT$i32$GT$$GT$$GT$17h117328e9fc1e54adE', symObjAddr: 0x1158, symBinAddr: 0x1D154, symSize: 0x5C }
  - { offset: 0x4F6EC, size: 0x8, addend: 0x0, symName: '__ZN4core3ptr73drop_in_place$LT$alloc..vec..Vec$LT$_cringepack..pmat..PMatColumn$GT$$GT$17h703cd328ba871bd5E', symObjAddr: 0x11B4, symBinAddr: 0x1D1B0, symSize: 0x5C }
  - { offset: 0x4F71B, size: 0x8, addend: 0x0, symName: '__ZN4core3ptr74drop_in_place$LT$core..cell..UnsafeCell$LT$_cringepack..Cringepack$GT$$GT$17h70f896e1c4812daaE', symObjAddr: 0x1210, symBinAddr: 0x1D20C, symSize: 0x24 }
  - { offset: 0x4F74A, size: 0x8, addend: 0x0, symName: '__ZN4core3ptr75drop_in_place$LT$alloc..vec..Vec$LT$num_complex..Complex$LT$f64$GT$$GT$$GT$17hed07d2f2ce0f9220E', symObjAddr: 0x1234, symBinAddr: 0x1D230, symSize: 0x5C }
  - { offset: 0x4F779, size: 0x8, addend: 0x0, symName: '__ZN4core3ptr76drop_in_place$LT$core..slice..sort..stable..merge..MergeState$LT$i32$GT$$GT$17h88cb1cd65f11321dE', symObjAddr: 0x1290, symBinAddr: 0x1D28C, symSize: 0x24 }
  - { offset: 0x4F7A8, size: 0x8, addend: 0x0, symName: '__ZN4core3ptr77drop_in_place$LT$alloc..raw_vec..RawVec$LT$alloc..vec..Vec$LT$i32$GT$$GT$$GT$17hb0b06f58a990d255E', symObjAddr: 0x12B4, symBinAddr: 0x1D2B0, symSize: 0x24 }
  - { offset: 0x4F7D7, size: 0x8, addend: 0x0, symName: '__ZN4core3ptr78drop_in_place$LT$core..slice..sort..stable..merge..MergeState$LT$usize$GT$$GT$17hd898c0d317f3b987E', symObjAddr: 0x12D8, symBinAddr: 0x1D2D4, symSize: 0x24 }
  - { offset: 0x4F806, size: 0x8, addend: 0x0, symName: '__ZN4core3ptr80drop_in_place$LT$alloc..raw_vec..RawVec$LT$_cringepack..pmat..PMatColumn$GT$$GT$17he88ea277abd64892E', symObjAddr: 0x12FC, symBinAddr: 0x1D2F8, symSize: 0x24 }
  - { offset: 0x4F835, size: 0x8, addend: 0x0, symName: '__ZN4core3ptr80drop_in_place$LT$core..slice..sort..shared..smallsort..CopyOnDrop$LT$i32$GT$$GT$17h211ffc684ce51f2bE', symObjAddr: 0x1320, symBinAddr: 0x1D31C, symSize: 0x24 }
  - { offset: 0x4F864, size: 0x8, addend: 0x0, symName: '__ZN4core3ptr82drop_in_place$LT$alloc..raw_vec..RawVec$LT$num_complex..Complex$LT$f64$GT$$GT$$GT$17h3fb051e308f59fa1E', symObjAddr: 0x1344, symBinAddr: 0x1D340, symSize: 0x24 }
  - { offset: 0x4F893, size: 0x8, addend: 0x0, symName: '__ZN4core3ptr82drop_in_place$LT$core..slice..sort..shared..smallsort..CopyOnDrop$LT$usize$GT$$GT$17ha8f3063c227dc77aE', symObjAddr: 0x1368, symBinAddr: 0x1D364, symSize: 0x24 }
  - { offset: 0x4F8C2, size: 0x8, addend: 0x0, symName: '__ZN4core3ptr89drop_in_place$LT$ndarray..data_repr..OwnedRepr$LT$num_complex..Complex$LT$f64$GT$$GT$$GT$17hecaa9ea7f07e55a6E', symObjAddr: 0x138C, symBinAddr: 0x1D388, symSize: 0x24 }
  - { offset: 0x4F8F1, size: 0x8, addend: 0x0, symName: '__ZN4core3ptr89drop_in_place$LT$pyo3..pyclass..guard..PyClassGuardMut$LT$_cringepack..Cringepack$GT$$GT$17h735187485d57e339E', symObjAddr: 0x13B0, symBinAddr: 0x1D3AC, symSize: 0x24 }
  - { offset: 0x4F920, size: 0x8, addend: 0x0, symName: '__ZN4core3ptr90drop_in_place$LT$pyo3..pyclass_init..PyClassInitializer$LT$_cringepack..Cringepack$GT$$GT$17h89d2d5b6eec224e7E', symObjAddr: 0x13D4, symBinAddr: 0x1D3D0, symSize: 0x24 }
  - { offset: 0x4F94F, size: 0x8, addend: 0x0, symName: '__ZN4core3ptr91drop_in_place$LT$alloc..vec..into_iter..IntoIter$LT$num_complex..Complex$LT$f64$GT$$GT$$GT$17hfc17d494d1bd30dbE', symObjAddr: 0x13F8, symBinAddr: 0x1D3F4, symSize: 0x24 }
  - { offset: 0x4FD2C, size: 0x8, addend: 0x0, symName: __ZN4core3ops8function5FnMut8call_mut17hc7f6873108f7763eE, symObjAddr: 0x224, symBinAddr: 0x1C31C, symSize: 0x28 }
  - { offset: 0x4FD70, size: 0x8, addend: 0x0, symName: __ZN4core3ops8function5FnMut8call_mut17hd1600c5eef937cafE, symObjAddr: 0x24C, symBinAddr: 0x1C344, symSize: 0x24 }
  - { offset: 0x4FDD1, size: 0x8, addend: 0x0, symName: __ZN4core3ops8function5FnMut8call_mut17he10fdfedfa0f6d71E, symObjAddr: 0x270, symBinAddr: 0x1C368, symSize: 0x24 }
  - { offset: 0x4FE32, size: 0x8, addend: 0x0, symName: __ZN4core3ops8function5FnMut8call_mut17he14c85e7d9391b4eE, symObjAddr: 0x294, symBinAddr: 0x1C38C, symSize: 0x40 }
  - { offset: 0x4FEA1, size: 0x8, addend: 0x0, symName: __ZN4core3ops8function6FnOnce9call_once17h22d0b428f6dbec94E, symObjAddr: 0x2F8, symBinAddr: 0x1C3CC, symSize: 0x24 }
  - { offset: 0x4FEE5, size: 0x8, addend: 0x0, symName: __ZN4core3ops8function6FnOnce9call_once17h4aa4a955512f3893E, symObjAddr: 0x31C, symBinAddr: 0x1C3F0, symSize: 0x4C }
  - { offset: 0x4FF29, size: 0x8, addend: 0x0, symName: __ZN4core3ops8function6FnOnce9call_once17h8802fdb94f3cfb4dE, symObjAddr: 0x368, symBinAddr: 0x1C43C, symSize: 0x24 }
  - { offset: 0x4FF6D, size: 0x8, addend: 0x0, symName: __ZN4core3ops8function6FnOnce9call_once17hc3a4a796324dc8abE, symObjAddr: 0x38C, symBinAddr: 0x1C460, symSize: 0x48 }
  - { offset: 0x4FFB1, size: 0x8, addend: 0x0, symName: __ZN4core3ops8function6FnOnce9call_once17hf3440cc6bc42df54E, symObjAddr: 0x3D4, symBinAddr: 0x1C4A8, symSize: 0x2C }
  - { offset: 0x50C1D, size: 0x8, addend: 0x0, symName: '__ZN95_$LT$core..slice..sort..stable..merge..MergeState$LT$T$GT$$u20$as$u20$core..ops..drop..Drop$GT$4drop17h210bde24e222e511E', symObjAddr: 0x1B80, symBinAddr: 0x1DB34, symSize: 0xD0 }
  - { offset: 0x50D12, size: 0x8, addend: 0x0, symName: '__ZN95_$LT$core..slice..sort..stable..merge..MergeState$LT$T$GT$$u20$as$u20$core..ops..drop..Drop$GT$4drop17h4b91d69843406591E', symObjAddr: 0x1C50, symBinAddr: 0x1DC04, symSize: 0xD0 }
  - { offset: 0x50E85, size: 0x8, addend: 0x0, symName: '__ZN99_$LT$core..slice..sort..shared..smallsort..CopyOnDrop$LT$T$GT$$u20$as$u20$core..ops..drop..Drop$GT$4drop17h32c8b46ef8e03581E', symObjAddr: 0x1D58, symBinAddr: 0x1DCD4, symSize: 0x84 }
  - { offset: 0x50EE6, size: 0x8, addend: 0x0, symName: '__ZN99_$LT$core..slice..sort..shared..smallsort..CopyOnDrop$LT$T$GT$$u20$as$u20$core..ops..drop..Drop$GT$4drop17hb818c60827e2f0b2E', symObjAddr: 0x1DDC, symBinAddr: 0x1DD58, symSize: 0x84 }
  - { offset: 0x51AE3, size: 0x8, addend: 0x0, symName: '__ZN77_$LT$alloc..raw_vec..RawVec$LT$T$C$A$GT$$u20$as$u20$core..ops..drop..Drop$GT$4drop17h04547db832f17683E', symObjAddr: 0x1884, symBinAddr: 0x1D838, symSize: 0x30 }
  - { offset: 0x51B1F, size: 0x8, addend: 0x0, symName: '__ZN77_$LT$alloc..raw_vec..RawVec$LT$T$C$A$GT$$u20$as$u20$core..ops..drop..Drop$GT$4drop17h2e3d3095c0fdf218E', symObjAddr: 0x18B4, symBinAddr: 0x1D868, symSize: 0x34 }
  - { offset: 0x51B5B, size: 0x8, addend: 0x0, symName: '__ZN77_$LT$alloc..raw_vec..RawVec$LT$T$C$A$GT$$u20$as$u20$core..ops..drop..Drop$GT$4drop17h5b58598ded81e330E', symObjAddr: 0x18E8, symBinAddr: 0x1D89C, symSize: 0x34 }
  - { offset: 0x51B97, size: 0x8, addend: 0x0, symName: '__ZN77_$LT$alloc..raw_vec..RawVec$LT$T$C$A$GT$$u20$as$u20$core..ops..drop..Drop$GT$4drop17h986bfd36bdb96683E', symObjAddr: 0x191C, symBinAddr: 0x1D8D0, symSize: 0x34 }
  - { offset: 0x51CFE, size: 0x8, addend: 0x0, symName: '__ZN108_$LT$alloc..vec..Vec$LT$T$C$A$GT$..dedup_by..FillGapOnDrop$LT$T$C$A$GT$$u20$as$u20$core..ops..drop..Drop$GT$4drop17h3aa2d7186de1f44cE', symObjAddr: 0x0, symBinAddr: 0x1C0F8, symSize: 0x188 }
  - { offset: 0x51FEF, size: 0x8, addend: 0x0, symName: '__ZN157_$LT$$LT$alloc..vec..into_iter..IntoIter$LT$T$C$A$GT$$u20$as$u20$core..ops..drop..Drop$GT$..drop..DropGuard$LT$T$C$A$GT$$u20$as$u20$core..ops..drop..Drop$GT$4drop17he652cae0c6de0084E', symObjAddr: 0x188, symBinAddr: 0x1C280, symSize: 0x6C }
  - { offset: 0x5215B, size: 0x8, addend: 0x0, symName: '__ZN86_$LT$alloc..vec..into_iter..IntoIter$LT$T$C$A$GT$$u20$as$u20$core..ops..drop..Drop$GT$4drop17h28aa145d15218d19E', symObjAddr: 0x1AF0, symBinAddr: 0x1DAA4, symSize: 0x64 }
  - { offset: 0x52272, size: 0x8, addend: 0x0, symName: '__ZN70_$LT$alloc..vec..Vec$LT$T$C$A$GT$$u20$as$u20$core..ops..drop..Drop$GT$4drop17h829fc643c8f89c52E', symObjAddr: 0x148C, symBinAddr: 0x1D440, symSize: 0x24 }
  - { offset: 0x52322, size: 0x8, addend: 0x0, symName: '__ZN70_$LT$alloc..vec..Vec$LT$T$C$A$GT$$u20$as$u20$core..ops..drop..Drop$GT$4drop17h9d44745dc30c7bbeE', symObjAddr: 0x14B0, symBinAddr: 0x1D464, symSize: 0x38 }
  - { offset: 0x523D2, size: 0x8, addend: 0x0, symName: '__ZN70_$LT$alloc..vec..Vec$LT$T$C$A$GT$$u20$as$u20$core..ops..drop..Drop$GT$4drop17hbbbbf3b45f2debf3E', symObjAddr: 0x14E8, symBinAddr: 0x1D49C, symSize: 0x24 }
  - { offset: 0x52482, size: 0x8, addend: 0x0, symName: '__ZN70_$LT$alloc..vec..Vec$LT$T$C$A$GT$$u20$as$u20$core..ops..drop..Drop$GT$4drop17hd92202631eda4d55E', symObjAddr: 0x150C, symBinAddr: 0x1D4C0, symSize: 0x38 }
  - { offset: 0x52773, size: 0x8, addend: 0x0, symName: '__ZN160_$LT$$LT$T$u20$as$u20$alloc..slice..$LT$impl$u20$$u5b$T$u5d$$GT$..to_vec_in..ConvertVec$GT$..to_vec..DropGuard$LT$T$C$A$GT$$u20$as$u20$core..ops..drop..Drop$GT$4drop17h25eab8752bfe781eE', symObjAddr: 0x1F4, symBinAddr: 0x1C2EC, symSize: 0x30 }
  - { offset: 0x52AF4, size: 0x8, addend: 0x0, symName: '__ZN69_$LT$pyo3..instance..Py$LT$T$GT$$u20$as$u20$core..ops..drop..Drop$GT$4drop17hbb14272dd790d326E', symObjAddr: 0x1464, symBinAddr: 0x1D418, symSize: 0x28 }
  - { offset: 0x52B2D, size: 0x8, addend: 0x0, symName: '__ZN72_$LT$pyo3..instance..Bound$LT$T$GT$$u20$as$u20$core..ops..drop..Drop$GT$4drop17h41f538ea3a8a76dcE', symObjAddr: 0x1544, symBinAddr: 0x1D4F8, symSize: 0x1A0 }
  - { offset: 0x52B9C, size: 0x8, addend: 0x0, symName: '__ZN72_$LT$pyo3..instance..Bound$LT$T$GT$$u20$as$u20$core..ops..drop..Drop$GT$4drop17h715c3febcb2fe22cE', symObjAddr: 0x16E4, symBinAddr: 0x1D698, symSize: 0x1A0 }
  - { offset: 0x52D96, size: 0x8, addend: 0x0, symName: '__ZN88_$LT$pyo3..pyclass..guard..PyClassGuardMut$LT$T$GT$$u20$as$u20$core..ops..drop..Drop$GT$4drop17h0be69f9f077d6fe3E', symObjAddr: 0x1B54, symBinAddr: 0x1DB08, symSize: 0x2C }
  - { offset: 0x536D1, size: 0x8, addend: 0x0, symName: '__ZN80_$LT$ndarray..data_repr..OwnedRepr$LT$A$GT$$u20$as$u20$core..ops..drop..Drop$GT$4drop17h7ad2c07e9b8516ebE', symObjAddr: 0x1950, symBinAddr: 0x1D904, symSize: 0x68 }
  - { offset: 0x53702, size: 0x8, addend: 0x0, symName: '__ZN80_$LT$ndarray..data_repr..OwnedRepr$LT$A$GT$$u20$as$u20$core..ops..drop..Drop$GT$4drop17he0cec8026e6f34fcE', symObjAddr: 0x19B8, symBinAddr: 0x1D96C, symSize: 0x68 }
  - { offset: 0x53733, size: 0x8, addend: 0x0, symName: '__ZN80_$LT$ndarray..data_repr..OwnedRepr$LT$A$GT$$u20$as$u20$core..ops..drop..Drop$GT$4drop17heefe90462a6628deE', symObjAddr: 0x1A20, symBinAddr: 0x1D9D4, symSize: 0x68 }
  - { offset: 0x53AFF, size: 0x8, addend: 0x0, symName: '__ZN85_$LT$numpy..borrow..PyReadonlyArray$LT$T$C$D$GT$$u20$as$u20$core..ops..drop..Drop$GT$4drop17h002f6d36daefbd7bE', symObjAddr: 0x1A88, symBinAddr: 0x1DA3C, symSize: 0x34 }
  - { offset: 0x53B3B, size: 0x8, addend: 0x0, symName: '__ZN85_$LT$numpy..borrow..PyReadonlyArray$LT$T$C$D$GT$$u20$as$u20$core..ops..drop..Drop$GT$4drop17h09348114cdf8f99fE', symObjAddr: 0x1ABC, symBinAddr: 0x1DA70, symSize: 0x34 }
  - { offset: 0x54623, size: 0x8, addend: 0x0, symName: '__ZN7ndarray9dimension15dimension_trait9Dimension15fortran_strides28_$u7b$$u7b$closure$u7d$$u7d$17hc438ccc742c428aeE', symObjAddr: 0x0, symBinAddr: 0x1DDDC, symSize: 0x28 }
  - { offset: 0x54649, size: 0x8, addend: 0x0, symName: '__ZN7ndarray9dimension15dimension_trait9Dimension15fortran_strides28_$u7b$$u7b$closure$u7d$$u7d$17hc438ccc742c428aeE', symObjAddr: 0x0, symBinAddr: 0x1DDDC, symSize: 0x28 }
  - { offset: 0x5472B, size: 0x8, addend: 0x0, symName: '__ZN11_cringepack5etree13col_non_zeros28_$u7b$$u7b$closure$u7d$$u7d$17h6112a0dd7bfd985bE', symObjAddr: 0x0, symBinAddr: 0x1DE04, symSize: 0x20 }
  - { offset: 0x54747, size: 0x8, addend: 0x0, symName: '__ZN11_cringepack5etree13col_non_zeros28_$u7b$$u7b$closure$u7d$$u7d$17h6112a0dd7bfd985bE', symObjAddr: 0x0, symBinAddr: 0x1DE04, symSize: 0x20 }
  - { offset: 0x54786, size: 0x8, addend: 0x0, symName: '__ZN11_cringepack5etree9postorder28_$u7b$$u7b$closure$u7d$$u7d$17hf946d39efbbfed78E', symObjAddr: 0x20, symBinAddr: 0x1DE24, symSize: 0xC0 }
  - { offset: 0x549CA, size: 0x8, addend: 0x0, symName: '__ZN129_$LT$ndarray..dimension..dim..Dim$LT$$u5b$usize$u3b$$u20$1$u5d$$GT$$u20$as$u20$ndarray..dimension..dimension_trait..Dimension$GT$11first_index17h4817cea83d74c56aE', symObjAddr: 0x0, symBinAddr: 0x1DEE4, symSize: 0x90 }
  - { offset: 0x54B4A, size: 0x8, addend: 0x0, symName: '__ZN129_$LT$ndarray..dimension..dim..Dim$LT$$u5b$usize$u3b$$u20$1$u5d$$GT$$u20$as$u20$ndarray..dimension..dimension_trait..Dimension$GT$11first_index17h4817cea83d74c56aE', symObjAddr: 0x0, symBinAddr: 0x1DEE4, symSize: 0x90 }
  - { offset: 0x54B96, size: 0x8, addend: 0x0, symName: '__ZN129_$LT$ndarray..dimension..dim..Dim$LT$$u5b$usize$u3b$$u20$1$u5d$$GT$$u20$as$u20$ndarray..dimension..dimension_trait..Dimension$GT$15default_strides17hb865d36ace64939aE', symObjAddr: 0x90, symBinAddr: 0x1DF74, symSize: 0xAC }
  - { offset: 0x54C00, size: 0x8, addend: 0x0, symName: '__ZN129_$LT$ndarray..dimension..dim..Dim$LT$$u5b$usize$u3b$$u20$1$u5d$$GT$$u20$as$u20$ndarray..dimension..dimension_trait..Dimension$GT$21stride_offset_checked17h902b3f345aaf348dE', symObjAddr: 0x13C, symBinAddr: 0x1E020, symSize: 0xCC }
  - { offset: 0x54C72, size: 0x8, addend: 0x0, symName: '__ZN129_$LT$ndarray..dimension..dim..Dim$LT$$u5b$usize$u3b$$u20$1$u5d$$GT$$u20$as$u20$ndarray..dimension..dimension_trait..Dimension$GT$29_fastest_varying_stride_order17ha6b16706077272d4E', symObjAddr: 0x208, symBinAddr: 0x1E0EC, symSize: 0x54 }
  - { offset: 0x54CBE, size: 0x8, addend: 0x0, symName: '__ZN129_$LT$ndarray..dimension..dim..Dim$LT$$u5b$usize$u3b$$u20$1$u5d$$GT$$u20$as$u20$ndarray..dimension..dimension_trait..Dimension$GT$4ndim17h59cc0b98fed6ad29E', symObjAddr: 0x25C, symBinAddr: 0x1E140, symSize: 0x18 }
  - { offset: 0x54CEC, size: 0x8, addend: 0x0, symName: '__ZN129_$LT$ndarray..dimension..dim..Dim$LT$$u5b$usize$u3b$$u20$1$u5d$$GT$$u20$as$u20$ndarray..dimension..dimension_trait..Dimension$GT$4size17hd8cf3e4b614939efE', symObjAddr: 0x274, symBinAddr: 0x1E158, symSize: 0x20 }
  - { offset: 0x54D1A, size: 0x8, addend: 0x0, symName: '__ZN129_$LT$ndarray..dimension..dim..Dim$LT$$u5b$usize$u3b$$u20$1$u5d$$GT$$u20$as$u20$ndarray..dimension..dimension_trait..Dimension$GT$5equal17hbaae7e695637273dE', symObjAddr: 0x294, symBinAddr: 0x1E178, symSize: 0x3C }
  - { offset: 0x54D57, size: 0x8, addend: 0x0, symName: '__ZN129_$LT$ndarray..dimension..dim..Dim$LT$$u5b$usize$u3b$$u20$1$u5d$$GT$$u20$as$u20$ndarray..dimension..dimension_trait..Dimension$GT$5slice17ha7d5d25859accab4E', symObjAddr: 0x2D0, symBinAddr: 0x1E1B4, symSize: 0x24 }
  - { offset: 0x54D85, size: 0x8, addend: 0x0, symName: '__ZN129_$LT$ndarray..dimension..dim..Dim$LT$$u5b$usize$u3b$$u20$1$u5d$$GT$$u20$as$u20$ndarray..dimension..dimension_trait..Dimension$GT$5zeros17hfcc13636f235d359E', symObjAddr: 0x2F4, symBinAddr: 0x1E1D8, symSize: 0x84 }
  - { offset: 0x54DFF, size: 0x8, addend: 0x0, symName: '__ZN129_$LT$ndarray..dimension..dim..Dim$LT$$u5b$usize$u3b$$u20$1$u5d$$GT$$u20$as$u20$ndarray..dimension..dimension_trait..Dimension$GT$8next_for17h412d0fe3aeafc11fE', symObjAddr: 0x378, symBinAddr: 0x1E25C, symSize: 0xB8 }
  - { offset: 0x54E3C, size: 0x8, addend: 0x0, symName: '__ZN129_$LT$ndarray..dimension..dim..Dim$LT$$u5b$usize$u3b$$u20$1$u5d$$GT$$u20$as$u20$ndarray..dimension..dimension_trait..Dimension$GT$9slice_mut17h4ccc978bde7a8b69E', symObjAddr: 0x430, symBinAddr: 0x1E314, symSize: 0x24 }
  - { offset: 0x54E70, size: 0x8, addend: 0x0, symName: '__ZN146_$LT$ndarray..dimension..dim..Dim$LT$ndarray..dimension..dynindeximpl..IxDynImpl$GT$$u20$as$u20$ndarray..dimension..dimension_trait..Dimension$GT$4ndim17h0e7a1319948d083bE', symObjAddr: 0x454, symBinAddr: 0x1E338, symSize: 0x30 }
  - { offset: 0x55057, size: 0x8, addend: 0x0, symName: __ZN11_cringepack4pmat10PMatColumn3get17h5ed23ae5bae9d220E, symObjAddr: 0x0, symBinAddr: 0x1E368, symSize: 0xDC }
  - { offset: 0x55ADA, size: 0x8, addend: 0x0, symName: __ZN11_cringepack4pmat10PMatColumn3get17h5ed23ae5bae9d220E, symObjAddr: 0x0, symBinAddr: 0x1E368, symSize: 0xDC }
  - { offset: 0x55C19, size: 0x8, addend: 0x0, symName: __ZN11_cringepack4pmat10PMatColumn3max17h9f37bcd79a2a9ea7E, symObjAddr: 0xDC, symBinAddr: 0x1E444, symSize: 0x10C }
  - { offset: 0x55C83, size: 0x8, addend: 0x0, symName: __ZN11_cringepack4pmat10PMatColumn3new17h12fb1941fa45f8deE, symObjAddr: 0x1E8, symBinAddr: 0x1E550, symSize: 0xAC }
  - { offset: 0x55CD7, size: 0x8, addend: 0x0, symName: __ZN11_cringepack4pmat10PMatColumn4sort17h8514b492d351cf65E, symObjAddr: 0x294, symBinAddr: 0x1E5FC, symSize: 0x2BC }
  - { offset: 0x55D59, size: 0x8, addend: 0x0, symName: __ZN11_cringepack4pmat10PMatColumn6ppivot17h6a9ec02a40777554E, symObjAddr: 0x550, symBinAddr: 0x1E8B8, symSize: 0x11C }
  - { offset: 0x55DB3, size: 0x8, addend: 0x0, symName: __ZN11_cringepack4pmat10PMatColumn7add_row17hd41fd42b9de0e431E, symObjAddr: 0x66C, symBinAddr: 0x1E9D4, symSize: 0x154 }
  - { offset: 0x55DFE, size: 0x8, addend: 0x0, symName: __ZN11_cringepack4pmat7PMatrix11read_column17hed83eeb8ec2d133aE, symObjAddr: 0x7C0, symBinAddr: 0x1EB28, symSize: 0x19C }
  - { offset: 0x5610F, size: 0x8, addend: 0x0, symName: __ZN11_cringepack4pmat7PMatrix11to_ccmatrix17h9cc0430dd36d2a46E, symObjAddr: 0x95C, symBinAddr: 0x1ECC4, symSize: 0x6B0 }
  - { offset: 0x563F6, size: 0x8, addend: 0x0, symName: __ZN11_cringepack4pmat7PMatrix14eliminate_rows17h4cac17ddf87e8733E, symObjAddr: 0x100C, symBinAddr: 0x1F374, symSize: 0x30C }
  - { offset: 0x56532, size: 0x8, addend: 0x0, symName: __ZN11_cringepack4pmat7PMatrix3eye17h2b998a5f2807c5c8E, symObjAddr: 0x1318, symBinAddr: 0x1F680, symSize: 0x358 }
  - { offset: 0x56653, size: 0x8, addend: 0x0, symName: __ZN11_cringepack4pmat7PMatrix3get17h1dd0707bf4e43b23E, symObjAddr: 0x1670, symBinAddr: 0x1F9D8, symSize: 0x48 }
  - { offset: 0x56691, size: 0x8, addend: 0x0, symName: __ZN11_cringepack4pmat7PMatrix3set17hf276638aec7f6accE, symObjAddr: 0x16B8, symBinAddr: 0x1FA20, symSize: 0x60 }
  - { offset: 0x566DD, size: 0x8, addend: 0x0, symName: __ZN11_cringepack4pmat7PMatrix6getcol17h01572fde972d9736E, symObjAddr: 0x1718, symBinAddr: 0x1FA80, symSize: 0x30 }
  - { offset: 0x5670D, size: 0x8, addend: 0x0, symName: __ZN11_cringepack4pmat7PMatrix6ppivot17h4e3acab05dd142aaE, symObjAddr: 0x1748, symBinAddr: 0x1FAB0, symSize: 0x94 }
  - { offset: 0x567A3, size: 0x8, addend: 0x0, symName: __ZN11_cringepack4pmat7PMatrix8iter_col17h62261e9587190907E, symObjAddr: 0x17DC, symBinAddr: 0x1FB44, symSize: 0x258 }
  - { offset: 0x5684E, size: 0x8, addend: 0x0, symName: __ZN11_cringepack4pmat7PMatrix9clear_acu17he6da8348d94d4607E, symObjAddr: 0x1A34, symBinAddr: 0x1FD9C, symSize: 0x4F0 }
  - { offset: 0x56A01, size: 0x8, addend: 0x0, symName: '__ZN11_cringepack9metisperm17nested_dissection28_$u7b$$u7b$closure$u7d$$u7d$17h22e2bde5b783bc8eE', symObjAddr: 0x0, symBinAddr: 0x2028C, symSize: 0x24 }
  - { offset: 0x56A1D, size: 0x8, addend: 0x0, symName: '__ZN11_cringepack9metisperm17nested_dissection28_$u7b$$u7b$closure$u7d$$u7d$17h22e2bde5b783bc8eE', symObjAddr: 0x0, symBinAddr: 0x2028C, symSize: 0x24 }
  - { offset: 0x56A9F, size: 0x8, addend: 0x0, symName: '__ZN108_$LT$core..iter..adapters..filter..Filter$LT$I$C$P$GT$$u20$as$u20$core..iter..traits..iterator..Iterator$GT$4fold17h26ec164d800b1f3cE', symObjAddr: 0x0, symBinAddr: 0x202B0, symSize: 0x50 }
  - { offset: 0x56C19, size: 0x8, addend: 0x0, symName: '__ZN108_$LT$core..iter..adapters..filter..Filter$LT$I$C$P$GT$$u20$as$u20$core..iter..traits..iterator..Iterator$GT$4fold17h26ec164d800b1f3cE', symObjAddr: 0x0, symBinAddr: 0x202B0, symSize: 0x50 }
  - { offset: 0x56C86, size: 0x8, addend: 0x0, symName: '__ZN108_$LT$core..iter..adapters..filter..Filter$LT$I$C$P$GT$$u20$as$u20$core..iter..traits..iterator..Iterator$GT$4next17h038d36567428ce7eE', symObjAddr: 0x50, symBinAddr: 0x20300, symSize: 0x2C }
  - { offset: 0x56CC4, size: 0x8, addend: 0x0, symName: '__ZN108_$LT$core..iter..adapters..filter..Filter$LT$I$C$P$GT$$u20$as$u20$core..iter..traits..iterator..Iterator$GT$4next17hf6fb1bf70df8c1d3E', symObjAddr: 0x7C, symBinAddr: 0x2032C, symSize: 0x2C }
  - { offset: 0x56D02, size: 0x8, addend: 0x0, symName: '__ZN108_$LT$core..iter..adapters..filter..Filter$LT$I$C$P$GT$$u20$as$u20$core..iter..traits..iterator..Iterator$GT$8try_fold17h7ac2002047d5aaebE', symObjAddr: 0xA8, symBinAddr: 0x20358, symSize: 0x34 }
  - { offset: 0x56D7D, size: 0x8, addend: 0x0, symName: '__ZN4core4iter8adapters6filter11filter_fold28_$u7b$$u7b$closure$u7d$$u7d$17hc518a2c66886c9ccE', symObjAddr: 0x220, symBinAddr: 0x204D0, symSize: 0x120 }
  - { offset: 0x56E03, size: 0x8, addend: 0x0, symName: '__ZN4core4iter8adapters6filter15filter_try_fold28_$u7b$$u7b$closure$u7d$$u7d$17hccf8145cc328db5dE', symObjAddr: 0x340, symBinAddr: 0x205F0, symSize: 0x108 }
  - { offset: 0x56FA1, size: 0x8, addend: 0x0, symName: __ZN4core4iter6traits8iterator8Iterator6max_by17h4d65af86bb8d22baE, symObjAddr: 0xDC, symBinAddr: 0x2038C, symSize: 0x1C }
  - { offset: 0x56FF1, size: 0x8, addend: 0x0, symName: __ZN4core4iter6traits8iterator8Iterator6reduce17hd3fb5fbade2168a0E, symObjAddr: 0xF8, symBinAddr: 0x203A8, symSize: 0x128 }
  - { offset: 0x570EF, size: 0x8, addend: 0x0, symName: '__ZN63_$LT$I$u20$as$u20$core..iter..traits..collect..IntoIterator$GT$9into_iter17hf5dd89a5ffb8df7cE', symObjAddr: 0x448, symBinAddr: 0x206F8, symSize: 0x14 }
  - { offset: 0x579B0, size: 0x8, addend: 0x0, symName: '__ZN135_$LT$ndarray..slice..SliceInfo$LT$T$C$Din$C$Dout$GT$$u20$as$u20$core..convert..AsRef$LT$$u5b$ndarray..slice..SliceInfoElem$u5d$$GT$$GT$6as_ref17heba4252d953101feE', symObjAddr: 0x0, symBinAddr: 0x2070C, symSize: 0x24 }
  - { offset: 0x57A17, size: 0x8, addend: 0x0, symName: '__ZN135_$LT$ndarray..slice..SliceInfo$LT$T$C$Din$C$Dout$GT$$u20$as$u20$core..convert..AsRef$LT$$u5b$ndarray..slice..SliceInfoElem$u5d$$GT$$GT$6as_ref17heba4252d953101feE', symObjAddr: 0x0, symBinAddr: 0x2070C, symSize: 0x24 }
  - { offset: 0x57A66, size: 0x8, addend: 0x0, symName: '__ZN221_$LT$ndarray..slice..SliceInfo$LT$T$C$ndarray..dimension..dim..Dim$LT$$u5b$usize$u3b$$u20$1$u5d$$GT$$C$Dout$GT$$u20$as$u20$ndarray..slice..SliceArg$LT$ndarray..dimension..dim..Dim$LT$$u5b$usize$u3b$$u20$1$u5d$$GT$$GT$$GT$7in_ndim17h0cf1b402ef81be04E', symObjAddr: 0x24, symBinAddr: 0x20730, symSize: 0x24 }
  - { offset: 0x57AA6, size: 0x8, addend: 0x0, symName: '__ZN221_$LT$ndarray..slice..SliceInfo$LT$T$C$ndarray..dimension..dim..Dim$LT$$u5b$usize$u3b$$u20$1$u5d$$GT$$C$Dout$GT$$u20$as$u20$ndarray..slice..SliceArg$LT$ndarray..dimension..dim..Dim$LT$$u5b$usize$u3b$$u20$1$u5d$$GT$$GT$$GT$8out_ndim17hcfdc2da63c5d3f79E', symObjAddr: 0x48, symBinAddr: 0x20754, symSize: 0x24 }
  - { offset: 0x57AE7, size: 0x8, addend: 0x0, symName: __ZN7ndarray5slice24check_dims_for_sliceinfo17h504aa196136ad5d3E, symObjAddr: 0x88, symBinAddr: 0x20794, symSize: 0xF4 }
  - { offset: 0x57D03, size: 0x8, addend: 0x0, symName: '__ZN4core5array92_$LT$impl$u20$core..convert..AsRef$LT$$u5b$T$u5d$$GT$$u20$for$u20$$u5b$T$u3b$$u20$N$u5d$$GT$6as_ref17hb563fb13544f86eaE', symObjAddr: 0x6C, symBinAddr: 0x20778, symSize: 0x1C }
  - { offset: 0x57E76, size: 0x8, addend: 0x0, symName: '__ZN7ndarray5slice31SliceInfo$LT$T$C$Din$C$Dout$GT$13new_unchecked17h6a04dcf6bf064524E', symObjAddr: 0x17C, symBinAddr: 0x20888, symSize: 0xA8 }
  - { offset: 0x57EF8, size: 0x8, addend: 0x0, symName: '__ZN7ndarray5slice31SliceInfo$LT$T$C$Din$C$Dout$GT$7in_ndim17h698db500ae776409E', symObjAddr: 0x224, symBinAddr: 0x20930, symSize: 0x70 }
  - { offset: 0x57F54, size: 0x8, addend: 0x0, symName: '__ZN7ndarray5slice31SliceInfo$LT$T$C$Din$C$Dout$GT$8out_ndim17hee305e4b8ed0d5a7E', symObjAddr: 0x294, symBinAddr: 0x209A0, symSize: 0x70 }
  - { offset: 0x58009, size: 0x8, addend: 0x0, symName: '__ZN11_cringepack166_$LT$impl$u20$pyo3..impl_..pyclass..PyMethods$LT$_cringepack..Cringepack$GT$$u20$for$u20$pyo3..impl_..pyclass..PyClassImplCollector$LT$_cringepack..Cringepack$GT$$GT$10py_methods17h6a006fc4011975ceE', symObjAddr: 0x0, symBinAddr: 0x20A10, symSize: 0x14 }
  - { offset: 0x596FD, size: 0x8, addend: 0x0, symName: '__ZN11_cringepack166_$LT$impl$u20$pyo3..impl_..pyclass..PyMethods$LT$_cringepack..Cringepack$GT$$u20$for$u20$pyo3..impl_..pyclass..PyClassImplCollector$LT$_cringepack..Cringepack$GT$$GT$10py_methods17h6a006fc4011975ceE', symObjAddr: 0x0, symBinAddr: 0x20A10, symSize: 0x14 }
  - { offset: 0x5A745, size: 0x8, addend: 0x0, symName: '__ZN4pyo37pyclass5guard24PyClassGuardMut$LT$T$GT$15as_class_object17h4fb1d053675ffedaE', symObjAddr: 0x0, symBinAddr: 0x20A24, symSize: 0x38 }
  - { offset: 0x5BDC7, size: 0x8, addend: 0x0, symName: '__ZN4pyo37pyclass5guard24PyClassGuardMut$LT$T$GT$21try_from_class_object28_$u7b$$u7b$closure$u7d$$u7d$17hc5f2f0a84065e3eeE', symObjAddr: 0x78, symBinAddr: 0x20A9C, symSize: 0x2C }
  - { offset: 0x5BE12, size: 0x8, addend: 0x0, symName: '__ZN93_$LT$pyo3..pyclass..guard..PyClassGuardMut$LT$T$GT$$u20$as$u20$core..ops..deref..DerefMut$GT$9deref_mut17h0102964aebe17b64E', symObjAddr: 0xCC, symBinAddr: 0x20AF0, symSize: 0x74 }
  - { offset: 0x5C768, size: 0x8, addend: 0x0, symName: '__ZN4pyo37pyclass5guard24PyClassGuardMut$LT$T$GT$15as_class_object17h4fb1d053675ffedaE', symObjAddr: 0x0, symBinAddr: 0x20A24, symSize: 0x38 }
  - { offset: 0x5C7B9, size: 0x8, addend: 0x0, symName: '__ZN4pyo37pyclass5guard24PyClassGuardMut$LT$T$GT$21try_from_class_object17h2333dfb2baebed9eE', symObjAddr: 0x38, symBinAddr: 0x20A5C, symSize: 0x40 }
  - { offset: 0x5C7FF, size: 0x8, addend: 0x0, symName: '__ZN4pyo37pyclass5guard24PyClassGuardMut$LT$T$GT$28try_borrow_mut_from_borrowed17ha983f50022a28b0dE', symObjAddr: 0xA4, symBinAddr: 0x20AC8, symSize: 0x28 }
  - { offset: 0x5C863, size: 0x8, addend: 0x0, symName: '__ZN7ndarray11arraytraits93_$LT$impl$u20$core..ops..index..Index$LT$I$GT$$u20$for$u20$ndarray..ArrayRef$LT$A$C$D$GT$$GT$5index28_$u7b$$u7b$closure$u7d$$u7d$17h2c09c98f6e70f3b3E', symObjAddr: 0x0, symBinAddr: 0x20B64, symSize: 0x10 }
  - { offset: 0x5C884, size: 0x8, addend: 0x0, symName: '__ZN7ndarray11arraytraits93_$LT$impl$u20$core..ops..index..Index$LT$I$GT$$u20$for$u20$ndarray..ArrayRef$LT$A$C$D$GT$$GT$5index28_$u7b$$u7b$closure$u7d$$u7d$17h2c09c98f6e70f3b3E', symObjAddr: 0x0, symBinAddr: 0x20B64, symSize: 0x10 }
  - { offset: 0x5C8C7, size: 0x8, addend: 0x0, symName: '__ZN7ndarray11arraytraits93_$LT$impl$u20$core..ops..index..Index$LT$I$GT$$u20$for$u20$ndarray..ArrayRef$LT$A$C$D$GT$$GT$5index28_$u7b$$u7b$closure$u7d$$u7d$17h45d99b028f99b485E', symObjAddr: 0x10, symBinAddr: 0x20B74, symSize: 0x10 }
  - { offset: 0x5C90A, size: 0x8, addend: 0x0, symName: '__ZN7ndarray11arraytraits93_$LT$impl$u20$core..ops..index..Index$LT$I$GT$$u20$for$u20$ndarray..ArrayRef$LT$A$C$D$GT$$GT$5index28_$u7b$$u7b$closure$u7d$$u7d$17hf0dd76ecdc530f11E', symObjAddr: 0x20, symBinAddr: 0x20B84, symSize: 0x10 }
  - { offset: 0x5C96E, size: 0x8, addend: 0x0, symName: '__ZN7ndarray11arraytraits96_$LT$impl$u20$core..ops..index..IndexMut$LT$I$GT$$u20$for$u20$ndarray..ArrayRef$LT$A$C$D$GT$$GT$9index_mut28_$u7b$$u7b$closure$u7d$$u7d$17h9dd06f2b8b0c964aE', symObjAddr: 0x30, symBinAddr: 0x20B94, symSize: 0x10 }
  - { offset: 0x5C9B1, size: 0x8, addend: 0x0, symName: '__ZN7ndarray11arraytraits96_$LT$impl$u20$core..ops..index..IndexMut$LT$I$GT$$u20$for$u20$ndarray..ArrayRef$LT$A$C$D$GT$$GT$9index_mut28_$u7b$$u7b$closure$u7d$$u7d$17hc762372a2502d798E', symObjAddr: 0x40, symBinAddr: 0x20BA4, symSize: 0x10 }
  - { offset: 0x5CAAE, size: 0x8, addend: 0x0, symName: '__ZN50_$LT$T$u20$as$u20$core..convert..Into$LT$U$GT$$GT$4into17had1a6c407b696094E', symObjAddr: 0x0, symBinAddr: 0x20BB4, symSize: 0x2C }
  - { offset: 0x5D2D9, size: 0x8, addend: 0x0, symName: '__ZN50_$LT$T$u20$as$u20$core..convert..Into$LT$U$GT$$GT$4into17had1a6c407b696094E', symObjAddr: 0x0, symBinAddr: 0x20BB4, symSize: 0x2C }
  - { offset: 0x5E2E6, size: 0x8, addend: 0x0, symName: '__ZN11_cringepack4pmat10PMatColumn3max28_$u7b$$u7b$closure$u7d$$u7d$17h1145a1405baec16dE', symObjAddr: 0x0, symBinAddr: 0x20BE0, symSize: 0x68 }
  - { offset: 0x5E465, size: 0x8, addend: 0x0, symName: '__ZN4core3ops8function5impls79_$LT$impl$u20$core..ops..function..FnMut$LT$A$GT$$u20$for$u20$$RF$mut$u20$F$GT$8call_mut17hf8f2ad2661a0fa39E', symObjAddr: 0x648, symBinAddr: 0x21228, symSize: 0x30 }
  - { offset: 0x5E4BA, size: 0x8, addend: 0x0, symName: '__ZN4core3ops8function5impls80_$LT$impl$u20$core..ops..function..FnOnce$LT$A$GT$$u20$for$u20$$RF$mut$u20$F$GT$9call_once17h76015612ad73b471E', symObjAddr: 0x678, symBinAddr: 0x21258, symSize: 0x34 }
  - { offset: 0x5E7BA, size: 0x8, addend: 0x0, symName: '__ZN11_cringepack4pmat10PMatColumn3max28_$u7b$$u7b$closure$u7d$$u7d$17h1145a1405baec16dE', symObjAddr: 0x0, symBinAddr: 0x20BE0, symSize: 0x68 }
  - { offset: 0x5E823, size: 0x8, addend: 0x0, symName: '__ZN11_cringepack4pmat10PMatColumn3max28_$u7b$$u7b$closure$u7d$$u7d$17h61b54f526eb5a293E', symObjAddr: 0x68, symBinAddr: 0x20C48, symSize: 0x70 }
  - { offset: 0x5E8B6, size: 0x8, addend: 0x0, symName: '__ZN11_cringepack4pmat10PMatColumn4sort28_$u7b$$u7b$closure$u7d$$u7d$17h3fc9f7871648f8e8E', symObjAddr: 0xD8, symBinAddr: 0x20CB8, symSize: 0x48 }
  - { offset: 0x5E90C, size: 0x8, addend: 0x0, symName: '__ZN11_cringepack4pmat10PMatColumn4sort28_$u7b$$u7b$closure$u7d$$u7d$17h57e2d687ed8ea220E', symObjAddr: 0x120, symBinAddr: 0x20D00, symSize: 0x44 }
  - { offset: 0x5E962, size: 0x8, addend: 0x0, symName: '__ZN11_cringepack4pmat10PMatColumn4sort28_$u7b$$u7b$closure$u7d$$u7d$17hc54a8a09f120d35cE', symObjAddr: 0x164, symBinAddr: 0x20D44, symSize: 0x44 }
  - { offset: 0x5EEC7, size: 0x8, addend: 0x0, symName: __ZN11_cringepack4pmat7PMatrix7from_cc17h8f2c225375387084E, symObjAddr: 0x1A8, symBinAddr: 0x20D88, symSize: 0x4A0 }
  - { offset: 0x5F1C1, size: 0x8, addend: 0x0, symName: __ZN4core5slice3raw14from_raw_parts18precondition_check17h72880bcde54e4172E, symObjAddr: 0x0, symBinAddr: 0x2128C, symSize: 0x10C }
  - { offset: 0x5F360, size: 0x8, addend: 0x0, symName: __ZN4core5slice3raw14from_raw_parts18precondition_check17h72880bcde54e4172E, symObjAddr: 0x0, symBinAddr: 0x2128C, symSize: 0x10C }
  - { offset: 0x5F47C, size: 0x8, addend: 0x0, symName: __ZN4core5slice3raw18from_raw_parts_mut18precondition_check17haa6fab553be19535E, symObjAddr: 0x10C, symBinAddr: 0x21398, symSize: 0x10C }
  - { offset: 0x5F611, size: 0x8, addend: 0x0, symName: __ZN11_cringepack8linsolve10generic_lu17haf719016749de768E, symObjAddr: 0x0, symBinAddr: 0x214A4, symSize: 0x780 }
  - { offset: 0x5F6D4, size: 0x8, addend: 0x0, symName: __ZN11_cringepack8linsolve10generic_lu17haf719016749de768E, symObjAddr: 0x0, symBinAddr: 0x214A4, symSize: 0x780 }
  - { offset: 0x5F979, size: 0x8, addend: 0x0, symName: __ZN11_cringepack8linsolve14solve_drhs_isl17h9278100921e80950E, symObjAddr: 0x1608, symBinAddr: 0x22AAC, symSize: 0x3C0 }
  - { offset: 0x5FA6A, size: 0x8, addend: 0x0, symName: __ZN11_cringepack8linsolve14solve_drhs_isu17h7926a2eabebc50c5E, symObjAddr: 0x19C8, symBinAddr: 0x22E6C, symSize: 0x514 }
  - { offset: 0x5FB93, size: 0x8, addend: 0x0, symName: __ZN11_cringepack8linsolve8zero_vec17h7c7e14f91fd124dcE, symObjAddr: 0x1EDC, symBinAddr: 0x23380, symSize: 0x30 }
  - { offset: 0x60500, size: 0x8, addend: 0x0, symName: __ZN11_cringepack8linsolve12SparseSolver11unpermute_x17ha9ef94992d64d88aE, symObjAddr: 0x780, symBinAddr: 0x21C24, symSize: 0x1A8 }
  - { offset: 0x60571, size: 0x8, addend: 0x0, symName: __ZN11_cringepack8linsolve12SparseSolver3new17h690fa84fb40126f4E, symObjAddr: 0x928, symBinAddr: 0x21DCC, symSize: 0x180 }
  - { offset: 0x605D0, size: 0x8, addend: 0x0, symName: __ZN11_cringepack8linsolve12SparseSolver7solve_b17h9c4e6f306acfcbc5E, symObjAddr: 0xAA8, symBinAddr: 0x21F4C, symSize: 0x43C }
  - { offset: 0x606A8, size: 0x8, addend: 0x0, symName: __ZN11_cringepack8linsolve12SparseSolver9lu_decomp17h931da0039e1b1025E, symObjAddr: 0xEE4, symBinAddr: 0x22388, symSize: 0x41C }
  - { offset: 0x60739, size: 0x8, addend: 0x0, symName: __ZN11_cringepack8linsolve12SparseSolver9permute_b17hc361e9ad7d98d5deE, symObjAddr: 0x1300, symBinAddr: 0x227A4, symSize: 0x308 }
  - { offset: 0x6086C, size: 0x8, addend: 0x0, symName: '__ZN100_$LT$pyo3..types..tuple..BorrowedTupleIterator$u20$as$u20$core..iter..traits..iterator..Iterator$GT$4next17h429cafa71982dd84E', symObjAddr: 0x0, symBinAddr: 0x233B0, symSize: 0x9C }
  - { offset: 0x61AA0, size: 0x8, addend: 0x0, symName: '__ZN100_$LT$pyo3..types..tuple..BorrowedTupleIterator$u20$as$u20$core..iter..traits..iterator..Iterator$GT$4next17h429cafa71982dd84E', symObjAddr: 0x0, symBinAddr: 0x233B0, symSize: 0x9C }
  - { offset: 0x62158, size: 0x8, addend: 0x0, symName: '__ZN96_$LT$pyo3..pycell..impl_..BorrowChecker$u20$as$u20$pyo3..pycell..impl_..PyClassBorrowChecker$GT$3new17h216684dd507e65caE', symObjAddr: 0x0, symBinAddr: 0x2344C, symSize: 0x40 }
  - { offset: 0x62179, size: 0x8, addend: 0x0, symName: '__ZN96_$LT$pyo3..pycell..impl_..BorrowChecker$u20$as$u20$pyo3..pycell..impl_..PyClassBorrowChecker$GT$3new17h216684dd507e65caE', symObjAddr: 0x0, symBinAddr: 0x2344C, symSize: 0x40 }
  - { offset: 0x62234, size: 0x8, addend: 0x0, symName: __ZN5alloc5slice11stable_sort17h0be49f39ab839645E, symObjAddr: 0x0, symBinAddr: 0x2348C, symSize: 0xC4 }
  - { offset: 0x62ADF, size: 0x8, addend: 0x0, symName: __ZN5alloc5slice11stable_sort17h0be49f39ab839645E, symObjAddr: 0x0, symBinAddr: 0x2348C, symSize: 0xC4 }
  - { offset: 0x62BB1, size: 0x8, addend: 0x0, symName: '__ZN5alloc5slice29_$LT$impl$u20$$u5b$T$u5d$$GT$11sort_by_key28_$u7b$$u7b$closure$u7d$$u7d$17haffcd5c20fbb6e26E', symObjAddr: 0x1DC, symBinAddr: 0x23668, symSize: 0xAC }
  - { offset: 0x62C3D, size: 0x8, addend: 0x0, symName: '__ZN5alloc5slice29_$LT$impl$u20$$u5b$T$u5d$$GT$11sort_by_key17h6baac3e1c2bdde07E', symObjAddr: 0x18C, symBinAddr: 0x23618, symSize: 0x50 }
  - { offset: 0x62C8E, size: 0x8, addend: 0x0, symName: '__ZN5alloc5slice29_$LT$impl$u20$$u5b$T$u5d$$GT$4sort17h5583f6d8a4177955E', symObjAddr: 0x288, symBinAddr: 0x23714, symSize: 0x28 }
  - { offset: 0x62CFC, size: 0x8, addend: 0x0, symName: '__ZN5alloc5slice29_$LT$impl$u20$$u5b$T$u5d$$GT$6to_vec17h746962831a2c2aeeE', symObjAddr: 0x2B0, symBinAddr: 0x2373C, symSize: 0x28 }
  - { offset: 0x62D59, size: 0x8, addend: 0x0, symName: '__ZN5alloc5slice29_$LT$impl$u20$$u5b$T$u5d$$GT$8into_vec17hb06c6b37281366bdE', symObjAddr: 0x2D8, symBinAddr: 0x23764, symSize: 0x4C }
  - { offset: 0x62E0D, size: 0x8, addend: 0x0, symName: '__ZN87_$LT$T$u20$as$u20$alloc..slice..$LT$impl$u20$$u5b$T$u5d$$GT$..to_vec_in..ConvertVec$GT$6to_vec17h418e0e56a40f69f9E', symObjAddr: 0x324, symBinAddr: 0x237B0, symSize: 0xF4 }
  - { offset: 0x63038, size: 0x8, addend: 0x0, symName: '__ZN87_$LT$T$u20$as$u20$alloc..slice..$LT$impl$u20$$u5b$T$u5d$$GT$..to_vec_in..ConvertVec$GT$6to_vec17h489f809b7b2b4553E', symObjAddr: 0x418, symBinAddr: 0x238A4, symSize: 0xF4 }
  - { offset: 0x63266, size: 0x8, addend: 0x0, symName: __ZN5alloc5slice11stable_sort17h5854f4e8893f7a95E, symObjAddr: 0xC4, symBinAddr: 0x23550, symSize: 0xC8 }
  - { offset: 0x638AE, size: 0x8, addend: 0x0, symName: __ZN11_cringepack4chol8cholesky17hd9d70408d6a095e9E, symObjAddr: 0x0, symBinAddr: 0x23998, symSize: 0x28 }
  - { offset: 0x63952, size: 0x8, addend: 0x0, symName: __ZN11_cringepack4chol8cholesky17hd9d70408d6a095e9E, symObjAddr: 0x0, symBinAddr: 0x23998, symSize: 0x28 }
  - { offset: 0x63E32, size: 0x8, addend: 0x0, symName: '__ZN4pyo35impl_4wrap30IntoPyObjectConverter$LT$T$GT$4wrap17h9419c94a45cc440cE', symObjAddr: 0x0, symBinAddr: 0x239C0, symSize: 0x10 }
  - { offset: 0x655CB, size: 0x8, addend: 0x0, symName: '__ZN4pyo35impl_4wrap62IntoPyObjectConverter$LT$core..result..Result$LT$T$C$E$GT$$GT$12map_into_ptr28_$u7b$$u7b$closure$u7d$$u7d$17ha9199d25f303c588E', symObjAddr: 0x64, symBinAddr: 0x23A24, symSize: 0x38 }
  - { offset: 0x65641, size: 0x8, addend: 0x0, symName: '__ZN4pyo35impl_4wrap82EmptyTupleConverter$LT$core..result..Result$LT$$LP$$RP$$C$pyo3..err..PyErr$GT$$GT$12map_into_ptr28_$u7b$$u7b$closure$u7d$$u7d$17hdddcd9abfa775a0eE', symObjAddr: 0xD0, symBinAddr: 0x23A90, symSize: 0x28 }
  - { offset: 0x65697, size: 0x8, addend: 0x0, symName: __ZN4pyo35impl_4wrap9converter17h6d3707357b52f034E, symObjAddr: 0xF8, symBinAddr: 0x23AB8, symSize: 0x10 }
  - { offset: 0x656C4, size: 0x8, addend: 0x0, symName: __ZN4pyo35impl_4wrap9converter17hd3b48d75daa69638E, symObjAddr: 0x108, symBinAddr: 0x23AC8, symSize: 0x10 }
  - { offset: 0x656F1, size: 0x8, addend: 0x0, symName: __ZN4pyo35impl_4wrap9converter17he498ae6500a6efd1E, symObjAddr: 0x118, symBinAddr: 0x23AD8, symSize: 0x10 }
  - { offset: 0x65723, size: 0x8, addend: 0x0, symName: '__ZN81_$LT$pyo3..impl_..wrap..Converter$LT$T$GT$$u20$as$u20$core..ops..deref..Deref$GT$5deref17h12e835c53a1f4b95E', symObjAddr: 0x128, symBinAddr: 0x23AE8, symSize: 0x14 }
  - { offset: 0x65758, size: 0x8, addend: 0x0, symName: '__ZN81_$LT$pyo3..impl_..wrap..Converter$LT$T$GT$$u20$as$u20$core..ops..deref..Deref$GT$5deref17h965ded848dc1a68eE', symObjAddr: 0x13C, symBinAddr: 0x23AFC, symSize: 0x14 }
  - { offset: 0x6578D, size: 0x8, addend: 0x0, symName: '__ZN81_$LT$pyo3..impl_..wrap..Converter$LT$T$GT$$u20$as$u20$core..ops..deref..Deref$GT$5deref17hded763995872ef44E', symObjAddr: 0x150, symBinAddr: 0x23B10, symSize: 0x14 }
  - { offset: 0x657C8, size: 0x8, addend: 0x0, symName: '__ZN91_$LT$pyo3..impl_..wrap..EmptyTupleConverter$LT$T$GT$$u20$as$u20$core..ops..deref..Deref$GT$5deref17h69508d8dec61cecbE', symObjAddr: 0x164, symBinAddr: 0x23B24, symSize: 0x14 }
  - { offset: 0x657FD, size: 0x8, addend: 0x0, symName: '__ZN91_$LT$pyo3..impl_..wrap..EmptyTupleConverter$LT$T$GT$$u20$as$u20$core..ops..deref..Deref$GT$5deref17h7262ea1e502ae36fE', symObjAddr: 0x178, symBinAddr: 0x23B38, symSize: 0x14 }
  - { offset: 0x65B96, size: 0x8, addend: 0x0, symName: '__ZN4pyo35impl_4wrap30IntoPyObjectConverter$LT$T$GT$4wrap17h9419c94a45cc440cE', symObjAddr: 0x0, symBinAddr: 0x239C0, symSize: 0x10 }
  - { offset: 0x66318, size: 0x8, addend: 0x0, symName: '__ZN4pyo35impl_4wrap62IntoPyObjectConverter$LT$core..result..Result$LT$T$C$E$GT$$GT$12map_into_ptr17ha6f4beef5deb86edE', symObjAddr: 0x10, symBinAddr: 0x239D0, symSize: 0x54 }
  - { offset: 0x66376, size: 0x8, addend: 0x0, symName: '__ZN4pyo35impl_4wrap62IntoPyObjectConverter$LT$core..result..Result$LT$T$C$E$GT$$GT$4wrap17h555bdbb405a9b4e0E', symObjAddr: 0x9C, symBinAddr: 0x23A5C, symSize: 0x34 }
  - { offset: 0x66459, size: 0x8, addend: 0x0, symName: '__ZN104_$LT$core..iter..adapters..copied..Copied$LT$I$GT$$u20$as$u20$core..iter..traits..iterator..Iterator$GT$4next17hb28238d29fee21afE', symObjAddr: 0x0, symBinAddr: 0x23B4C, symSize: 0x5C }
  - { offset: 0x6770A, size: 0x8, addend: 0x0, symName: '__ZN104_$LT$core..iter..adapters..copied..Copied$LT$I$GT$$u20$as$u20$core..iter..traits..iterator..Iterator$GT$4next17hb28238d29fee21afE', symObjAddr: 0x0, symBinAddr: 0x23B4C, symSize: 0x5C }
  - { offset: 0x677AF, size: 0x8, addend: 0x0, symName: '__ZN63_$LT$I$u20$as$u20$core..iter..traits..collect..IntoIterator$GT$9into_iter17ha4365a1cf94a672fE', symObjAddr: 0x5C, symBinAddr: 0x23BA8, symSize: 0x1C }
  - { offset: 0x67E4D, size: 0x8, addend: 0x0, symName: __ZN4core5slice4sort6stable14driftsort_main17h121f165e90f3937aE, symObjAddr: 0x0, symBinAddr: 0x23BC4, symSize: 0x1EC }
  - { offset: 0x67FBC, size: 0x8, addend: 0x0, symName: __ZN4core5slice4sort6stable14driftsort_main17h121f165e90f3937aE, symObjAddr: 0x0, symBinAddr: 0x23BC4, symSize: 0x1EC }
  - { offset: 0x681C2, size: 0x8, addend: 0x0, symName: __ZN4core5slice4sort6stable14driftsort_main17hd4a08d9a469e36a7E, symObjAddr: 0x1EC, symBinAddr: 0x23DB0, symSize: 0x1EC }
  - { offset: 0x6874A, size: 0x8, addend: 0x0, symName: '__ZN4core5slice4sort6stable27AlignedStorage$LT$T$C$_$GT$19as_uninit_slice_mut17h555de41ec9cbafc1E', symObjAddr: 0x3D8, symBinAddr: 0x23F9C, symSize: 0x80 }
  - { offset: 0x68832, size: 0x8, addend: 0x0, symName: '__ZN4core5slice4sort6stable27AlignedStorage$LT$T$C$_$GT$19as_uninit_slice_mut17hea69a694423094e9E', symObjAddr: 0x458, symBinAddr: 0x2401C, symSize: 0x80 }
  - { offset: 0x68B29, size: 0x8, addend: 0x0, symName: __ZN4pyo33err10cast_error9CastError3new17h467c5ee27068fc01E, symObjAddr: 0x0, symBinAddr: 0x2409C, symSize: 0x1C }
  - { offset: 0x6A301, size: 0x8, addend: 0x0, symName: __ZN4pyo33err10cast_error9CastError3new17h467c5ee27068fc01E, symObjAddr: 0x0, symBinAddr: 0x2409C, symSize: 0x1C }
  - { offset: 0x6A34F, size: 0x8, addend: 0x0, symName: __ZN7ndarray11data_traits7DataMut13ensure_unique17hc64b20ed42d9ff91E, symObjAddr: 0x0, symBinAddr: 0x240B8, symSize: 0x24 }
  - { offset: 0x6A36B, size: 0x8, addend: 0x0, symName: __ZN7ndarray11data_traits7DataMut13ensure_unique17hc64b20ed42d9ff91E, symObjAddr: 0x0, symBinAddr: 0x240B8, symSize: 0x24 }
  - { offset: 0x6A3A5, size: 0x8, addend: 0x0, symName: __ZN7ndarray11data_traits7DataMut13ensure_unique17hecad4343e042d4ecE, symObjAddr: 0x24, symBinAddr: 0x240DC, symSize: 0x24 }
  - { offset: 0x6A3E5, size: 0x8, addend: 0x0, symName: '__ZN88_$LT$ndarray..data_repr..OwnedRepr$LT$A$GT$$u20$as$u20$ndarray..data_traits..RawData$GT$20_is_pointer_inbounds17h457a409fc11c15d1E', symObjAddr: 0x3CC, symBinAddr: 0x24484, symSize: 0xA0 }
  - { offset: 0x6A49B, size: 0x8, addend: 0x0, symName: '__ZN88_$LT$ndarray..data_repr..OwnedRepr$LT$A$GT$$u20$as$u20$ndarray..data_traits..RawData$GT$20_is_pointer_inbounds17h8d980ce820569c30E', symObjAddr: 0x46C, symBinAddr: 0x24524, symSize: 0xA0 }
  - { offset: 0x6A551, size: 0x8, addend: 0x0, symName: '__ZN88_$LT$ndarray..data_repr..OwnedRepr$LT$A$GT$$u20$as$u20$ndarray..data_traits..RawData$GT$20_is_pointer_inbounds17h972fc151ceeb7e76E', symObjAddr: 0x50C, symBinAddr: 0x245C4, symSize: 0xA0 }
  - { offset: 0x6A60D, size: 0x8, addend: 0x0, symName: '__ZN90_$LT$ndarray..data_repr..OwnedRepr$LT$A$GT$$u20$as$u20$ndarray..data_traits..DataOwned$GT$3new17h53875dac2a24a296E', symObjAddr: 0x5AC, symBinAddr: 0x24664, symSize: 0x34 }
  - { offset: 0x6A645, size: 0x8, addend: 0x0, symName: '__ZN90_$LT$ndarray..data_repr..OwnedRepr$LT$A$GT$$u20$as$u20$ndarray..data_traits..DataOwned$GT$3new17ha9d2b94e0f21cce8E', symObjAddr: 0x5E0, symBinAddr: 0x24698, symSize: 0x34 }
  - { offset: 0x6A67D, size: 0x8, addend: 0x0, symName: '__ZN90_$LT$ndarray..data_repr..OwnedRepr$LT$A$GT$$u20$as$u20$ndarray..data_traits..DataOwned$GT$3new17hdc1c5244424f5260E', symObjAddr: 0x614, symBinAddr: 0x246CC, symSize: 0x34 }
  - { offset: 0x6A6BB, size: 0x8, addend: 0x0, symName: '__ZN91_$LT$ndarray..data_repr..OwnedRepr$LT$A$GT$$u20$as$u20$ndarray..data_traits..RawDataMut$GT$17try_ensure_unique17h4c1a446b739dc151E', symObjAddr: 0x648, symBinAddr: 0x24700, symSize: 0x10 }
  - { offset: 0x6A6F3, size: 0x8, addend: 0x0, symName: '__ZN91_$LT$ndarray..data_repr..OwnedRepr$LT$A$GT$$u20$as$u20$ndarray..data_traits..RawDataMut$GT$17try_ensure_unique17h6c52f0a71d27c33dE', symObjAddr: 0x658, symBinAddr: 0x24710, symSize: 0x10 }
  - { offset: 0x6AE79, size: 0x8, addend: 0x0, symName: '__ZN7ndarray9data_repr18OwnedRepr$LT$A$GT$11take_as_vec17h57a6fccd6ebbcbc4E', symObjAddr: 0x48, symBinAddr: 0x24100, symSize: 0x44 }
  - { offset: 0x6AEFF, size: 0x8, addend: 0x0, symName: '__ZN7ndarray9data_repr18OwnedRepr$LT$A$GT$11take_as_vec17hbdfa626c068e1f0fE', symObjAddr: 0x8C, symBinAddr: 0x24144, symSize: 0x44 }
  - { offset: 0x6AFB5, size: 0x8, addend: 0x0, symName: '__ZN7ndarray9data_repr18OwnedRepr$LT$A$GT$11take_as_vec17he9a3311001f1d3c3E', symObjAddr: 0xD0, symBinAddr: 0x24188, symSize: 0x44 }
  - { offset: 0x6B035, size: 0x8, addend: 0x0, symName: '__ZN7ndarray9data_repr18OwnedRepr$LT$A$GT$4from17h703ef07e52d7eb86E', symObjAddr: 0x114, symBinAddr: 0x241CC, symSize: 0xAC }
  - { offset: 0x6B10E, size: 0x8, addend: 0x0, symName: '__ZN7ndarray9data_repr18OwnedRepr$LT$A$GT$4from17h7d4b0a7137496c3aE', symObjAddr: 0x1C0, symBinAddr: 0x24278, symSize: 0xAC }
  - { offset: 0x6B1E7, size: 0x8, addend: 0x0, symName: '__ZN7ndarray9data_repr18OwnedRepr$LT$A$GT$4from17hb649dd3a455c6cdbE', symObjAddr: 0x26C, symBinAddr: 0x24324, symSize: 0xAC }
  - { offset: 0x6B2D9, size: 0x8, addend: 0x0, symName: '__ZN7ndarray9data_repr18OwnedRepr$LT$A$GT$8as_slice17h41dbb212a72881a4E', symObjAddr: 0x318, symBinAddr: 0x243D0, symSize: 0x3C }
  - { offset: 0x6B338, size: 0x8, addend: 0x0, symName: '__ZN7ndarray9data_repr18OwnedRepr$LT$A$GT$8as_slice17h4427f7ee95c4bb36E', symObjAddr: 0x354, symBinAddr: 0x2440C, symSize: 0x3C }
  - { offset: 0x6B397, size: 0x8, addend: 0x0, symName: '__ZN7ndarray9data_repr18OwnedRepr$LT$A$GT$8as_slice17hcf639de5c006c0f8E', symObjAddr: 0x390, symBinAddr: 0x24448, symSize: 0x3C }
  - { offset: 0x6B449, size: 0x8, addend: 0x0, symName: '__ZN63_$LT$I$u20$as$u20$core..iter..traits..collect..IntoIterator$GT$9into_iter17h54c6f7f2674b4cd8E', symObjAddr: 0x0, symBinAddr: 0x24720, symSize: 0x18 }
  - { offset: 0x6BC7E, size: 0x8, addend: 0x0, symName: '__ZN63_$LT$I$u20$as$u20$core..iter..traits..collect..IntoIterator$GT$9into_iter17h54c6f7f2674b4cd8E', symObjAddr: 0x0, symBinAddr: 0x24720, symSize: 0x18 }
  - { offset: 0x6CC41, size: 0x8, addend: 0x0, symName: '__ZN125_$LT$pyo3..instance..Bound$LT$numpy..array..PyArray$LT$T$C$D$GT$$GT$$u20$as$u20$numpy..array..PyArrayMethods$LT$T$C$D$GT$$GT$8as_array28_$u7b$$u7b$closure$u7d$$u7d$17h4b936faf6658a16cE', symObjAddr: 0x0, symBinAddr: 0x24738, symSize: 0x3C }
  - { offset: 0x6E210, size: 0x8, addend: 0x0, symName: '__ZN125_$LT$pyo3..instance..Bound$LT$numpy..array..PyArray$LT$T$C$D$GT$$GT$$u20$as$u20$numpy..array..PyArrayMethods$LT$T$C$D$GT$$GT$8as_array28_$u7b$$u7b$closure$u7d$$u7d$17h4b936faf6658a16cE', symObjAddr: 0x0, symBinAddr: 0x24738, symSize: 0x3C }
  - { offset: 0x6E26B, size: 0x8, addend: 0x0, symName: '__ZN125_$LT$pyo3..instance..Bound$LT$numpy..array..PyArray$LT$T$C$D$GT$$GT$$u20$as$u20$numpy..array..PyArrayMethods$LT$T$C$D$GT$$GT$8as_array28_$u7b$$u7b$closure$u7d$$u7d$17heb47e7e3c429df42E', symObjAddr: 0x3C, symBinAddr: 0x24774, symSize: 0x3C }
  - { offset: 0x6E48D, size: 0x8, addend: 0x0, symName: __ZN5numpy5array7as_view17h06942b93e1bbb37eE, symObjAddr: 0x7DC, symBinAddr: 0x24F14, symSize: 0x294 }
  - { offset: 0x6E5CC, size: 0x8, addend: 0x0, symName: __ZN5numpy5array7as_view17hbaddd9c34fc89ad8E, symObjAddr: 0xA70, symBinAddr: 0x251A8, symSize: 0x294 }
  - { offset: 0x6E710, size: 0x8, addend: 0x0, symName: __ZN5numpy5array7as_view5inner17h74dae35d1d5dc57aE, symObjAddr: 0xD04, symBinAddr: 0x2543C, symSize: 0x608 }
  - { offset: 0x6E8E5, size: 0x8, addend: 0x0, symName: '__ZN84_$LT$numpy..array..PyArray$LT$T$C$D$GT$$u20$as$u20$pyo3..type_object..PyTypeInfo$GT$10is_type_of17h5191a644b0b61fcfE', symObjAddr: 0x130C, symBinAddr: 0x25A44, symSize: 0x34 }
  - { offset: 0x6E923, size: 0x8, addend: 0x0, symName: '__ZN84_$LT$numpy..array..PyArray$LT$T$C$D$GT$$u20$as$u20$pyo3..type_object..PyTypeInfo$GT$10is_type_of17hb95cc43c4040ceb5E', symObjAddr: 0x1340, symBinAddr: 0x25A78, symSize: 0x34 }
  - { offset: 0x6E961, size: 0x8, addend: 0x0, symName: '__ZN84_$LT$numpy..array..PyArray$LT$T$C$D$GT$$u20$as$u20$pyo3..type_object..PyTypeInfo$GT$15type_object_raw17h1d63c639867dd446E', symObjAddr: 0x1374, symBinAddr: 0x25AAC, symSize: 0x28 }
  - { offset: 0x6E9AA, size: 0x8, addend: 0x0, symName: '__ZN84_$LT$numpy..array..PyArray$LT$T$C$D$GT$$u20$as$u20$pyo3..type_object..PyTypeInfo$GT$15type_object_raw17h641f73472b1c2d39E', symObjAddr: 0x139C, symBinAddr: 0x25AD4, symSize: 0x28 }
  - { offset: 0x6EA2E, size: 0x8, addend: 0x0, symName: __ZN4pyo311type_object10PyTypeInfo11type_object17h9ced90fff7296dd7E, symObjAddr: 0x78, symBinAddr: 0x247B0, symSize: 0x30 }
  - { offset: 0x6EA6E, size: 0x8, addend: 0x0, symName: __ZN4pyo311type_object10PyTypeInfo11type_object17hed468933f693979aE, symObjAddr: 0xA8, symBinAddr: 0x247E0, symSize: 0x30 }
  - { offset: 0x6EAB4, size: 0x8, addend: 0x0, symName: '__ZN52_$LT$T$u20$as$u20$pyo3..type_object..PyTypeCheck$GT$10type_check17h31bbe75d46ff5058E', symObjAddr: 0xD8, symBinAddr: 0x24810, symSize: 0x24 }
  - { offset: 0x6EAE9, size: 0x8, addend: 0x0, symName: '__ZN52_$LT$T$u20$as$u20$pyo3..type_object..PyTypeCheck$GT$10type_check17hf469c7d52802d273E', symObjAddr: 0xFC, symBinAddr: 0x24834, symSize: 0x24 }
  - { offset: 0x6EB1E, size: 0x8, addend: 0x0, symName: '__ZN52_$LT$T$u20$as$u20$pyo3..type_object..PyTypeCheck$GT$16classinfo_object17h2b5ad1a0e8c2e1a4E', symObjAddr: 0x120, symBinAddr: 0x24858, symSize: 0x20 }
  - { offset: 0x6EB5E, size: 0x8, addend: 0x0, symName: '__ZN52_$LT$T$u20$as$u20$pyo3..type_object..PyTypeCheck$GT$16classinfo_object17h2c059211774933afE', symObjAddr: 0x140, symBinAddr: 0x24878, symSize: 0x20 }
  - { offset: 0x6F5EC, size: 0x8, addend: 0x0, symName: '__ZN5numpy5array20PyArray$LT$T$C$D$GT$10new_uninit17h4738faa0aec623bcE', symObjAddr: 0x160, symBinAddr: 0x24898, symSize: 0x14C }
  - { offset: 0x6F6E2, size: 0x8, addend: 0x0, symName: '__ZN5numpy5array20PyArray$LT$T$C$D$GT$3new17ha3f37ef611543c67E', symObjAddr: 0x2AC, symBinAddr: 0x249E4, symSize: 0xC8 }
  - { offset: 0x6F7A6, size: 0x8, addend: 0x0, symName: '__ZN5numpy5array20PyArray$LT$T$C$D$GT$7extract17h642c51c3616fe925E', symObjAddr: 0x374, symBinAddr: 0x24AAC, symSize: 0x234 }
  - { offset: 0x6F85A, size: 0x8, addend: 0x0, symName: '__ZN5numpy5array20PyArray$LT$T$C$D$GT$7extract17hae45f4e38bb746deE', symObjAddr: 0x5A8, symBinAddr: 0x24CE0, symSize: 0x234 }
  - { offset: 0x6FA82, size: 0x8, addend: 0x0, symName: '__ZN7ndarray12impl_methods48_$LT$impl$u20$ndarray..ArrayRef$LT$A$C$D$GT$$GT$4mapv28_$u7b$$u7b$closure$u7d$$u7d$17h3bdd95f34a77befdE', symObjAddr: 0x0, symBinAddr: 0x25AFC, symSize: 0x38 }
  - { offset: 0x6FBD9, size: 0x8, addend: 0x0, symName: '__ZN7ndarray12impl_methods48_$LT$impl$u20$ndarray..ArrayRef$LT$A$C$D$GT$$GT$4mapv28_$u7b$$u7b$closure$u7d$$u7d$17h3bdd95f34a77befdE', symObjAddr: 0x0, symBinAddr: 0x25AFC, symSize: 0x38 }
  - { offset: 0x6FC5A, size: 0x8, addend: 0x0, symName: '__ZN7ndarray12impl_methods48_$LT$impl$u20$ndarray..ArrayRef$LT$A$C$D$GT$$GT$4mapv28_$u7b$$u7b$closure$u7d$$u7d$17ha508318ad80afbb4E', symObjAddr: 0x38, symBinAddr: 0x25B34, symSize: 0x38 }
  - { offset: 0x6FCE7, size: 0x8, addend: 0x0, symName: '__ZN7ndarray12impl_methods53_$LT$impl$u20$ndarray..ArrayBase$LT$S$C$D$C$A$GT$$GT$10slice_move28_$u7b$$u7b$closure$u7d$$u7d$17h13d52884aaff27bcE', symObjAddr: 0x70, symBinAddr: 0x25B6C, symSize: 0x440 }
  - { offset: 0x6FF07, size: 0x8, addend: 0x0, symName: '__ZN7ndarray12impl_methods53_$LT$impl$u20$ndarray..ArrayBase$LT$S$C$D$C$A$GT$$GT$10slice_move28_$u7b$$u7b$closure$u7d$$u7d$17hd962f13f2cac5335E', symObjAddr: 0x4B0, symBinAddr: 0x25FAC, symSize: 0x440 }
  - { offset: 0x7050E, size: 0x8, addend: 0x0, symName: '__ZN4pyo35impl_4wrap82EmptyTupleConverter$LT$core..result..Result$LT$$LP$$RP$$C$pyo3..err..PyErr$GT$$GT$12map_into_ptr17h48f0fc4d3898e01cE', symObjAddr: 0x0, symBinAddr: 0x263EC, symSize: 0x44 }
  - { offset: 0x722A4, size: 0x8, addend: 0x0, symName: '__ZN4pyo35impl_4wrap82EmptyTupleConverter$LT$core..result..Result$LT$$LP$$RP$$C$pyo3..err..PyErr$GT$$GT$12map_into_ptr17h48f0fc4d3898e01cE', symObjAddr: 0x0, symBinAddr: 0x263EC, symSize: 0x44 }
  - { offset: 0x7230C, size: 0x8, addend: 0x0, symName: __ZN4pyo35impl_16extract_argument16extract_argument17h1a637f8b3fed230bE, symObjAddr: 0x0, symBinAddr: 0x26430, symSize: 0x148 }
  - { offset: 0x742E9, size: 0x8, addend: 0x0, symName: __ZN4pyo35impl_16extract_argument16extract_argument17h1a637f8b3fed230bE, symObjAddr: 0x0, symBinAddr: 0x26430, symSize: 0x148 }
  - { offset: 0x7436C, size: 0x8, addend: 0x0, symName: __ZN4pyo35impl_16extract_argument16extract_argument17h9be2c0bb54b5ddb5E, symObjAddr: 0x148, symBinAddr: 0x26578, symSize: 0x148 }
  - { offset: 0x74570, size: 0x8, addend: 0x0, symName: '__ZN4pyo35impl_16extract_argument19FunctionDescription26extract_arguments_fastcall28_$u7b$$u7b$closure$u7d$$u7d$17h90be27de2288921aE', symObjAddr: 0x16DC, symBinAddr: 0x27B0C, symSize: 0x24 }
  - { offset: 0x745C8, size: 0x8, addend: 0x0, symName: '__ZN4pyo35impl_16extract_argument19FunctionDescription28extract_arguments_tuple_dict28_$u7b$$u7b$closure$u7d$$u7d$17h9045cdde4bb9876dE', symObjAddr: 0x1BE0, symBinAddr: 0x28010, symSize: 0x24 }
  - { offset: 0x74620, size: 0x8, addend: 0x0, symName: '__ZN4pyo35impl_16extract_argument19FunctionDescription36find_keyword_parameter_in_positional28_$u7b$$u7b$closure$u7d$$u7d$17h468bb9873946105cE', symObjAddr: 0x1C04, symBinAddr: 0x28034, symSize: 0x48 }
  - { offset: 0x74680, size: 0x8, addend: 0x0, symName: '__ZN4pyo35impl_16extract_argument19FunctionDescription38find_keyword_parameter_in_keyword_only28_$u7b$$u7b$closure$u7d$$u7d$17h4bdaf2b5e60e3b63E', symObjAddr: 0x1C4C, symBinAddr: 0x2807C, symSize: 0x38 }
  - { offset: 0x746C2, size: 0x8, addend: 0x0, symName: __ZN4pyo35impl_16extract_argument23extract_pyclass_ref_mut17hb8b64127cb51fca8E, symObjAddr: 0x1C84, symBinAddr: 0x280B4, symSize: 0xE0 }
  - { offset: 0x75369, size: 0x8, addend: 0x0, symName: __ZN4pyo35impl_16extract_argument19FunctionDescription13handle_kwargs17h779f6550e4cc0f88E, symObjAddr: 0x290, symBinAddr: 0x266C0, symSize: 0x708 }
  - { offset: 0x75584, size: 0x8, addend: 0x0, symName: __ZN4pyo35impl_16extract_argument19FunctionDescription13handle_kwargs17hc0dcbad6de655fc5E, symObjAddr: 0x998, symBinAddr: 0x26DC8, symSize: 0x70C }
  - { offset: 0x757A3, size: 0x8, addend: 0x0, symName: __ZN4pyo35impl_16extract_argument19FunctionDescription26extract_arguments_fastcall17h9c5988d1338b301eE, symObjAddr: 0x10A4, symBinAddr: 0x274D4, symSize: 0x638 }
  - { offset: 0x75AD6, size: 0x8, addend: 0x0, symName: __ZN4pyo35impl_16extract_argument19FunctionDescription28extract_arguments_tuple_dict17hb6ef56d97964f629E, symObjAddr: 0x1700, symBinAddr: 0x27B30, symSize: 0x4E0 }
  - { offset: 0x76239, size: 0x8, addend: 0x0, symName: __ZN4core5slice4sort6stable5drift10create_run17h4cd6aaef3cd1e1e0E, symObjAddr: 0x0, symBinAddr: 0x28194, symSize: 0x410 }
  - { offset: 0x76BF8, size: 0x8, addend: 0x0, symName: __ZN4core5slice4sort6stable5drift10create_run17h4cd6aaef3cd1e1e0E, symObjAddr: 0x0, symBinAddr: 0x28194, symSize: 0x410 }
  - { offset: 0x77109, size: 0x8, addend: 0x0, symName: __ZN4core5slice4sort6stable5drift10create_run17hf21636c87f56c5ffE, symObjAddr: 0x410, symBinAddr: 0x285A4, symSize: 0x410 }
  - { offset: 0x7761A, size: 0x8, addend: 0x0, symName: __ZN4core5slice4sort6stable5drift16stable_quicksort17h19aed31db94f3d7dE, symObjAddr: 0x820, symBinAddr: 0x289B4, symSize: 0xB4 }
  - { offset: 0x77754, size: 0x8, addend: 0x0, symName: __ZN4core5slice4sort6stable5drift16stable_quicksort17hc81dff570b097520E, symObjAddr: 0x8D4, symBinAddr: 0x28A68, symSize: 0xB4 }
  - { offset: 0x77979, size: 0x8, addend: 0x0, symName: __ZN4core5slice4sort6stable5drift4sort17h0c5ddb8b3f523f95E, symObjAddr: 0x988, symBinAddr: 0x28B1C, symSize: 0x608 }
  - { offset: 0x78289, size: 0x8, addend: 0x0, symName: __ZN4core5slice4sort6stable5drift4sort17h0dc582692480f4b4E, symObjAddr: 0xF90, symBinAddr: 0x29124, symSize: 0x608 }
  - { offset: 0x7995B, size: 0x8, addend: 0x0, symName: '__ZN103_$LT$alloc..vec..into_iter..IntoIter$LT$T$C$A$GT$$u20$as$u20$core..iter..traits..iterator..Iterator$GT$4next17hd07cdbd1e43cbcf1E', symObjAddr: 0x0, symBinAddr: 0x2972C, symSize: 0xA0 }
  - { offset: 0x79E5F, size: 0x8, addend: 0x0, symName: '__ZN103_$LT$alloc..vec..into_iter..IntoIter$LT$T$C$A$GT$$u20$as$u20$core..iter..traits..iterator..Iterator$GT$4next17hd07cdbd1e43cbcf1E', symObjAddr: 0x0, symBinAddr: 0x2972C, symSize: 0xA0 }
  - { offset: 0x7A13A, size: 0x8, addend: 0x0, symName: '__ZN5alloc3vec9into_iter21IntoIter$LT$T$C$A$GT$16as_raw_mut_slice17h890199134020effaE', symObjAddr: 0xA0, symBinAddr: 0x297CC, symSize: 0xCC }
  - { offset: 0x7A2A8, size: 0x8, addend: 0x0, symName: __ZN4core9ub_checks23maybe_is_nonoverlapping7runtime17h4c22c03ebd9412d6E, symObjAddr: 0x0, symBinAddr: 0x29898, symSize: 0xD8 }
  - { offset: 0x7A42D, size: 0x8, addend: 0x0, symName: __ZN4core9ub_checks23maybe_is_nonoverlapping7runtime17h4c22c03ebd9412d6E, symObjAddr: 0x0, symBinAddr: 0x29898, symSize: 0xD8 }
  - { offset: 0x7A640, size: 0x8, addend: 0x0, symName: __ZN4pyo38internal5state11AttachGuard6python17hfcb469fce0573c9eE, symObjAddr: 0x0, symBinAddr: 0x29970, symSize: 0x20 }
  - { offset: 0x7A6F6, size: 0x8, addend: 0x0, symName: __ZN4pyo38internal5state11AttachGuard6python17hfcb469fce0573c9eE, symObjAddr: 0x0, symBinAddr: 0x29970, symSize: 0x20 }
  - { offset: 0x7A736, size: 0x8, addend: 0x0, symName: '__ZN4pyo35impl_7pyclass16lazy_type_object23LazyTypeObject$LT$T$GT$15get_or_try_init17h071ae17aa17a1fc2E', symObjAddr: 0x0, symBinAddr: 0x29990, symSize: 0x70 }
  - { offset: 0x7D077, size: 0x8, addend: 0x0, symName: '__ZN4pyo35impl_7pyclass16lazy_type_object23LazyTypeObject$LT$T$GT$15get_or_try_init17h071ae17aa17a1fc2E', symObjAddr: 0x0, symBinAddr: 0x29990, symSize: 0x70 }
  - { offset: 0x7D0D8, size: 0x8, addend: 0x0, symName: '__ZN4pyo35impl_7pyclass16lazy_type_object23LazyTypeObject$LT$T$GT$8try_init17h18b7b705fe73d65dE', symObjAddr: 0x70, symBinAddr: 0x2A68C4, symSize: 0x58 }
  - { offset: 0x7D147, size: 0x8, addend: 0x0, symName: '__ZN100_$LT$pyo3..pycell..impl_..MutableClass$u20$as$u20$pyo3..pycell..impl_..GetBorrowChecker$LT$T$GT$$GT$14borrow_checker17hf5fb591d9349009bE', symObjAddr: 0x0, symBinAddr: 0x29A00, symSize: 0x28 }
  - { offset: 0x7E5DE, size: 0x8, addend: 0x0, symName: '__ZN100_$LT$pyo3..pycell..impl_..MutableClass$u20$as$u20$pyo3..pycell..impl_..GetBorrowChecker$LT$T$GT$$GT$14borrow_checker17hf5fb591d9349009bE', symObjAddr: 0x0, symBinAddr: 0x29A00, symSize: 0x28 }
  - { offset: 0x7E619, size: 0x8, addend: 0x0, symName: '__ZN119_$LT$pyo3..pycell..impl_..PyStaticClassObject$LT$T$GT$$u20$as$u20$pyo3..pycell..impl_..PyClassObjectLayout$LT$T$GT$$GT$12contents_mut17ha74c74095af36e39E', symObjAddr: 0x28, symBinAddr: 0x29A28, symSize: 0x14 }
  - { offset: 0x7E650, size: 0x8, addend: 0x0, symName: '__ZN119_$LT$pyo3..pycell..impl_..PyStaticClassObject$LT$T$GT$$u20$as$u20$pyo3..pycell..impl_..PyClassObjectLayout$LT$T$GT$$GT$14borrow_checker17hb7c300ffbe7d742aE', symObjAddr: 0x3C, symBinAddr: 0x29A3C, symSize: 0x24 }
  - { offset: 0x7E687, size: 0x8, addend: 0x0, symName: '__ZN119_$LT$pyo3..pycell..impl_..PyStaticClassObject$LT$T$GT$$u20$as$u20$pyo3..pycell..impl_..PyClassObjectLayout$LT$T$GT$$GT$15contents_uninit17hec32e606925cb516E', symObjAddr: 0x60, symBinAddr: 0x29A60, symSize: 0x1C }
  - { offset: 0x7E6DC, size: 0x8, addend: 0x0, symName: '__ZN119_$LT$pyo3..pycell..impl_..PyStaticClassObject$LT$T$GT$$u20$as$u20$pyo3..pycell..impl_..PyClassObjectLayout$LT$T$GT$$GT$7get_ptr17h0771cf8cbc7f2055E', symObjAddr: 0x7C, symBinAddr: 0x29A7C, symSize: 0x24 }
  - { offset: 0x7E713, size: 0x8, addend: 0x0, symName: '__ZN119_$LT$pyo3..pycell..impl_..PyStaticClassObject$LT$T$GT$$u20$as$u20$pyo3..pycell..impl_..PyClassObjectLayout$LT$T$GT$$GT$8contents17hd9fc9991974e7a90E', symObjAddr: 0xA0, symBinAddr: 0x29AA0, symSize: 0x14 }
  - { offset: 0x7E781, size: 0x8, addend: 0x0, symName: '__ZN121_$LT$pyo3..pycell..impl_..PyClassObjectBase$LT$U$GT$$u20$as$u20$pyo3..pycell..impl_..PyClassObjectBaseLayout$LT$T$GT$$GT$17ensure_threadsafe17h656f329717c4237fE', symObjAddr: 0xB4, symBinAddr: 0x29AB4, symSize: 0x10 }
  - { offset: 0x7E7C1, size: 0x8, addend: 0x0, symName: '__ZN123_$LT$pyo3..pycell..impl_..PyStaticClassObject$LT$T$GT$$u20$as$u20$pyo3..pycell..impl_..PyClassObjectBaseLayout$LT$T$GT$$GT$10tp_dealloc17h7236510f9b035890E', symObjAddr: 0xC4, symBinAddr: 0x29AC4, symSize: 0x84 }
  - { offset: 0x7E82D, size: 0x8, addend: 0x0, symName: '__ZN123_$LT$pyo3..pycell..impl_..PyStaticClassObject$LT$T$GT$$u20$as$u20$pyo3..pycell..impl_..PyClassObjectBaseLayout$LT$T$GT$$GT$17ensure_threadsafe17h37044fff1ea15d0fE', symObjAddr: 0x148, symBinAddr: 0x29B48, symSize: 0x30 }
  - { offset: 0x7EDE9, size: 0x8, addend: 0x0, symName: '__ZN4pyo36pycell5impl_30PyClassObjectContents$LT$T$GT$3new17ha8716f1a4d12127eE', symObjAddr: 0x178, symBinAddr: 0x29B78, symSize: 0xB8 }
  - { offset: 0x7F2BF, size: 0x8, addend: 0x0, symName: '__ZN4pyo36pycell5impl_30PyClassObjectContents$LT$T$GT$7dealloc17he1a00f0c67e7b4e1E', symObjAddr: 0x230, symBinAddr: 0x29C30, symSize: 0x60 }
  - { offset: 0x7F3A2, size: 0x8, addend: 0x0, symName: '__ZN87_$LT$ndarray..dimension..dynindeximpl..IxDynImpl$u20$as$u20$core..ops..deref..Deref$GT$5deref17h781f992c02b06eb0E', symObjAddr: 0x0, symBinAddr: 0x29C90, symSize: 0x24 }
  - { offset: 0x7F3C3, size: 0x8, addend: 0x0, symName: '__ZN87_$LT$ndarray..dimension..dynindeximpl..IxDynImpl$u20$as$u20$core..ops..deref..Deref$GT$5deref17h781f992c02b06eb0E', symObjAddr: 0x0, symBinAddr: 0x29C90, symSize: 0x24 }
  - { offset: 0x7F514, size: 0x8, addend: 0x0, symName: __ZN4core4sync6atomic11AtomicUsize3new17h26dfc85ae06de15dE, symObjAddr: 0x0, symBinAddr: 0x29CB4, symSize: 0x18 }
  - { offset: 0x7F5D5, size: 0x8, addend: 0x0, symName: __ZN4core4sync6atomic11AtomicUsize3new17h26dfc85ae06de15dE, symObjAddr: 0x0, symBinAddr: 0x29CB4, symSize: 0x18 }
  - { offset: 0x7F605, size: 0x8, addend: 0x0, symName: __ZN4core4sync6atomic11AtomicUsize4load17h819f515fafd84ae7E, symObjAddr: 0x18, symBinAddr: 0x29CCC, symSize: 0x24 }
  - { offset: 0x7F655, size: 0x8, addend: 0x0, symName: '__ZN4core4iter6traits8iterator8Iterator4find5check28_$u7b$$u7b$closure$u7d$$u7d$17h9f9ef576bc1b8746E', symObjAddr: 0x0, symBinAddr: 0x29CF0, symSize: 0x84 }
  - { offset: 0x7F685, size: 0x8, addend: 0x0, symName: '__ZN4core4iter6traits8iterator8Iterator4find5check28_$u7b$$u7b$closure$u7d$$u7d$17h9f9ef576bc1b8746E', symObjAddr: 0x0, symBinAddr: 0x29CF0, symSize: 0x84 }
  - { offset: 0x7F6E1, size: 0x8, addend: 0x0, symName: '__ZN4core4iter6traits8iterator8Iterator4find5check28_$u7b$$u7b$closure$u7d$$u7d$17hbeb95a4335c91704E', symObjAddr: 0x84, symBinAddr: 0x29D74, symSize: 0x98 }
  - { offset: 0x7F74A, size: 0x8, addend: 0x0, symName: '__ZN4core4iter6traits8iterator8Iterator6max_by4fold28_$u7b$$u7b$closure$u7d$$u7d$17h1688132fdf5109c0E', symObjAddr: 0x11C, symBinAddr: 0x29E0C, symSize: 0x54 }
  - { offset: 0x7F7B6, size: 0x8, addend: 0x0, symName: '__ZN4core4iter6traits8iterator8Iterator8for_each4call28_$u7b$$u7b$closure$u7d$$u7d$17h0b9193ff0c4bc73eE', symObjAddr: 0x170, symBinAddr: 0x29E60, symSize: 0x2C }
  - { offset: 0x7F80E, size: 0x8, addend: 0x0, symName: '__ZN4core4iter6traits8iterator8Iterator8for_each4call28_$u7b$$u7b$closure$u7d$$u7d$17h229c035eb5f7d49aE', symObjAddr: 0x19C, symBinAddr: 0x29E8C, symSize: 0x28 }
  - { offset: 0x7F866, size: 0x8, addend: 0x0, symName: '__ZN4core4iter6traits8iterator8Iterator8for_each4call28_$u7b$$u7b$closure$u7d$$u7d$17h6e274e388aa541a6E', symObjAddr: 0x1C4, symBinAddr: 0x29EB4, symSize: 0x2C }
  - { offset: 0x7F8BE, size: 0x8, addend: 0x0, symName: '__ZN4core4iter6traits8iterator8Iterator8for_each4call28_$u7b$$u7b$closure$u7d$$u7d$17hacaf8213f28ba10aE', symObjAddr: 0x1F0, symBinAddr: 0x29EE0, symSize: 0x28 }
  - { offset: 0x7F916, size: 0x8, addend: 0x0, symName: '__ZN4core4iter6traits8iterator8Iterator8for_each4call28_$u7b$$u7b$closure$u7d$$u7d$17hb0c18b96c38174fcE', symObjAddr: 0x218, symBinAddr: 0x29F08, symSize: 0x28 }
  - { offset: 0x7F96E, size: 0x8, addend: 0x0, symName: '__ZN4core4iter6traits8iterator8Iterator8for_each4call28_$u7b$$u7b$closure$u7d$$u7d$17hc9e1f09f0159ac06E', symObjAddr: 0x240, symBinAddr: 0x29F30, symSize: 0x28 }
  - { offset: 0x7F9C6, size: 0x8, addend: 0x0, symName: '__ZN4core4iter6traits8iterator8Iterator8for_each4call28_$u7b$$u7b$closure$u7d$$u7d$17hf9ce817fb2f7ae00E', symObjAddr: 0x268, symBinAddr: 0x29F58, symSize: 0x28 }
  - { offset: 0x7FA2A, size: 0x8, addend: 0x0, symName: '__ZN4core4iter6traits8iterator8Iterator8position5check28_$u7b$$u7b$closure$u7d$$u7d$17ha6c6b885d3204d3dE', symObjAddr: 0x290, symBinAddr: 0x29F80, symSize: 0xB8 }
  - { offset: 0x800F8, size: 0x8, addend: 0x0, symName: __ZN11_cringepack10Cringepack18__pymethod_solve__17ha7fca139235f9c22E, symObjAddr: 0x0, symBinAddr: 0x2A038, symSize: 0x740 }
  - { offset: 0x80121, size: 0x8, addend: 0x0, symName: '__ZN11_cringepack166_$LT$impl$u20$pyo3..impl_..pyclass..PyMethods$LT$_cringepack..Cringepack$GT$$u20$for$u20$pyo3..impl_..pyclass..PyClassImplCollector$LT$_cringepack..Cringepack$GT$$GT$10py_methods5ITEMS17h68bac21d5162ec0cE', symObjAddr: 0x2960, symBinAddr: 0x3B2408, symSize: 0x0 }
  - { offset: 0x80147, size: 0x8, addend: 0x0, symName: '__ZN77_$LT$_cringepack..Cringepack$u20$as$u20$pyo3..impl_..pyclass..PyClassImpl$GT$10items_iter15INTRINSIC_ITEMS17h943c8018bca7cea0E', symObjAddr: 0x24D0, symBinAddr: 0x2D3F08, symSize: 0x0 }
  - { offset: 0x80167, size: 0x8, addend: 0x0, symName: '__ZN77_$LT$_cringepack..Cringepack$u20$as$u20$pyo3..impl_..pyclass..PyClassImpl$GT$16lazy_type_object11TYPE_OBJECT17hca5a7602fcf2a3b3E', symObjAddr: 0x2A60, symBinAddr: 0x3D4470, symSize: 0x0 }
  - { offset: 0x80175, size: 0x8, addend: 0x0, symName: '__ZN77_$LT$_cringepack..Cringepack$u20$as$u20$pyo3..impl_..pyclass..PyClassImpl$GT$10items_iter17h099f48a8c5fff51aE', symObjAddr: 0x2078, symBinAddr: 0x2C0B0, symSize: 0x38 }
  - { offset: 0x801B0, size: 0x8, addend: 0x0, symName: '__ZN77_$LT$_cringepack..Cringepack$u20$as$u20$pyo3..impl_..pyclass..PyClassImpl$GT$16lazy_type_object17hdbf25719bdd2a81bE', symObjAddr: 0x20B0, symBinAddr: 0x2C0E8, symSize: 0xC }
  - { offset: 0x804C9, size: 0x8, addend: 0x0, symName: __ZN11_cringepack11_cringepack17h50ac2e314a95c4b9E, symObjAddr: 0x1F1C, symBinAddr: 0x2BF54, symSize: 0xB0 }
  - { offset: 0x80514, size: 0x8, addend: 0x0, symName: __ZN11_cringepack12gen_mat_view17he6c789641241edacE, symObjAddr: 0x1FCC, symBinAddr: 0x2C004, symSize: 0x6C }
  - { offset: 0x80581, size: 0x8, addend: 0x0, symName: '__ZN73_$LT$_cringepack..Cringepack$u20$as$u20$pyo3..type_object..PyTypeInfo$GT$15type_object_raw17hcf9713a725499f40E', symObjAddr: 0x2038, symBinAddr: 0x2C070, symSize: 0x40 }
  - { offset: 0x83763, size: 0x8, addend: 0x0, symName: __ZN11_cringepack10Cringepack18__pymethod_solve__17ha7fca139235f9c22E, symObjAddr: 0x0, symBinAddr: 0x2A038, symSize: 0x740 }
  - { offset: 0x839DC, size: 0x8, addend: 0x0, symName: __ZN11_cringepack10Cringepack20__pymethod___new____17hc10065373a412ecbE, symObjAddr: 0x740, symBinAddr: 0x2A778, symSize: 0xF8 }
  - { offset: 0x83ADE, size: 0x8, addend: 0x0, symName: __ZN11_cringepack10Cringepack20__pymethod_solve_b__17h611dd6a425d4578bE, symObjAddr: 0x838, symBinAddr: 0x2A870, symSize: 0x3F8 }
  - { offset: 0x83C71, size: 0x8, addend: 0x0, symName: __ZN11_cringepack10Cringepack21__pymethod_cholesky__17hd4d47810976db44dE, symObjAddr: 0xC30, symBinAddr: 0x2AC68, symSize: 0x588 }
  - { offset: 0x83EA8, size: 0x8, addend: 0x0, symName: __ZN11_cringepack10Cringepack22__pymethod_factorize__17h21d9c5bec3ee9901E, symObjAddr: 0x11B8, symBinAddr: 0x2B1F0, symSize: 0x588 }
  - { offset: 0x840DF, size: 0x8, addend: 0x0, symName: __ZN11_cringepack10Cringepack3new17h543616f330e8f5deE, symObjAddr: 0x1740, symBinAddr: 0x2B778, symSize: 0x44 }
  - { offset: 0x842D6, size: 0x8, addend: 0x0, symName: __ZN11_cringepack10Cringepack5solve17hcbe307ed89ccd3bcE, symObjAddr: 0x1784, symBinAddr: 0x2B7BC, symSize: 0x2B0 }
  - { offset: 0x8447D, size: 0x8, addend: 0x0, symName: __ZN11_cringepack10Cringepack7solve_b17hed9b13bdaec17c6aE, symObjAddr: 0x1A34, symBinAddr: 0x2BA6C, symSize: 0x120 }
  - { offset: 0x84526, size: 0x8, addend: 0x0, symName: __ZN11_cringepack10Cringepack8cholesky17h9291e43a5656b94bE, symObjAddr: 0x1B54, symBinAddr: 0x2BB8C, symSize: 0x1F8 }
  - { offset: 0x84679, size: 0x8, addend: 0x0, symName: __ZN11_cringepack10Cringepack9factorize17he849e9c9086afbe3E, symObjAddr: 0x1D4C, symBinAddr: 0x2BD84, symSize: 0x1D0 }
  - { offset: 0x848CF, size: 0x8, addend: 0x0, symName: _PyInit__cringepack, symObjAddr: 0x0, symBinAddr: 0x2C0F4, symSize: 0x34 }
  - { offset: 0x848F3, size: 0x8, addend: 0x0, symName: __ZN11_cringepack11_cringepack9_PYO3_DEF17hb7e6763d518c6e94E, symObjAddr: 0xE0, symBinAddr: 0x3D44D8, symSize: 0x0 }
  - { offset: 0x84912, size: 0x8, addend: 0x0, symName: __ZN11_cringepack11_cringepack9_PYO3_DEF5SLOTS17hef098674745d49e9E, symObjAddr: 0x160, symBinAddr: 0x3D4558, symSize: 0x0 }
  - { offset: 0x8491F, size: 0x8, addend: 0x0, symName: __ZN11_cringepack11_cringepack9_PYO3_DEF18__pyo3_module_exec17h5d28c6fffec43796E, symObjAddr: 0x34, symBinAddr: 0x2C128, symSize: 0x3C }
  - { offset: 0x8494C, size: 0x8, addend: 0x0, symName: _PyInit__cringepack, symObjAddr: 0x0, symBinAddr: 0x2C0F4, symSize: 0x34 }
  - { offset: 0x86D4C, size: 0x8, addend: 0x0, symName: '__ZN11_cringepack54_$LT$impl$u20$_cringepack.._cringepack..ModuleExec$GT$18__pyo3_module_exec17h797f6c0a105358f1E', symObjAddr: 0x70, symBinAddr: 0x2C164, symSize: 0x38 }
  - { offset: 0x86D8C, size: 0x8, addend: 0x0, symName: '__ZN4core3f6421_$LT$impl$u20$f64$GT$9total_cmp17h3375a7edbb72b422E', symObjAddr: 0x0, symBinAddr: 0x2C19C, symSize: 0x70 }
  - { offset: 0x86DE9, size: 0x8, addend: 0x0, symName: '__ZN4core3f6421_$LT$impl$u20$f64$GT$9total_cmp17h3375a7edbb72b422E', symObjAddr: 0x0, symBinAddr: 0x2C19C, symSize: 0x70 }
  - { offset: 0x86E77, size: 0x8, addend: 0x0, symName: __ZN11_cringepack9metisperm17nested_dissection17h619ebd707480563bE, symObjAddr: 0x0, symBinAddr: 0x2C20C, symSize: 0x6C8 }
  - { offset: 0x86F1B, size: 0x8, addend: 0x0, symName: __ZN11_cringepack9metisperm17nested_dissection17h619ebd707480563bE, symObjAddr: 0x0, symBinAddr: 0x2C20C, symSize: 0x6C8 }
  - { offset: 0x8768A, size: 0x8, addend: 0x0, symName: __ZN4core3fmt9Arguments17from_str_nonconst17h22d2402cb03de6ebE, symObjAddr: 0x0, symBinAddr: 0x2C8D4, symSize: 0x28 }
  - { offset: 0x8781E, size: 0x8, addend: 0x0, symName: '__ZN59_$LT$core..fmt..Arguments$u20$as$u20$core..clone..Clone$GT$5clone17h1436035aaac1985fE', symObjAddr: 0x1F0, symBinAddr: 0x2CAC4, symSize: 0x20 }
  - { offset: 0x87B5B, size: 0x8, addend: 0x0, symName: __ZN4core3fmt9Arguments17from_str_nonconst17h22d2402cb03de6ebE, symObjAddr: 0x0, symBinAddr: 0x2C8D4, symSize: 0x28 }
  - { offset: 0x87BE9, size: 0x8, addend: 0x0, symName: __ZN4core3fmt9Arguments23as_statically_known_str17hb8626f7778e7a983E, symObjAddr: 0x28, symBinAddr: 0x2C8FC, symSize: 0x104 }
  - { offset: 0x87CAB, size: 0x8, addend: 0x0, symName: __ZN4core3fmt9Arguments8from_str17hd22e745f5e41845dE, symObjAddr: 0x12C, symBinAddr: 0x2CA00, symSize: 0x20 }
  - { offset: 0x87CCE, size: 0x8, addend: 0x0, symName: __ZN4core3fmt9Formatter9write_fmt17ha9736a6aa10ad108E, symObjAddr: 0x14C, symBinAddr: 0x2CA20, symSize: 0xA4 }
  - { offset: 0x87D3C, size: 0x8, addend: 0x0, symName: '__ZN62_$LT$numpy..error..BorrowError$u20$as$u20$core..fmt..Debug$GT$3fmt17h9ab95b96269c73a0E', symObjAddr: 0x0, symBinAddr: 0x2CAE4, symSize: 0x74 }
  - { offset: 0x87D70, size: 0x8, addend: 0x0, symName: '__ZN62_$LT$numpy..error..BorrowError$u20$as$u20$core..fmt..Debug$GT$3fmt17h9ab95b96269c73a0E', symObjAddr: 0x0, symBinAddr: 0x2CAE4, symSize: 0x74 }
  - { offset: 0x87F3F, size: 0x8, addend: 0x0, symName: '__ZN11_cringepack8linsolve10generic_lu28_$u7b$$u7b$closure$u7d$$u7d$17h5b23592f54addd77E', symObjAddr: 0x0, symBinAddr: 0x2CB58, symSize: 0x40 }
  - { offset: 0x87F5B, size: 0x8, addend: 0x0, symName: '__ZN11_cringepack8linsolve10generic_lu28_$u7b$$u7b$closure$u7d$$u7d$17h5b23592f54addd77E', symObjAddr: 0x0, symBinAddr: 0x2CB58, symSize: 0x40 }
  - { offset: 0x87F9E, size: 0x8, addend: 0x0, symName: '__ZN11_cringepack8linsolve14solve_drhs_isl28_$u7b$$u7b$closure$u7d$$u7d$17hf6534594d7c372c6E', symObjAddr: 0x40, symBinAddr: 0x2CB98, symSize: 0x34 }
  - { offset: 0x88023, size: 0x8, addend: 0x0, symName: '__ZN4core3ops8function5impls79_$LT$impl$u20$core..ops..function..FnMut$LT$A$GT$$u20$for$u20$$RF$mut$u20$F$GT$8call_mut17h079eeac147f33559E', symObjAddr: 0x74, symBinAddr: 0x2CBCC, symSize: 0x30 }
  - { offset: 0x8814C, size: 0x8, addend: 0x0, symName: '__ZN100_$LT$core..iter..adapters..take..Take$LT$I$GT$$u20$as$u20$core..iter..traits..iterator..Iterator$GT$4next17h005b0d983c5f3a41E', symObjAddr: 0x0, symBinAddr: 0x2CBFC, symSize: 0x58 }
  - { offset: 0x88981, size: 0x8, addend: 0x0, symName: '__ZN100_$LT$core..iter..adapters..take..Take$LT$I$GT$$u20$as$u20$core..iter..traits..iterator..Iterator$GT$4next17h005b0d983c5f3a41E', symObjAddr: 0x0, symBinAddr: 0x2CBFC, symSize: 0x58 }
  - { offset: 0x88A40, size: 0x8, addend: 0x0, symName: __ZN4core4iter6traits8iterator8Iterator9enumerate17hfe14b178b58c6107E, symObjAddr: 0x58, symBinAddr: 0x2CC54, symSize: 0x18 }
  - { offset: 0x88A71, size: 0x8, addend: 0x0, symName: __ZN4core4iter6traits8iterator8Iterator9enumerate17hfe14b178b58c6107E, symObjAddr: 0x58, symBinAddr: 0x2CC54, symSize: 0x18 }
  - { offset: 0x89B21, size: 0x8, addend: 0x0, symName: '__ZN106_$LT$core..ops..range..Range$LT$usize$GT$$u20$as$u20$core..slice..index..SliceIndex$LT$$u5b$T$u5d$$GT$$GT$17get_unchecked_mut18precondition_check17hddc1a55d46f748e9E', symObjAddr: 0x0, symBinAddr: 0x2CC6C, symSize: 0x80 }
  - { offset: 0x89B47, size: 0x8, addend: 0x0, symName: '__ZN106_$LT$core..ops..range..Range$LT$usize$GT$$u20$as$u20$core..slice..index..SliceIndex$LT$$u5b$T$u5d$$GT$$GT$17get_unchecked_mut18precondition_check17hddc1a55d46f748e9E', symObjAddr: 0x0, symBinAddr: 0x2CC6C, symSize: 0x80 }
  - { offset: 0x89BB4, size: 0x8, addend: 0x0, symName: '__ZN75_$LT$usize$u20$as$u20$core..slice..index..SliceIndex$LT$$u5b$T$u5d$$GT$$GT$13get_unchecked18precondition_check17h34baae81698ad872E', symObjAddr: 0x80, symBinAddr: 0x2CCEC, symSize: 0x60 }
  - { offset: 0x89C5F, size: 0x8, addend: 0x0, symName: '__ZN87_$LT$$BP$mut$u20$pyo3_ffi..object..PyObject$u20$as$u20$pyo3..ffi_ptr_ext..FfiPtrExt$GT$12assume_owned17h9b5e25620283d95fE', symObjAddr: 0x0, symBinAddr: 0x2CD4C, symSize: 0x24 }
  - { offset: 0x89CB2, size: 0x8, addend: 0x0, symName: __ZN8pyo3_ffi6object10Py_IS_TYPE17h54d28a39d576e82bE, symObjAddr: 0x6C, symBinAddr: 0x2CDB8, symSize: 0x38 }
  - { offset: 0x89CEC, size: 0x8, addend: 0x0, symName: __ZN8pyo3_ffi6object18PyObject_TypeCheck17hfc42dc995386c3a5E, symObjAddr: 0xA4, symBinAddr: 0x2CDF0, symSize: 0x70 }
  - { offset: 0x89D29, size: 0x8, addend: 0x0, symName: __ZN8pyo3_ffi6object7Py_None17hb6d7cd94343a6e96E, symObjAddr: 0x114, symBinAddr: 0x2CE60, symSize: 0xC }
  - { offset: 0x8B179, size: 0x8, addend: 0x0, symName: '__ZN87_$LT$$BP$mut$u20$pyo3_ffi..object..PyObject$u20$as$u20$pyo3..ffi_ptr_ext..FfiPtrExt$GT$12assume_owned17h9b5e25620283d95fE', symObjAddr: 0x0, symBinAddr: 0x2CD4C, symSize: 0x24 }
  - { offset: 0x8B1BE, size: 0x8, addend: 0x0, symName: '__ZN87_$LT$$BP$mut$u20$pyo3_ffi..object..PyObject$u20$as$u20$pyo3..ffi_ptr_ext..FfiPtrExt$GT$22assume_borrowed_or_err17hd23e4b8c7bcf6314E', symObjAddr: 0x24, symBinAddr: 0x2CD70, symSize: 0x24 }
  - { offset: 0x8B203, size: 0x8, addend: 0x0, symName: '__ZN87_$LT$$BP$mut$u20$pyo3_ffi..object..PyObject$u20$as$u20$pyo3..ffi_ptr_ext..FfiPtrExt$GT$25assume_borrowed_unchecked17h0d7e1878cb52d143E', symObjAddr: 0x48, symBinAddr: 0x2CD94, symSize: 0x24 }
  - { offset: 0x8BB26, size: 0x8, addend: 0x0, symName: '__ZN110_$LT$core..iter..adapters..enumerate..Enumerate$LT$I$GT$$u20$as$u20$core..iter..traits..iterator..Iterator$GT$4fold17hc3ddda87ef069730E', symObjAddr: 0x0, symBinAddr: 0x2CE6C, symSize: 0x78 }
  - { offset: 0x8C3C5, size: 0x8, addend: 0x0, symName: '__ZN110_$LT$core..iter..adapters..enumerate..Enumerate$LT$I$GT$$u20$as$u20$core..iter..traits..iterator..Iterator$GT$4fold9enumerate28_$u7b$$u7b$closure$u7d$$u7d$17h3f47340da309c2f8E', symObjAddr: 0x78, symBinAddr: 0x2CEE4, symSize: 0xD0 }
  - { offset: 0x8C455, size: 0x8, addend: 0x0, symName: '__ZN110_$LT$core..iter..adapters..enumerate..Enumerate$LT$I$GT$$u20$as$u20$core..iter..traits..iterator..Iterator$GT$4fold17hc3ddda87ef069730E', symObjAddr: 0x0, symBinAddr: 0x2CE6C, symSize: 0x78 }
  - { offset: 0x8C4DE, size: 0x8, addend: 0x0, symName: '__ZN110_$LT$core..iter..adapters..enumerate..Enumerate$LT$I$GT$$u20$as$u20$core..iter..traits..iterator..Iterator$GT$4next17h6c1b41e2157a8ec8E', symObjAddr: 0x148, symBinAddr: 0x2CFB4, symSize: 0xEC }
  - { offset: 0x8C5C4, size: 0x8, addend: 0x0, symName: '__ZN110_$LT$core..iter..adapters..enumerate..Enumerate$LT$I$GT$$u20$as$u20$core..iter..traits..iterator..Iterator$GT$4next17hd2cf4968a0fbc52fE', symObjAddr: 0x234, symBinAddr: 0x2D0A0, symSize: 0xE0 }
  - { offset: 0x8C6AA, size: 0x8, addend: 0x0, symName: '__ZN110_$LT$core..iter..adapters..enumerate..Enumerate$LT$I$GT$$u20$as$u20$core..iter..traits..iterator..Iterator$GT$4next17hd4c4b014ec2bd415E', symObjAddr: 0x314, symBinAddr: 0x2D180, symSize: 0xE0 }
  - { offset: 0x8C790, size: 0x8, addend: 0x0, symName: '__ZN110_$LT$core..iter..adapters..enumerate..Enumerate$LT$I$GT$$u20$as$u20$core..iter..traits..iterator..Iterator$GT$8try_fold17hccf65d35af52a2d5E', symObjAddr: 0x3F4, symBinAddr: 0x2D260, symSize: 0x38 }
  - { offset: 0x8C806, size: 0x8, addend: 0x0, symName: '__ZN110_$LT$core..iter..adapters..enumerate..Enumerate$LT$I$GT$$u20$as$u20$core..iter..traits..iterator..Iterator$GT$8try_fold9enumerate28_$u7b$$u7b$closure$u7d$$u7d$17hf132c5e8bb409ceaE', symObjAddr: 0x42C, symBinAddr: 0x2D298, symSize: 0xB4 }
  - { offset: 0x8CA05, size: 0x8, addend: 0x0, symName: __ZN4core4iter6traits8iterator8Iterator4find17h18797bd895769688E, symObjAddr: 0x4E0, symBinAddr: 0x2D34C, symSize: 0x8C }
  - { offset: 0x8CA84, size: 0x8, addend: 0x0, symName: __ZN4core4iter6traits8iterator8Iterator6filter17h496e5b4ef00f3565E, symObjAddr: 0x56C, symBinAddr: 0x2D3D8, symSize: 0x34 }
  - { offset: 0x8CB13, size: 0x8, addend: 0x0, symName: '__ZN63_$LT$I$u20$as$u20$core..iter..traits..collect..IntoIterator$GT$9into_iter17h518eb50c4a4791c3E', symObjAddr: 0x5A0, symBinAddr: 0x2D40C, symSize: 0x18 }
  - { offset: 0x8CB4A, size: 0x8, addend: 0x0, symName: '__ZN63_$LT$I$u20$as$u20$core..iter..traits..collect..IntoIterator$GT$9into_iter17heccab2ec72115989E', symObjAddr: 0x5B8, symBinAddr: 0x2D424, symSize: 0x30 }
  - { offset: 0x8E5CC, size: 0x8, addend: 0x0, symName: __ZN4core4iter6traits8iterator8Iterator3zip17h6d0cc4d885958e4bE, symObjAddr: 0x0, symBinAddr: 0x2D454, symSize: 0xB4 }
  - { offset: 0x8EEFB, size: 0x8, addend: 0x0, symName: __ZN4core4iter6traits8iterator8Iterator3zip17h6d0cc4d885958e4bE, symObjAddr: 0x0, symBinAddr: 0x2D454, symSize: 0xB4 }
  - { offset: 0x8EF71, size: 0x8, addend: 0x0, symName: __ZN4core4iter6traits8iterator8Iterator4take17h580cd79b1b493728E, symObjAddr: 0xB4, symBinAddr: 0x2D508, symSize: 0x24 }
  - { offset: 0x900AE, size: 0x8, addend: 0x0, symName: '__ZN4core3num23_$LT$impl$u20$isize$GT$12unsigned_abs17h828d0203d87ad299E', symObjAddr: 0x0, symBinAddr: 0x2D52C, symSize: 0x40 }
  - { offset: 0x90117, size: 0x8, addend: 0x0, symName: '__ZN4core3num23_$LT$impl$u20$isize$GT$12unsigned_abs17h828d0203d87ad299E', symObjAddr: 0x0, symBinAddr: 0x2D52C, symSize: 0x40 }
  - { offset: 0x901B9, size: 0x8, addend: 0x0, symName: '__ZN4core3num23_$LT$impl$u20$isize$GT$13unchecked_neg18precondition_check17hafb31226e1328977E', symObjAddr: 0x40, symBinAddr: 0x2D56C, symSize: 0x6C }
  - { offset: 0x9023B, size: 0x8, addend: 0x0, symName: '__ZN4core3num23_$LT$impl$u20$isize$GT$3abs17he9e03565b108cedfE', symObjAddr: 0xAC, symBinAddr: 0x2D5D8, symSize: 0x6C }
  - { offset: 0x9026F, size: 0x8, addend: 0x0, symName: '__ZN4core3num23_$LT$impl$u20$usize$GT$11checked_add17hc8d7b38037e98765E', symObjAddr: 0x118, symBinAddr: 0x2D644, symSize: 0x7C }
  - { offset: 0x902F4, size: 0x8, addend: 0x0, symName: '__ZN4core3num23_$LT$impl$u20$usize$GT$11checked_mul17h7c6a2cb00acde58dE', symObjAddr: 0x194, symBinAddr: 0x2D6C0, symSize: 0x74 }
  - { offset: 0x903D2, size: 0x8, addend: 0x0, symName: '__ZN4core3num23_$LT$impl$u20$usize$GT$13unchecked_add18precondition_check17h0a2bf2c869a88992E', symObjAddr: 0x208, symBinAddr: 0x2D734, symSize: 0x64 }
  - { offset: 0x905BB, size: 0x8, addend: 0x0, symName: '__ZN50_$LT$T$u20$as$u20$core..convert..Into$LT$U$GT$$GT$4into17h40a5f4110b70d5aeE', symObjAddr: 0x0, symBinAddr: 0x2D798, symSize: 0x24 }
  - { offset: 0x90DED, size: 0x8, addend: 0x0, symName: '__ZN50_$LT$T$u20$as$u20$core..convert..Into$LT$U$GT$$GT$4into17h40a5f4110b70d5aeE', symObjAddr: 0x0, symBinAddr: 0x2D798, symSize: 0x24 }
  - { offset: 0x90E29, size: 0x8, addend: 0x0, symName: '__ZN50_$LT$T$u20$as$u20$core..convert..Into$LT$U$GT$$GT$4into17h8c01256609b322a2E', symObjAddr: 0x24, symBinAddr: 0x2D7BC, symSize: 0x2C }
  - { offset: 0x91843, size: 0x8, addend: 0x0, symName: '__ZN74_$LT$numpy..error..IgnoreError$u20$as$u20$core..convert..From$LT$E$GT$$GT$4from17hbaa03d61d4ca0318E', symObjAddr: 0x50, symBinAddr: 0x2D7E8, symSize: 0x2C }
  - { offset: 0x91874, size: 0x8, addend: 0x0, symName: '__ZN74_$LT$numpy..error..IgnoreError$u20$as$u20$core..convert..From$LT$E$GT$$GT$4from17hd181cae478407d6dE', symObjAddr: 0x7C, symBinAddr: 0x2D814, symSize: 0x14 }
  - { offset: 0x918A5, size: 0x8, addend: 0x0, symName: '__ZN74_$LT$numpy..error..IgnoreError$u20$as$u20$core..convert..From$LT$E$GT$$GT$4from17he79b7aae5330036aE', symObjAddr: 0x90, symBinAddr: 0x2D828, symSize: 0x2C }
  - { offset: 0x91FA9, size: 0x8, addend: 0x0, symName: '__ZN57_$LT$usize$u20$as$u20$core..slice..cmp..SliceContains$GT$14slice_contains28_$u7b$$u7b$closure$u7d$$u7d$17h61c8104feeab8449E', symObjAddr: 0x0, symBinAddr: 0x2D854, symSize: 0x38 }
  - { offset: 0x91FCF, size: 0x8, addend: 0x0, symName: '__ZN57_$LT$usize$u20$as$u20$core..slice..cmp..SliceContains$GT$14slice_contains28_$u7b$$u7b$closure$u7d$$u7d$17h61c8104feeab8449E', symObjAddr: 0x0, symBinAddr: 0x2D854, symSize: 0x38 }
  - { offset: 0x9201E, size: 0x8, addend: 0x0, symName: '__ZN57_$LT$usize$u20$as$u20$core..slice..cmp..SliceContains$GT$14slice_contains28_$u7b$$u7b$closure$u7d$$u7d$17hc85058bea23363fbE', symObjAddr: 0x38, symBinAddr: 0x2D88C, symSize: 0x30 }
  - { offset: 0x9209C, size: 0x8, addend: 0x0, symName: '__ZN113_$LT$ndarray..slice..SliceInfoElem$u20$as$u20$core..convert..From$LT$core..ops..range..Range$LT$usize$GT$$GT$$GT$4from17h7109718419659e7aE', symObjAddr: 0x0, symBinAddr: 0x2D8BC, symSize: 0x2C }
  - { offset: 0x920B8, size: 0x8, addend: 0x0, symName: '__ZN113_$LT$ndarray..slice..SliceInfoElem$u20$as$u20$core..convert..From$LT$core..ops..range..Range$LT$usize$GT$$GT$$GT$4from17h7109718419659e7aE', symObjAddr: 0x0, symBinAddr: 0x2D8BC, symSize: 0x2C }
  - { offset: 0x92247, size: 0x8, addend: 0x0, symName: '__ZN4core3mem13manually_drop21ManuallyDrop$LT$T$GT$4drop17h9c795df8b91a5d32E', symObjAddr: 0x0, symBinAddr: 0x2D8E8, symSize: 0x24 }
  - { offset: 0x92872, size: 0x8, addend: 0x0, symName: '__ZN4core3mem13manually_drop21ManuallyDrop$LT$T$GT$4drop17h9c795df8b91a5d32E', symObjAddr: 0x0, symBinAddr: 0x2D8E8, symSize: 0x24 }
  - { offset: 0x928BB, size: 0x8, addend: 0x0, symName: '__ZN185_$LT$core..ops..control_flow..ControlFlow$LT$B$C$C$GT$$u20$as$u20$core..ops..try_trait..FromResidual$LT$core..ops..control_flow..ControlFlow$LT$B$C$core..convert..Infallible$GT$$GT$$GT$13from_residual17h5f1d690d5acf79e0E', symObjAddr: 0x0, symBinAddr: 0x2D90C, symSize: 0x38 }
  - { offset: 0x928DC, size: 0x8, addend: 0x0, symName: '__ZN185_$LT$core..ops..control_flow..ControlFlow$LT$B$C$C$GT$$u20$as$u20$core..ops..try_trait..FromResidual$LT$core..ops..control_flow..ControlFlow$LT$B$C$core..convert..Infallible$GT$$GT$$GT$13from_residual17h5f1d690d5acf79e0E', symObjAddr: 0x0, symBinAddr: 0x2D90C, symSize: 0x38 }
  - { offset: 0x9291A, size: 0x8, addend: 0x0, symName: '__ZN185_$LT$core..ops..control_flow..ControlFlow$LT$B$C$C$GT$$u20$as$u20$core..ops..try_trait..FromResidual$LT$core..ops..control_flow..ControlFlow$LT$B$C$core..convert..Infallible$GT$$GT$$GT$13from_residual17h78e27c047683d067E', symObjAddr: 0x38, symBinAddr: 0x2D944, symSize: 0x18 }
  - { offset: 0x9295E, size: 0x8, addend: 0x0, symName: '__ZN95_$LT$core..ops..control_flow..ControlFlow$LT$B$C$C$GT$$u20$as$u20$core..ops..try_trait..Try$GT$11from_output17h16721b30a76578a9E', symObjAddr: 0x50, symBinAddr: 0x2D95C, symSize: 0x10 }
  - { offset: 0x9299C, size: 0x8, addend: 0x0, symName: '__ZN95_$LT$core..ops..control_flow..ControlFlow$LT$B$C$C$GT$$u20$as$u20$core..ops..try_trait..Try$GT$11from_output17h248cc72e3ad86f99E', symObjAddr: 0x60, symBinAddr: 0x2D96C, symSize: 0x10 }
  - { offset: 0x929DA, size: 0x8, addend: 0x0, symName: '__ZN95_$LT$core..ops..control_flow..ControlFlow$LT$B$C$C$GT$$u20$as$u20$core..ops..try_trait..Try$GT$6branch17h77b80b149b43850eE', symObjAddr: 0x70, symBinAddr: 0x2D97C, symSize: 0x70 }
  - { offset: 0x92A54, size: 0x8, addend: 0x0, symName: '__ZN95_$LT$core..ops..control_flow..ControlFlow$LT$B$C$C$GT$$u20$as$u20$core..ops..try_trait..Try$GT$6branch17hfa564c3b830fbb8dE', symObjAddr: 0xE0, symBinAddr: 0x2D9EC, symSize: 0x54 }
  - { offset: 0x92E77, size: 0x8, addend: 0x0, symName: '__ZN111_$LT$alloc..vec..Vec$LT$T$GT$$u20$as$u20$alloc..vec..spec_from_iter_nested..SpecFromIterNested$LT$T$C$I$GT$$GT$9from_iter17h221d23476ed60afbE', symObjAddr: 0x0, symBinAddr: 0x2DA40, symSize: 0x134 }
  - { offset: 0x95CA4, size: 0x8, addend: 0x0, symName: '__ZN111_$LT$alloc..vec..Vec$LT$T$GT$$u20$as$u20$alloc..vec..spec_from_iter_nested..SpecFromIterNested$LT$T$C$I$GT$$GT$9from_iter17h221d23476ed60afbE', symObjAddr: 0x0, symBinAddr: 0x2DA40, symSize: 0x134 }
  - { offset: 0x95D66, size: 0x8, addend: 0x0, symName: '__ZN111_$LT$alloc..vec..Vec$LT$T$GT$$u20$as$u20$alloc..vec..spec_from_iter_nested..SpecFromIterNested$LT$T$C$I$GT$$GT$9from_iter17h4dac32a9c7a42c81E', symObjAddr: 0x134, symBinAddr: 0x2DB74, symSize: 0x12C }
  - { offset: 0x95E27, size: 0x8, addend: 0x0, symName: '__ZN111_$LT$alloc..vec..Vec$LT$T$GT$$u20$as$u20$alloc..vec..spec_from_iter_nested..SpecFromIterNested$LT$T$C$I$GT$$GT$9from_iter17h93c359c4f4499b6cE', symObjAddr: 0x260, symBinAddr: 0x2DCA0, symSize: 0x13C }
  - { offset: 0x95EE9, size: 0x8, addend: 0x0, symName: '__ZN111_$LT$alloc..vec..Vec$LT$T$GT$$u20$as$u20$alloc..vec..spec_from_iter_nested..SpecFromIterNested$LT$T$C$I$GT$$GT$9from_iter17ha063acb7f9ccd1d5E', symObjAddr: 0x39C, symBinAddr: 0x2DDDC, symSize: 0x12C }
  - { offset: 0x95FAA, size: 0x8, addend: 0x0, symName: '__ZN111_$LT$alloc..vec..Vec$LT$T$GT$$u20$as$u20$alloc..vec..spec_from_iter_nested..SpecFromIterNested$LT$T$C$I$GT$$GT$9from_iter17ha267df3faee93456E', symObjAddr: 0x4C8, symBinAddr: 0x2DF08, symSize: 0x134 }
  - { offset: 0x9606C, size: 0x8, addend: 0x0, symName: '__ZN111_$LT$alloc..vec..Vec$LT$T$GT$$u20$as$u20$alloc..vec..spec_from_iter_nested..SpecFromIterNested$LT$T$C$I$GT$$GT$9from_iter17hbc17fbdeb9919a00E', symObjAddr: 0x5FC, symBinAddr: 0x2E03C, symSize: 0x12C }
  - { offset: 0x9612D, size: 0x8, addend: 0x0, symName: '__ZN111_$LT$alloc..vec..Vec$LT$T$GT$$u20$as$u20$alloc..vec..spec_from_iter_nested..SpecFromIterNested$LT$T$C$I$GT$$GT$9from_iter17hd3790acb2507e343E', symObjAddr: 0x728, symBinAddr: 0x2E168, symSize: 0x130 }
  - { offset: 0x964C5, size: 0x8, addend: 0x0, symName: '__ZN132_$LT$alloc..vec..Vec$LT$T$C$A$GT$$u20$as$u20$alloc..vec..spec_extend..SpecExtend$LT$$RF$T$C$core..slice..iter..Iter$LT$T$GT$$GT$$GT$11spec_extend17h08128240fa0cfb3dE', symObjAddr: 0x858, symBinAddr: 0x2E298, symSize: 0xA4 }
  - { offset: 0x965DC, size: 0x8, addend: 0x0, symName: '__ZN97_$LT$alloc..vec..Vec$LT$T$C$A$GT$$u20$as$u20$alloc..vec..spec_extend..SpecExtend$LT$T$C$I$GT$$GT$11spec_extend17h0f70a567520f8169E', symObjAddr: 0x399C, symBinAddr: 0x313DC, symSize: 0x34 }
  - { offset: 0x9662D, size: 0x8, addend: 0x0, symName: '__ZN97_$LT$alloc..vec..Vec$LT$T$C$A$GT$$u20$as$u20$alloc..vec..spec_extend..SpecExtend$LT$T$C$I$GT$$GT$11spec_extend17h1a1a9e8ae1362d45E', symObjAddr: 0x39D0, symBinAddr: 0x31410, symSize: 0x24 }
  - { offset: 0x9667F, size: 0x8, addend: 0x0, symName: '__ZN97_$LT$alloc..vec..Vec$LT$T$C$A$GT$$u20$as$u20$alloc..vec..spec_extend..SpecExtend$LT$T$C$I$GT$$GT$11spec_extend17h5e06004770c9df48E', symObjAddr: 0x39F4, symBinAddr: 0x31434, symSize: 0x2C }
  - { offset: 0x966D0, size: 0x8, addend: 0x0, symName: '__ZN97_$LT$alloc..vec..Vec$LT$T$C$A$GT$$u20$as$u20$alloc..vec..spec_extend..SpecExtend$LT$T$C$I$GT$$GT$11spec_extend17h6c1a40f2d9292de8E', symObjAddr: 0x3A20, symBinAddr: 0x31460, symSize: 0x24 }
  - { offset: 0x96722, size: 0x8, addend: 0x0, symName: '__ZN97_$LT$alloc..vec..Vec$LT$T$C$A$GT$$u20$as$u20$alloc..vec..spec_extend..SpecExtend$LT$T$C$I$GT$$GT$11spec_extend17h8e5cfc285f3f6514E', symObjAddr: 0x3A44, symBinAddr: 0x31484, symSize: 0x24 }
  - { offset: 0x96774, size: 0x8, addend: 0x0, symName: '__ZN97_$LT$alloc..vec..Vec$LT$T$C$A$GT$$u20$as$u20$alloc..vec..spec_extend..SpecExtend$LT$T$C$I$GT$$GT$11spec_extend17hded565d10657e19eE', symObjAddr: 0x3A68, symBinAddr: 0x314A8, symSize: 0x34 }
  - { offset: 0x967C5, size: 0x8, addend: 0x0, symName: '__ZN97_$LT$alloc..vec..Vec$LT$T$C$A$GT$$u20$as$u20$alloc..vec..spec_extend..SpecExtend$LT$T$C$I$GT$$GT$11spec_extend17hef239d7606682784E', symObjAddr: 0x3A9C, symBinAddr: 0x314DC, symSize: 0x24 }
  - { offset: 0x97223, size: 0x8, addend: 0x0, symName: '__ZN5alloc3vec16Vec$LT$T$C$A$GT$14extend_trusted28_$u7b$$u7b$closure$u7d$$u7d$17h048be0af16506a51E', symObjAddr: 0x1B48, symBinAddr: 0x2F588, symSize: 0x30 }
  - { offset: 0x972CB, size: 0x8, addend: 0x0, symName: '__ZN5alloc3vec16Vec$LT$T$C$A$GT$14extend_trusted28_$u7b$$u7b$closure$u7d$$u7d$17h18ca6aaddac872b1E', symObjAddr: 0x1B78, symBinAddr: 0x2F5B8, symSize: 0x30 }
  - { offset: 0x97373, size: 0x8, addend: 0x0, symName: '__ZN5alloc3vec16Vec$LT$T$C$A$GT$14extend_trusted28_$u7b$$u7b$closure$u7d$$u7d$17h36f2083acb6a0186E', symObjAddr: 0x1BA8, symBinAddr: 0x2F5E8, symSize: 0x3C }
  - { offset: 0x97430, size: 0x8, addend: 0x0, symName: '__ZN5alloc3vec16Vec$LT$T$C$A$GT$14extend_trusted28_$u7b$$u7b$closure$u7d$$u7d$17h587e59e7459f2759E', symObjAddr: 0x1BE4, symBinAddr: 0x2F624, symSize: 0x30 }
  - { offset: 0x974D8, size: 0x8, addend: 0x0, symName: '__ZN5alloc3vec16Vec$LT$T$C$A$GT$14extend_trusted28_$u7b$$u7b$closure$u7d$$u7d$17ha84b80782ab44346E', symObjAddr: 0x1C14, symBinAddr: 0x2F654, symSize: 0x3C }
  - { offset: 0x97595, size: 0x8, addend: 0x0, symName: '__ZN5alloc3vec16Vec$LT$T$C$A$GT$14extend_trusted28_$u7b$$u7b$closure$u7d$$u7d$17hb34495910ff4dcb9E', symObjAddr: 0x1C50, symBinAddr: 0x2F690, symSize: 0x30 }
  - { offset: 0x9763D, size: 0x8, addend: 0x0, symName: '__ZN5alloc3vec16Vec$LT$T$C$A$GT$14extend_trusted28_$u7b$$u7b$closure$u7d$$u7d$17hcdfa0dc096bd1f00E', symObjAddr: 0x1C80, symBinAddr: 0x2F6C0, symSize: 0x30 }
  - { offset: 0x976F1, size: 0x8, addend: 0x0, symName: '__ZN5alloc3vec16Vec$LT$T$C$A$GT$5dedup28_$u7b$$u7b$closure$u7d$$u7d$17hade35f64234dc7b8E', symObjAddr: 0x2180, symBinAddr: 0x2FBC0, symSize: 0x3C }
  - { offset: 0x97769, size: 0x8, addend: 0x0, symName: __ZN5alloc3vec9from_elem17h009fd9e83e502af9E, symObjAddr: 0x2DC0, symBinAddr: 0x30800, symSize: 0x24 }
  - { offset: 0x977AF, size: 0x8, addend: 0x0, symName: __ZN5alloc3vec9from_elem17h0c79cca641ae057aE, symObjAddr: 0x2DE4, symBinAddr: 0x30824, symSize: 0x20 }
  - { offset: 0x977F6, size: 0x8, addend: 0x0, symName: __ZN5alloc3vec9from_elem17h32a5070b3df1f866E, symObjAddr: 0x2E04, symBinAddr: 0x30844, symSize: 0x28 }
  - { offset: 0x9783C, size: 0x8, addend: 0x0, symName: __ZN5alloc3vec9from_elem17h3bfeb549bec47fd2E, symObjAddr: 0x2E2C, symBinAddr: 0x3086C, symSize: 0x24 }
  - { offset: 0x97882, size: 0x8, addend: 0x0, symName: __ZN5alloc3vec9from_elem17h7a5d4f3bc1cd9321E, symObjAddr: 0x2E50, symBinAddr: 0x30890, symSize: 0x24 }
  - { offset: 0x978D2, size: 0x8, addend: 0x0, symName: '__ZN62_$LT$T$u20$as$u20$alloc..vec..spec_from_elem..SpecFromElem$GT$9from_elem17h14b28572f099e080E', symObjAddr: 0x3074, symBinAddr: 0x30AB4, symSize: 0xF8 }
  - { offset: 0x979EC, size: 0x8, addend: 0x0, symName: '__ZN72_$LT$alloc..vec..Vec$LT$T$C$A$GT$$u20$as$u20$core..ops..deref..Deref$GT$5deref17h7fbd2f3f15bcf01aE', symObjAddr: 0x3270, symBinAddr: 0x30CB0, symSize: 0x24 }
  - { offset: 0x97A2C, size: 0x8, addend: 0x0, symName: '__ZN72_$LT$alloc..vec..Vec$LT$T$C$A$GT$$u20$as$u20$core..ops..deref..Deref$GT$5deref17hf3bb155eede41172E', symObjAddr: 0x3294, symBinAddr: 0x30CD4, symSize: 0x24 }
  - { offset: 0x97B32, size: 0x8, addend: 0x0, symName: '__ZN65_$LT$alloc..vec..Vec$LT$T$C$A$GT$$u20$as$u20$core..fmt..Debug$GT$3fmt17h49142b40e0ac354bE', symObjAddr: 0x316C, symBinAddr: 0x30BAC, symSize: 0x78 }
  - { offset: 0x97C48, size: 0x8, addend: 0x0, symName: '__ZN67_$LT$alloc..vec..Vec$LT$T$C$A$GT$$u20$as$u20$core..clone..Clone$GT$5clone17h96538b94f586f2f2E', symObjAddr: 0x31E4, symBinAddr: 0x30C24, symSize: 0x8C }
  - { offset: 0x97E1F, size: 0x8, addend: 0x0, symName: '__ZN75_$LT$alloc..vec..Vec$LT$T$C$A$GT$$u20$as$u20$core..ops..deref..DerefMut$GT$9deref_mut17h74326636bb93ca39E', symObjAddr: 0x32B8, symBinAddr: 0x30CF8, symSize: 0x24 }
  - { offset: 0x97F25, size: 0x8, addend: 0x0, symName: '__ZN81_$LT$alloc..vec..Vec$LT$T$C$A$GT$$u20$as$u20$core..ops..index..Index$LT$I$GT$$GT$5index17h272e98e107207f1eE', symObjAddr: 0x32DC, symBinAddr: 0x30D1C, symSize: 0x8C }
  - { offset: 0x980A7, size: 0x8, addend: 0x0, symName: '__ZN81_$LT$alloc..vec..Vec$LT$T$C$A$GT$$u20$as$u20$core..ops..index..Index$LT$I$GT$$GT$5index17hd8f12962a5c539c1E', symObjAddr: 0x3368, symBinAddr: 0x30DA8, symSize: 0x8C }
  - { offset: 0x98229, size: 0x8, addend: 0x0, symName: '__ZN81_$LT$alloc..vec..Vec$LT$T$C$A$GT$$u20$as$u20$core..ops..index..Index$LT$I$GT$$GT$5index17hd976ceef29e58d07E', symObjAddr: 0x33F4, symBinAddr: 0x30E34, symSize: 0xE8 }
  - { offset: 0x9842C, size: 0x8, addend: 0x0, symName: '__ZN81_$LT$alloc..vec..Vec$LT$T$C$A$GT$$u20$as$u20$core..ops..index..Index$LT$I$GT$$GT$5index17he426c1b7f8ceab60E', symObjAddr: 0x34DC, symBinAddr: 0x30F1C, symSize: 0x8C }
  - { offset: 0x985B4, size: 0x8, addend: 0x0, symName: '__ZN84_$LT$alloc..vec..Vec$LT$T$C$A$GT$$u20$as$u20$core..ops..index..IndexMut$LT$I$GT$$GT$9index_mut17h1087da0547905726E', symObjAddr: 0x3568, symBinAddr: 0x30FA8, symSize: 0x88 }
  - { offset: 0x98708, size: 0x8, addend: 0x0, symName: '__ZN84_$LT$alloc..vec..Vec$LT$T$C$A$GT$$u20$as$u20$core..ops..index..IndexMut$LT$I$GT$$GT$9index_mut17h26a2a64a49a1ceacE', symObjAddr: 0x35F0, symBinAddr: 0x31030, symSize: 0x8C }
  - { offset: 0x9885C, size: 0x8, addend: 0x0, symName: '__ZN84_$LT$alloc..vec..Vec$LT$T$C$A$GT$$u20$as$u20$core..ops..index..IndexMut$LT$I$GT$$GT$9index_mut17he14f526e27f38709E', symObjAddr: 0x367C, symBinAddr: 0x310BC, symSize: 0x8C }
  - { offset: 0x989B0, size: 0x8, addend: 0x0, symName: '__ZN84_$LT$alloc..vec..Vec$LT$T$C$A$GT$$u20$as$u20$core..ops..index..IndexMut$LT$I$GT$$GT$9index_mut17he24fa4b7797af6f4E', symObjAddr: 0x3708, symBinAddr: 0x31148, symSize: 0x8C }
  - { offset: 0x98B0A, size: 0x8, addend: 0x0, symName: '__ZN90_$LT$alloc..vec..Vec$LT$T$C$A$GT$$u20$as$u20$core..iter..traits..collect..IntoIterator$GT$9into_iter17hdd47268adf9fd49dE', symObjAddr: 0x3794, symBinAddr: 0x311D4, symSize: 0x98 }
  - { offset: 0x98CF3, size: 0x8, addend: 0x0, symName: '__ZN95_$LT$alloc..vec..Vec$LT$T$GT$$u20$as$u20$core..iter..traits..collect..FromIterator$LT$T$GT$$GT$9from_iter17h0ffa2d5bc26d04ffE', symObjAddr: 0x382C, symBinAddr: 0x3126C, symSize: 0x34 }
  - { offset: 0x98D34, size: 0x8, addend: 0x0, symName: '__ZN95_$LT$alloc..vec..Vec$LT$T$GT$$u20$as$u20$core..iter..traits..collect..FromIterator$LT$T$GT$$GT$9from_iter17h24641d17b91868f6E', symObjAddr: 0x3860, symBinAddr: 0x312A0, symSize: 0x34 }
  - { offset: 0x98D75, size: 0x8, addend: 0x0, symName: '__ZN95_$LT$alloc..vec..Vec$LT$T$GT$$u20$as$u20$core..iter..traits..collect..FromIterator$LT$T$GT$$GT$9from_iter17h3fd3246aaa26f60bE', symObjAddr: 0x3894, symBinAddr: 0x312D4, symSize: 0x34 }
  - { offset: 0x98DB6, size: 0x8, addend: 0x0, symName: '__ZN95_$LT$alloc..vec..Vec$LT$T$GT$$u20$as$u20$core..iter..traits..collect..FromIterator$LT$T$GT$$GT$9from_iter17h4f709b1c7bd8c51aE', symObjAddr: 0x38C8, symBinAddr: 0x31308, symSize: 0x38 }
  - { offset: 0x98DF6, size: 0x8, addend: 0x0, symName: '__ZN95_$LT$alloc..vec..Vec$LT$T$GT$$u20$as$u20$core..iter..traits..collect..FromIterator$LT$T$GT$$GT$9from_iter17h6408e01cb4e66b68E', symObjAddr: 0x3900, symBinAddr: 0x31340, symSize: 0x34 }
  - { offset: 0x98E37, size: 0x8, addend: 0x0, symName: '__ZN95_$LT$alloc..vec..Vec$LT$T$GT$$u20$as$u20$core..iter..traits..collect..FromIterator$LT$T$GT$$GT$9from_iter17h91dec49c4c04908eE', symObjAddr: 0x3934, symBinAddr: 0x31374, symSize: 0x30 }
  - { offset: 0x98E77, size: 0x8, addend: 0x0, symName: '__ZN95_$LT$alloc..vec..Vec$LT$T$GT$$u20$as$u20$core..iter..traits..collect..FromIterator$LT$T$GT$$GT$9from_iter17he56a6a674dcb5930E', symObjAddr: 0x3964, symBinAddr: 0x313A4, symSize: 0x38 }
  - { offset: 0x98EC2, size: 0x8, addend: 0x0, symName: '__ZN98_$LT$alloc..vec..Vec$LT$T$GT$$u20$as$u20$alloc..vec..spec_from_iter..SpecFromIter$LT$T$C$I$GT$$GT$9from_iter17h302fb732a9e16647E', symObjAddr: 0x3AC0, symBinAddr: 0x31500, symSize: 0x14 }
  - { offset: 0x98F01, size: 0x8, addend: 0x0, symName: '__ZN98_$LT$alloc..vec..Vec$LT$T$GT$$u20$as$u20$alloc..vec..spec_from_iter..SpecFromIter$LT$T$C$I$GT$$GT$9from_iter17h38b35ee9ed31e766E', symObjAddr: 0x3AD4, symBinAddr: 0x31514, symSize: 0x2C }
  - { offset: 0x98F3F, size: 0x8, addend: 0x0, symName: '__ZN98_$LT$alloc..vec..Vec$LT$T$GT$$u20$as$u20$alloc..vec..spec_from_iter..SpecFromIter$LT$T$C$I$GT$$GT$9from_iter17h90b9a3dbd30eb3fdE', symObjAddr: 0x3B00, symBinAddr: 0x31540, symSize: 0x14 }
  - { offset: 0x98F7E, size: 0x8, addend: 0x0, symName: '__ZN98_$LT$alloc..vec..Vec$LT$T$GT$$u20$as$u20$alloc..vec..spec_from_iter..SpecFromIter$LT$T$C$I$GT$$GT$9from_iter17ha7f9479b4e138da8E', symObjAddr: 0x3B14, symBinAddr: 0x31554, symSize: 0x14 }
  - { offset: 0x98FBD, size: 0x8, addend: 0x0, symName: '__ZN98_$LT$alloc..vec..Vec$LT$T$GT$$u20$as$u20$alloc..vec..spec_from_iter..SpecFromIter$LT$T$C$I$GT$$GT$9from_iter17hd4da1e6c4565463aE', symObjAddr: 0x3B28, symBinAddr: 0x31568, symSize: 0x2C }
  - { offset: 0x98FFB, size: 0x8, addend: 0x0, symName: '__ZN98_$LT$alloc..vec..Vec$LT$T$GT$$u20$as$u20$alloc..vec..spec_from_iter..SpecFromIter$LT$T$C$I$GT$$GT$9from_iter17hef8b83123f06dd85E', symObjAddr: 0x3B54, symBinAddr: 0x31594, symSize: 0x14 }
  - { offset: 0x9903A, size: 0x8, addend: 0x0, symName: '__ZN98_$LT$alloc..vec..Vec$LT$T$GT$$u20$as$u20$alloc..vec..spec_from_iter..SpecFromIter$LT$T$C$I$GT$$GT$9from_iter17hf747c76927d940dcE', symObjAddr: 0x3B68, symBinAddr: 0x315A8, symSize: 0x24 }
  - { offset: 0x99139, size: 0x8, addend: 0x0, symName: '__ZN5alloc5slice99_$LT$impl$u20$core..slice..sort..stable..BufGuard$LT$T$GT$$u20$for$u20$alloc..vec..Vec$LT$T$GT$$GT$13with_capacity17h01103a06ed920099E', symObjAddr: 0x2E74, symBinAddr: 0x308B4, symSize: 0x40 }
  - { offset: 0x991DA, size: 0x8, addend: 0x0, symName: '__ZN5alloc5slice99_$LT$impl$u20$core..slice..sort..stable..BufGuard$LT$T$GT$$u20$for$u20$alloc..vec..Vec$LT$T$GT$$GT$13with_capacity17h8afe4f142cc8d92dE', symObjAddr: 0x2EB4, symBinAddr: 0x308F4, symSize: 0x40 }
  - { offset: 0x9927B, size: 0x8, addend: 0x0, symName: '__ZN5alloc5slice99_$LT$impl$u20$core..slice..sort..stable..BufGuard$LT$T$GT$$u20$for$u20$alloc..vec..Vec$LT$T$GT$$GT$19as_uninit_slice_mut17hc9061deeda9836b2E', symObjAddr: 0x2EF4, symBinAddr: 0x30934, symSize: 0xC0 }
  - { offset: 0x993D2, size: 0x8, addend: 0x0, symName: '__ZN5alloc5slice99_$LT$impl$u20$core..slice..sort..stable..BufGuard$LT$T$GT$$u20$for$u20$alloc..vec..Vec$LT$T$GT$$GT$19as_uninit_slice_mut17hd52769b88c0bc00fE', symObjAddr: 0x2FB4, symBinAddr: 0x309F4, symSize: 0xC0 }
  - { offset: 0x99A59, size: 0x8, addend: 0x0, symName: '__ZN5alloc3vec12Vec$LT$T$GT$13with_capacity17hcae79275b02ccfccE', symObjAddr: 0x8FC, symBinAddr: 0x2E33C, symSize: 0x40 }
  - { offset: 0x99C31, size: 0x8, addend: 0x0, symName: '__ZN5alloc3vec12Vec$LT$T$GT$13with_capacity17hd4aef3b59f654016E', symObjAddr: 0x93C, symBinAddr: 0x2E37C, symSize: 0x44 }
  - { offset: 0x99D0B, size: 0x8, addend: 0x0, symName: '__ZN5alloc3vec12Vec$LT$T$GT$13with_capacity17hfccb30fc42f775acE', symObjAddr: 0x980, symBinAddr: 0x2E3C0, symSize: 0x44 }
  - { offset: 0x99D90, size: 0x8, addend: 0x0, symName: '__ZN5alloc3vec12Vec$LT$T$GT$14from_raw_parts17h0d56fd26cdbb58acE', symObjAddr: 0x9C4, symBinAddr: 0x2E404, symSize: 0x2C }
  - { offset: 0x99DE7, size: 0x8, addend: 0x0, symName: '__ZN5alloc3vec12Vec$LT$T$GT$14from_raw_parts17h83166929d7157728E', symObjAddr: 0x9F0, symBinAddr: 0x2E430, symSize: 0x2C }
  - { offset: 0x99E3E, size: 0x8, addend: 0x0, symName: '__ZN5alloc3vec12Vec$LT$T$GT$14from_raw_parts17hb75addea3bdf291cE', symObjAddr: 0xA1C, symBinAddr: 0x2E45C, symSize: 0x2C }
  - { offset: 0x99E88, size: 0x8, addend: 0x0, symName: '__ZN5alloc3vec12Vec$LT$T$GT$3new17h1d7e4a855fa70131E', symObjAddr: 0xA48, symBinAddr: 0x2E488, symSize: 0x14 }
  - { offset: 0x99EA5, size: 0x8, addend: 0x0, symName: '__ZN5alloc3vec12Vec$LT$T$GT$3new17h49eafc742fb84195E', symObjAddr: 0xA5C, symBinAddr: 0x2E49C, symSize: 0x14 }
  - { offset: 0x99EE9, size: 0x8, addend: 0x0, symName: '__ZN5alloc3vec12Vec$LT$T$GT$3new17h645322882e34d0bcE', symObjAddr: 0xA70, symBinAddr: 0x2E4B0, symSize: 0x14 }
  - { offset: 0x99F85, size: 0x8, addend: 0x0, symName: '__ZN5alloc3vec16Vec$LT$T$C$A$GT$10as_mut_ptr17hb469952ff8d4a2d6E', symObjAddr: 0xA84, symBinAddr: 0x2E4C4, symSize: 0x18 }
  - { offset: 0x9A06D, size: 0x8, addend: 0x0, symName: '__ZN5alloc3vec16Vec$LT$T$C$A$GT$10as_mut_ptr17hbc0f8e7f1f3098eaE', symObjAddr: 0xA9C, symBinAddr: 0x2E4DC, symSize: 0x18 }
  - { offset: 0x9A155, size: 0x8, addend: 0x0, symName: '__ZN5alloc3vec16Vec$LT$T$C$A$GT$10as_mut_ptr17hbcdc0f3405daa022E', symObjAddr: 0xAB4, symBinAddr: 0x2E4F4, symSize: 0x18 }
  - { offset: 0x9A23D, size: 0x8, addend: 0x0, symName: '__ZN5alloc3vec16Vec$LT$T$C$A$GT$10as_mut_ptr17hca45db44f4cb33d1E', symObjAddr: 0xACC, symBinAddr: 0x2E50C, symSize: 0x18 }
  - { offset: 0x9A3FD, size: 0x8, addend: 0x0, symName: '__ZN5alloc3vec16Vec$LT$T$C$A$GT$11extend_with17h2ce47de2fcfb2888E', symObjAddr: 0xAE4, symBinAddr: 0x2E524, symSize: 0x214 }
  - { offset: 0x9A76C, size: 0x8, addend: 0x0, symName: '__ZN5alloc3vec16Vec$LT$T$C$A$GT$11extend_with17h3bd9572addbd6227E', symObjAddr: 0xCF8, symBinAddr: 0x2E738, symSize: 0x1D8 }
  - { offset: 0x9AAF9, size: 0x8, addend: 0x0, symName: '__ZN5alloc3vec16Vec$LT$T$C$A$GT$11extend_with17hc23ec5a7a62a83f2E', symObjAddr: 0xED0, symBinAddr: 0x2E910, symSize: 0x200 }
  - { offset: 0x9AE79, size: 0x8, addend: 0x0, symName: '__ZN5alloc3vec16Vec$LT$T$C$A$GT$11extend_with17hc3b320c4b444fc17E', symObjAddr: 0x10D0, symBinAddr: 0x2EB10, symSize: 0x1C4 }
  - { offset: 0x9B1C2, size: 0x8, addend: 0x0, symName: '__ZN5alloc3vec16Vec$LT$T$C$A$GT$12as_mut_slice17h30a567bd41bee52fE', symObjAddr: 0x1294, symBinAddr: 0x2ECD4, symSize: 0x68 }
  - { offset: 0x9B323, size: 0x8, addend: 0x0, symName: '__ZN5alloc3vec16Vec$LT$T$C$A$GT$14extend_trusted17h01c7836dc0ff6dfdE', symObjAddr: 0x12FC, symBinAddr: 0x2ED3C, symSize: 0x130 }
  - { offset: 0x9B524, size: 0x8, addend: 0x0, symName: '__ZN5alloc3vec16Vec$LT$T$C$A$GT$14extend_trusted17h22294c951cef0076E', symObjAddr: 0x142C, symBinAddr: 0x2EE6C, symSize: 0x130 }
  - { offset: 0x9B718, size: 0x8, addend: 0x0, symName: '__ZN5alloc3vec16Vec$LT$T$C$A$GT$14extend_trusted17h289ae964830cb23aE', symObjAddr: 0x155C, symBinAddr: 0x2EF9C, symSize: 0x124 }
  - { offset: 0x9B90B, size: 0x8, addend: 0x0, symName: '__ZN5alloc3vec16Vec$LT$T$C$A$GT$14extend_trusted17h428c3378e7555701E', symObjAddr: 0x1680, symBinAddr: 0x2F0C0, symSize: 0x124 }
  - { offset: 0x9BB0B, size: 0x8, addend: 0x0, symName: '__ZN5alloc3vec16Vec$LT$T$C$A$GT$14extend_trusted17h9d7c53dc3444eb95E', symObjAddr: 0x17A4, symBinAddr: 0x2F1E4, symSize: 0x130 }
  - { offset: 0x9BCFF, size: 0x8, addend: 0x0, symName: '__ZN5alloc3vec16Vec$LT$T$C$A$GT$14extend_trusted17hc8e9b4cba46e0926E', symObjAddr: 0x18D4, symBinAddr: 0x2F314, symSize: 0x150 }
  - { offset: 0x9BEF5, size: 0x8, addend: 0x0, symName: '__ZN5alloc3vec16Vec$LT$T$C$A$GT$14extend_trusted17hef87261b40d367bdE', symObjAddr: 0x1A24, symBinAddr: 0x2F464, symSize: 0x124 }
  - { offset: 0x9C15C, size: 0x8, addend: 0x0, symName: '__ZN5alloc3vec16Vec$LT$T$C$A$GT$15append_elements17h254c9fceac9b2c60E', symObjAddr: 0x1CB0, symBinAddr: 0x2F6F0, symSize: 0xD8 }
  - { offset: 0x9C391, size: 0x8, addend: 0x0, symName: '__ZN5alloc3vec16Vec$LT$T$C$A$GT$17extend_from_slice17hd58b98af0fc43f15E', symObjAddr: 0x1D88, symBinAddr: 0x2F7C8, symSize: 0x6C }
  - { offset: 0x9C5EC, size: 0x8, addend: 0x0, symName: '__ZN5alloc3vec16Vec$LT$T$C$A$GT$17from_raw_parts_in17h2204486f3fc9b459E', symObjAddr: 0x1DF4, symBinAddr: 0x2F834, symSize: 0xA4 }
  - { offset: 0x9C842, size: 0x8, addend: 0x0, symName: '__ZN5alloc3vec16Vec$LT$T$C$A$GT$17from_raw_parts_in17h48bc8dbe6a98d5e8E', symObjAddr: 0x1E98, symBinAddr: 0x2F8D8, symSize: 0xA4 }
  - { offset: 0x9CA98, size: 0x8, addend: 0x0, symName: '__ZN5alloc3vec16Vec$LT$T$C$A$GT$17from_raw_parts_in17h9a95eddd405086e8E', symObjAddr: 0x1F3C, symBinAddr: 0x2F97C, symSize: 0xA4 }
  - { offset: 0x9CCEE, size: 0x8, addend: 0x0, symName: '__ZN5alloc3vec16Vec$LT$T$C$A$GT$17from_raw_parts_in17hf4b6780ae91fb0ceE', symObjAddr: 0x1FE0, symBinAddr: 0x2FA20, symSize: 0xA4 }
  - { offset: 0x9CE72, size: 0x8, addend: 0x0, symName: '__ZN5alloc3vec16Vec$LT$T$C$A$GT$3len17h47f828e526a1390eE', symObjAddr: 0x2084, symBinAddr: 0x2FAC4, symSize: 0x18 }
  - { offset: 0x9CEA7, size: 0x8, addend: 0x0, symName: '__ZN5alloc3vec16Vec$LT$T$C$A$GT$3len17hd431622c45738f56E', symObjAddr: 0x209C, symBinAddr: 0x2FADC, symSize: 0x18 }
  - { offset: 0x9CEE9, size: 0x8, addend: 0x0, symName: '__ZN5alloc3vec16Vec$LT$T$C$A$GT$4push17h3984d0d7c68cdb70E', symObjAddr: 0x20B4, symBinAddr: 0x2FAF4, symSize: 0x24 }
  - { offset: 0x9CF2E, size: 0x8, addend: 0x0, symName: '__ZN5alloc3vec16Vec$LT$T$C$A$GT$4push17h70c04072eea83050E', symObjAddr: 0x20D8, symBinAddr: 0x2FB18, symSize: 0x28 }
  - { offset: 0x9CF7F, size: 0x8, addend: 0x0, symName: '__ZN5alloc3vec16Vec$LT$T$C$A$GT$4push17h7be15e5d74fa6e0aE', symObjAddr: 0x2100, symBinAddr: 0x2FB40, symSize: 0x30 }
  - { offset: 0x9CFC3, size: 0x8, addend: 0x0, symName: '__ZN5alloc3vec16Vec$LT$T$C$A$GT$4push17he4d582b90238f218E', symObjAddr: 0x2130, symBinAddr: 0x2FB70, symSize: 0x2C }
  - { offset: 0x9D007, size: 0x8, addend: 0x0, symName: '__ZN5alloc3vec16Vec$LT$T$C$A$GT$5dedup17hef4214ba833095a4E', symObjAddr: 0x215C, symBinAddr: 0x2FB9C, symSize: 0x24 }
  - { offset: 0x9D186, size: 0x8, addend: 0x0, symName: '__ZN5alloc3vec16Vec$LT$T$C$A$GT$7reserve17h03dd4017541e5783E', symObjAddr: 0x21BC, symBinAddr: 0x2FBFC, symSize: 0xA0 }
  - { offset: 0x9D3EA, size: 0x8, addend: 0x0, symName: '__ZN5alloc3vec16Vec$LT$T$C$A$GT$7reserve17h0c73153aed7a95edE', symObjAddr: 0x225C, symBinAddr: 0x2FC9C, symSize: 0xA8 }
  - { offset: 0x9D64E, size: 0x8, addend: 0x0, symName: '__ZN5alloc3vec16Vec$LT$T$C$A$GT$7reserve17h2b52393b4e3cc647E', symObjAddr: 0x2304, symBinAddr: 0x2FD44, symSize: 0xA0 }
  - { offset: 0x9D8B2, size: 0x8, addend: 0x0, symName: '__ZN5alloc3vec16Vec$LT$T$C$A$GT$7reserve17h3c79bc8d4650ae23E', symObjAddr: 0x23A4, symBinAddr: 0x2FDE4, symSize: 0xA8 }
  - { offset: 0x9DA85, size: 0x8, addend: 0x0, symName: '__ZN5alloc3vec16Vec$LT$T$C$A$GT$7set_len17h5d00370596003663E', symObjAddr: 0x244C, symBinAddr: 0x2FE8C, symSize: 0x70 }
  - { offset: 0x9DBB8, size: 0x8, addend: 0x0, symName: '__ZN5alloc3vec16Vec$LT$T$C$A$GT$7set_len17h8231bd5c9fc4debdE', symObjAddr: 0x24BC, symBinAddr: 0x2FEFC, symSize: 0x70 }
  - { offset: 0x9DCEB, size: 0x8, addend: 0x0, symName: '__ZN5alloc3vec16Vec$LT$T$C$A$GT$7set_len17hdf53c97fc0865343E', symObjAddr: 0x252C, symBinAddr: 0x2FF6C, symSize: 0x70 }
  - { offset: 0x9DE09, size: 0x8, addend: 0x0, symName: '__ZN5alloc3vec16Vec$LT$T$C$A$GT$8as_slice17h009bea5e269b3221E', symObjAddr: 0x259C, symBinAddr: 0x2FFDC, symSize: 0x68 }
  - { offset: 0x9DF5A, size: 0x8, addend: 0x0, symName: '__ZN5alloc3vec16Vec$LT$T$C$A$GT$8as_slice17hd4f7d3cf91c881aaE', symObjAddr: 0x2604, symBinAddr: 0x30044, symSize: 0x6C }
  - { offset: 0x9E074, size: 0x8, addend: 0x0, symName: '__ZN5alloc3vec16Vec$LT$T$C$A$GT$8capacity17h630def374cb778f5E', symObjAddr: 0x2670, symBinAddr: 0x300B0, symSize: 0x38 }
  - { offset: 0x9E16B, size: 0x8, addend: 0x0, symName: '__ZN5alloc3vec16Vec$LT$T$C$A$GT$8capacity17ha91787967963b411E', symObjAddr: 0x26A8, symBinAddr: 0x300E8, symSize: 0x38 }
  - { offset: 0x9E262, size: 0x8, addend: 0x0, symName: '__ZN5alloc3vec16Vec$LT$T$C$A$GT$8capacity17hf7b26d059b489240E', symObjAddr: 0x26E0, symBinAddr: 0x30120, symSize: 0x38 }
  - { offset: 0x9E454, size: 0x8, addend: 0x0, symName: '__ZN5alloc3vec16Vec$LT$T$C$A$GT$8dedup_by17h1e78dab1314e58ddE', symObjAddr: 0x2718, symBinAddr: 0x30158, symSize: 0x318 }
  - { offset: 0x9E8E0, size: 0x8, addend: 0x0, symName: '__ZN5alloc3vec16Vec$LT$T$C$A$GT$8push_mut17h0c538cbb7336f991E', symObjAddr: 0x2A30, symBinAddr: 0x30470, symSize: 0xDC }
  - { offset: 0x9EB7F, size: 0x8, addend: 0x0, symName: '__ZN5alloc3vec16Vec$LT$T$C$A$GT$8push_mut17h7094c54959640f02E', symObjAddr: 0x2B0C, symBinAddr: 0x3054C, symSize: 0x108 }
  - { offset: 0x9EE1E, size: 0x8, addend: 0x0, symName: '__ZN5alloc3vec16Vec$LT$T$C$A$GT$8push_mut17h952e16cc43783dc5E', symObjAddr: 0x2C14, symBinAddr: 0x30654, symSize: 0xE0 }
  - { offset: 0x9F089, size: 0x8, addend: 0x0, symName: '__ZN5alloc3vec16Vec$LT$T$C$A$GT$8push_mut17ha6859f5c16c40aadE', symObjAddr: 0x2CF4, symBinAddr: 0x30734, symSize: 0xCC }
  - { offset: 0x9FF86, size: 0x8, addend: 0x0, symName: __ZN4pyo35impl_10trampoline32fastcall_cfunction_with_keywords5inner17h5c68a190154c889cE, symObjAddr: 0x0, symBinAddr: 0x315CC, symSize: 0x5C }
  - { offset: 0xA13C2, size: 0x8, addend: 0x0, symName: __ZN4pyo35impl_10trampoline32fastcall_cfunction_with_keywords5inner17h5c68a190154c889cE, symObjAddr: 0x0, symBinAddr: 0x315CC, symSize: 0x5C }
  - { offset: 0xA1C9A, size: 0x8, addend: 0x0, symName: __ZN4pyo35impl_10trampoline7newfunc5inner17ha05524cec008cee5E, symObjAddr: 0x0, symBinAddr: 0x31628, symSize: 0x50 }
  - { offset: 0xA30D6, size: 0x8, addend: 0x0, symName: __ZN4pyo35impl_10trampoline7newfunc5inner17ha05524cec008cee5E, symObjAddr: 0x0, symBinAddr: 0x31628, symSize: 0x50 }
  - { offset: 0xA399B, size: 0x8, addend: 0x0, symName: __ZN4pyo35impl_5panic9PanicTrap3new17h62445e7a7e790146E, symObjAddr: 0x0, symBinAddr: 0x31678, symSize: 0x18 }
  - { offset: 0xA3A2A, size: 0x8, addend: 0x0, symName: __ZN4pyo35impl_5panic9PanicTrap3new17h62445e7a7e790146E, symObjAddr: 0x0, symBinAddr: 0x31678, symSize: 0x18 }
  - { offset: 0xA3A4C, size: 0x8, addend: 0x0, symName: __ZN4pyo35impl_5panic9PanicTrap6disarm17h793498846df798ecE, symObjAddr: 0x18, symBinAddr: 0x31690, symSize: 0x28 }
  - { offset: 0xA3A8C, size: 0x8, addend: 0x0, symName: '__ZN5alloc7raw_vec19RawVec$LT$T$C$A$GT$8grow_one17h257c9433c1e47e0aE', symObjAddr: 0x0, symBinAddr: 0x316B8, symSize: 0x88 }
  - { offset: 0xA41E7, size: 0x8, addend: 0x0, symName: '__ZN5alloc7raw_vec19RawVec$LT$T$C$A$GT$8grow_one17h257c9433c1e47e0aE', symObjAddr: 0x0, symBinAddr: 0x316B8, symSize: 0x88 }
  - { offset: 0xA42A0, size: 0x8, addend: 0x0, symName: '__ZN5alloc7raw_vec19RawVec$LT$T$C$A$GT$8grow_one17h2fab7ac93d30d88aE', symObjAddr: 0x88, symBinAddr: 0x31740, symSize: 0x84 }
  - { offset: 0xA43E1, size: 0x8, addend: 0x0, symName: '__ZN5alloc7raw_vec19RawVec$LT$T$C$A$GT$8grow_one17hf50ba39ab542f9acE', symObjAddr: 0x10C, symBinAddr: 0x317C4, symSize: 0x88 }
  - { offset: 0xA4493, size: 0x8, addend: 0x0, symName: '__ZN5alloc7raw_vec19RawVec$LT$T$C$A$GT$8grow_one17hfc6d7e4584eb3532E', symObjAddr: 0x194, symBinAddr: 0x3184C, symSize: 0x88 }
  - { offset: 0xA451E, size: 0x8, addend: 0x0, symName: __ZN4core5slice3raw14from_raw_parts17h1fe94c1d8fdd38b5E, symObjAddr: 0x0, symBinAddr: 0x318D4, symSize: 0x58 }
  - { offset: 0xA4D49, size: 0x8, addend: 0x0, symName: __ZN4core5slice3raw14from_raw_parts17h1fe94c1d8fdd38b5E, symObjAddr: 0x0, symBinAddr: 0x318D4, symSize: 0x58 }
  - { offset: 0xA4D8C, size: 0x8, addend: 0x0, symName: __ZN4core5slice3raw14from_raw_parts17h8ff5c78c1858aaf6E, symObjAddr: 0x58, symBinAddr: 0x3192C, symSize: 0x58 }
  - { offset: 0xA4DCF, size: 0x8, addend: 0x0, symName: __ZN4core5slice3raw14from_raw_parts17hdc24074593d8c198E, symObjAddr: 0xB0, symBinAddr: 0x31984, symSize: 0x58 }
  - { offset: 0xA4E12, size: 0x8, addend: 0x0, symName: __ZN4core5slice3raw14from_raw_parts17he847c52042d49b87E, symObjAddr: 0x108, symBinAddr: 0x319DC, symSize: 0x5C }
  - { offset: 0xA5EF9, size: 0x8, addend: 0x0, symName: __ZN3std9panicking12catch_unwind7do_call17h09ad77d0257a97d3E, symObjAddr: 0x0, symBinAddr: 0x31A38, symSize: 0x78 }
  - { offset: 0xA7F13, size: 0x8, addend: 0x0, symName: __ZN3std9panicking12catch_unwind7do_call17h09ad77d0257a97d3E, symObjAddr: 0x0, symBinAddr: 0x31A38, symSize: 0x78 }
  - { offset: 0xA7FFA, size: 0x8, addend: 0x0, symName: __ZN3std9panicking12catch_unwind7do_call17h66121fe738036f4fE, symObjAddr: 0x78, symBinAddr: 0x31AB0, symSize: 0x7C }
  - { offset: 0xA80E1, size: 0x8, addend: 0x0, symName: __ZN3std9panicking12catch_unwind7do_call17hf78954bb9f5d1a98E, symObjAddr: 0xF4, symBinAddr: 0x31B2C, symSize: 0x78 }
  - { offset: 0xA81C8, size: 0x8, addend: 0x0, symName: __ZN3std9panicking12catch_unwind8do_catch17h247ae1c02ce3ceb6E, symObjAddr: 0x16C, symBinAddr: 0x31BA4, symSize: 0x70 }
  - { offset: 0xA825D, size: 0x8, addend: 0x0, symName: __ZN3std9panicking12catch_unwind8do_catch17h50c03f1798ee7fe1E, symObjAddr: 0x1DC, symBinAddr: 0x31C14, symSize: 0x70 }
  - { offset: 0xA82F2, size: 0x8, addend: 0x0, symName: __ZN3std9panicking12catch_unwind8do_catch17h921ce53bff7f5094E, symObjAddr: 0x24C, symBinAddr: 0x31C84, symSize: 0x70 }
  - { offset: 0xA86FB, size: 0x8, addend: 0x0, symName: __ZN11_cringepack6sparse12CCMatrixView3new17h9636ed0ea338b9c2E, symObjAddr: 0x0, symBinAddr: 0x31CF4, symSize: 0x26C }
  - { offset: 0xA88F2, size: 0x8, addend: 0x0, symName: '__ZN88_$LT$_cringepack..sparse..CCMatrixOwned$u20$as$u20$_cringepack..sparse..CCMatrixBase$GT$10get_indptr17h2367c6eecb4e4440E', symObjAddr: 0x1758, symBinAddr: 0x3344C, symSize: 0x30 }
  - { offset: 0xA891E, size: 0x8, addend: 0x0, symName: '__ZN88_$LT$_cringepack..sparse..CCMatrixOwned$u20$as$u20$_cringepack..sparse..CCMatrixBase$GT$10get_maxnic17hcf61ec2a8bd3d119E', symObjAddr: 0x1788, symBinAddr: 0x3347C, symSize: 0x18 }
  - { offset: 0xA894C, size: 0x8, addend: 0x0, symName: '__ZN88_$LT$_cringepack..sparse..CCMatrixOwned$u20$as$u20$_cringepack..sparse..CCMatrixBase$GT$5get_n17hfff7fe26a3a430d8E', symObjAddr: 0x17A0, symBinAddr: 0x33494, symSize: 0x18 }
  - { offset: 0xA8978, size: 0x8, addend: 0x0, symName: '__ZN88_$LT$_cringepack..sparse..CCMatrixOwned$u20$as$u20$_cringepack..sparse..CCMatrixBase$GT$8get_data17h087419e588a4f19cE', symObjAddr: 0x17B8, symBinAddr: 0x334AC, symSize: 0x30 }
  - { offset: 0xA89A4, size: 0x8, addend: 0x0, symName: '__ZN88_$LT$_cringepack..sparse..CCMatrixOwned$u20$as$u20$_cringepack..sparse..CCMatrixBase$GT$8get_rows17h3c6ea193d57165d7E', symObjAddr: 0x17E8, symBinAddr: 0x334DC, symSize: 0x30 }
  - { offset: 0xA8FAF, size: 0x8, addend: 0x0, symName: __ZN11_cringepack6sparse12CCMatrixView3new17h9636ed0ea338b9c2E, symObjAddr: 0x0, symBinAddr: 0x31CF4, symSize: 0x26C }
  - { offset: 0xA9097, size: 0x8, addend: 0x0, symName: __ZN11_cringepack6sparse12CCMatrixView8to_owned17h8e7408ea20d5aaa1E, symObjAddr: 0x26C, symBinAddr: 0x31F60, symSize: 0xFC }
  - { offset: 0xA919D, size: 0x8, addend: 0x0, symName: __ZN11_cringepack6sparse13CCMatrixOwned11permute_new17hbf511bd37e34a708E, symObjAddr: 0x368, symBinAddr: 0x3205C, symSize: 0x694 }
  - { offset: 0xA9335, size: 0x8, addend: 0x0, symName: __ZN11_cringepack6sparse13CCMatrixOwned3new17h498e7c98e576435aE, symObjAddr: 0x9FC, symBinAddr: 0x326F0, symSize: 0x1F8 }
  - { offset: 0xA93DA, size: 0x8, addend: 0x0, symName: __ZN11_cringepack6sparse13CCMatrixOwned5empty17h4f9e9866f53e3aa5E, symObjAddr: 0xBF4, symBinAddr: 0x328E8, symSize: 0xE4 }
  - { offset: 0xA93ED, size: 0x8, addend: 0x0, symName: __ZN11_cringepack6sparse13CCMatrixOwned5udiag17hd3f74bfdc5760e5dE, symObjAddr: 0xCD8, symBinAddr: 0x329CC, symSize: 0x288 }
  - { offset: 0xA949B, size: 0x8, addend: 0x0, symName: __ZN11_cringepack6sparse13CCMatrixOwned7permute17h6bece9eb2ede4e06E, symObjAddr: 0xF60, symBinAddr: 0x32C54, symSize: 0x758 }
  - { offset: 0xA9633, size: 0x8, addend: 0x0, symName: __ZN11_cringepack6sparse13CCMatrixOwned8iter_col17hed1df3f0ce7d1e20E, symObjAddr: 0x16B8, symBinAddr: 0x333AC, symSize: 0xA0 }
  - { offset: 0xA96C4, size: 0x8, addend: 0x0, symName: '__ZN4core3ptr8non_null16NonNull$LT$T$GT$13new_unchecked18precondition_check17hcbde6fbc257f6b2eE', symObjAddr: 0x0, symBinAddr: 0x3350C, symSize: 0x58 }
  - { offset: 0xA96EA, size: 0x8, addend: 0x0, symName: '__ZN4core3ptr8non_null16NonNull$LT$T$GT$13new_unchecked18precondition_check17hcbde6fbc257f6b2eE', symObjAddr: 0x0, symBinAddr: 0x3350C, symSize: 0x58 }
  - { offset: 0xA979B, size: 0x8, addend: 0x0, symName: __ZN4core5slice4sort6shared9smallsort11insert_tail17h7470bc97b11d906dE, symObjAddr: 0x0, symBinAddr: 0x33564, symSize: 0x18C }
  - { offset: 0xAA5A3, size: 0x8, addend: 0x0, symName: __ZN4core5slice4sort6shared9smallsort11insert_tail17h7470bc97b11d906dE, symObjAddr: 0x0, symBinAddr: 0x33564, symSize: 0x18C }
  - { offset: 0xAA6F9, size: 0x8, addend: 0x0, symName: __ZN4core5slice4sort6shared9smallsort11insert_tail17h9ba8fdf315d8462cE, symObjAddr: 0x18C, symBinAddr: 0x336F0, symSize: 0x18C }
  - { offset: 0xAA84F, size: 0x8, addend: 0x0, symName: __ZN4core5slice4sort6shared9smallsort12sort4_stable17h3ebb4f647c75ad93E, symObjAddr: 0x318, symBinAddr: 0x3387C, symSize: 0x71C }
  - { offset: 0xABB14, size: 0x8, addend: 0x0, symName: __ZN4core5slice4sort6shared9smallsort12sort4_stable17hbb2bea21f280f79fE, symObjAddr: 0xA34, symBinAddr: 0x33F98, symSize: 0x71C }
  - { offset: 0xACDD9, size: 0x8, addend: 0x0, symName: __ZN4core5slice4sort6shared9smallsort12sort8_stable17h4c12f23ce19ebd5dE, symObjAddr: 0x1150, symBinAddr: 0x346B4, symSize: 0x94 }
  - { offset: 0xACEA4, size: 0x8, addend: 0x0, symName: __ZN4core5slice4sort6shared9smallsort12sort8_stable17h5695ad9d8f60352fE, symObjAddr: 0x11E4, symBinAddr: 0x34748, symSize: 0x94 }
  - { offset: 0xAD053, size: 0x8, addend: 0x0, symName: __ZN4core5slice4sort6shared9smallsort19bidirectional_merge17h0a5721bbc68cac7aE, symObjAddr: 0x1278, symBinAddr: 0x347DC, symSize: 0x4DC }
  - { offset: 0xAD7DA, size: 0x8, addend: 0x0, symName: __ZN4core5slice4sort6shared9smallsort19bidirectional_merge17h886694031941ee00E, symObjAddr: 0x1754, symBinAddr: 0x34CB8, symSize: 0x4DC }
  - { offset: 0xADE7D, size: 0x8, addend: 0x0, symName: __ZN4core5slice4sort6shared9smallsort25insertion_sort_shift_left17h8702a9c60b8135b1E, symObjAddr: 0x1C30, symBinAddr: 0x35194, symSize: 0xC0 }
  - { offset: 0xADFB7, size: 0x8, addend: 0x0, symName: __ZN4core5slice4sort6shared9smallsort25insertion_sort_shift_left17ha3076f25c1b57d21E, symObjAddr: 0x1CF0, symBinAddr: 0x35254, symSize: 0xC0 }
  - { offset: 0xAE0F1, size: 0x8, addend: 0x0, symName: __ZN4core5slice4sort6shared9smallsort31small_sort_general_with_scratch17h130500146d6dcd81E, symObjAddr: 0x1DB0, symBinAddr: 0x35314, symSize: 0x500 }
  - { offset: 0xAE5B0, size: 0x8, addend: 0x0, symName: __ZN4core5slice4sort6shared9smallsort31small_sort_general_with_scratch17h3e48edf61f9744d4E, symObjAddr: 0x22B0, symBinAddr: 0x35814, symSize: 0x500 }
  - { offset: 0xAF9CB, size: 0x8, addend: 0x0, symName: __ZN11_cringepack3acc7vec_inv17h67cda5866496b111E, symObjAddr: 0x0, symBinAddr: 0x35D14, symSize: 0x15C }
  - { offset: 0xAF9E2, size: 0x8, addend: 0x0, symName: __ZN11_cringepack3acc7vec_inv17h67cda5866496b111E, symObjAddr: 0x0, symBinAddr: 0x35D14, symSize: 0x15C }
  - { offset: 0xAFC33, size: 0x8, addend: 0x0, symName: '__ZN49_$LT$T$u20$as$u20$core..array..SpecArrayClone$GT$5clone17h2d8d66b3b3780343E', symObjAddr: 0x0, symBinAddr: 0x35E70, symSize: 0x20 }
  - { offset: 0xAFC7C, size: 0x8, addend: 0x0, symName: '__ZN49_$LT$T$u20$as$u20$core..array..SpecArrayClone$GT$5clone17h2d8d66b3b3780343E', symObjAddr: 0x0, symBinAddr: 0x35E70, symSize: 0x20 }
  - { offset: 0xAFD1A, size: 0x8, addend: 0x0, symName: '__ZN4core5array69_$LT$impl$u20$core..fmt..Debug$u20$for$u20$$u5b$T$u3b$$u20$N$u5d$$GT$3fmt17h62494bedf66dee98E', symObjAddr: 0x20, symBinAddr: 0x35E90, symSize: 0x44 }
  - { offset: 0xAFDAA, size: 0x8, addend: 0x0, symName: '__ZN4core5array71_$LT$impl$u20$core..clone..Clone$u20$for$u20$$u5b$T$u3b$$u20$N$u5d$$GT$5clone17h4cf3148484c97563E', symObjAddr: 0x64, symBinAddr: 0x35ED4, symSize: 0x34 }
  - { offset: 0xAFDE7, size: 0x8, addend: 0x0, symName: '__ZN4core5array75_$LT$impl$u20$core..default..Default$u20$for$u20$$u5b$T$u3b$$u20$1$u5d$$GT$7default17h08bdb168d70e3115E', symObjAddr: 0x98, symBinAddr: 0x35F08, symSize: 0x14 }
  - { offset: 0xB002C, size: 0x8, addend: 0x0, symName: '__ZN52_$LT$f64$u20$as$u20$num_traits..identities..Zero$GT$4zero17hc1a18af6c16be15cE', symObjAddr: 0x0, symBinAddr: 0x35F1C, symSize: 0x8 }
  - { offset: 0xB0048, size: 0x8, addend: 0x0, symName: '__ZN52_$LT$f64$u20$as$u20$num_traits..identities..Zero$GT$4zero17hc1a18af6c16be15cE', symObjAddr: 0x0, symBinAddr: 0x35F1C, symSize: 0x8 }
  - { offset: 0xB006B, size: 0x8, addend: 0x0, symName: '__ZN54_$LT$usize$u20$as$u20$num_traits..identities..Zero$GT$4zero17hd9579ac22c1f7c53E', symObjAddr: 0x8, symBinAddr: 0x35F24, symSize: 0x8 }
  - { offset: 0xB00B7, size: 0x8, addend: 0x0, symName: __ZN4core3mem10needs_drop17h6ab2e7821f018c13E, symObjAddr: 0x0, symBinAddr: 0x35F2C, symSize: 0xC }
  - { offset: 0xB00CE, size: 0x8, addend: 0x0, symName: __ZN4core3mem10needs_drop17h6ab2e7821f018c13E, symObjAddr: 0x0, symBinAddr: 0x35F2C, symSize: 0xC }
  - { offset: 0xB00F6, size: 0x8, addend: 0x0, symName: __ZN4core3mem10needs_drop17h6cae216c543b9a08E, symObjAddr: 0xC, symBinAddr: 0x35F38, symSize: 0xC }
  - { offset: 0xB011E, size: 0x8, addend: 0x0, symName: __ZN4core3mem10needs_drop17h756131a88f8a5ec7E, symObjAddr: 0x18, symBinAddr: 0x35F44, symSize: 0xC }
  - { offset: 0xB01B2, size: 0x8, addend: 0x0, symName: __ZN4core3cmp9PartialEq2ne17h120352d89bc46d91E, symObjAddr: 0x0, symBinAddr: 0x35F50, symSize: 0x30 }
  - { offset: 0xB01E1, size: 0x8, addend: 0x0, symName: __ZN7ndarray9dimension11is_layout_c17h61cb9eb6a727bc49E, symObjAddr: 0x30, symBinAddr: 0x35F80, symSize: 0x27C }
  - { offset: 0xB02C4, size: 0x8, addend: 0x0, symName: __ZN7ndarray9dimension15can_index_slice17h1312a9d6ce35a647E, symObjAddr: 0x2AC, symBinAddr: 0x361FC, symSize: 0xBC }
  - { offset: 0xB036D, size: 0x8, addend: 0x0, symName: __ZN7ndarray9dimension15can_index_slice17h22dc4f2e12672dfdE, symObjAddr: 0x368, symBinAddr: 0x362B8, symSize: 0xBC }
  - { offset: 0xB0416, size: 0x8, addend: 0x0, symName: __ZN7ndarray9dimension15can_index_slice17h812995797977f64aE, symObjAddr: 0x424, symBinAddr: 0x36374, symSize: 0xBC }
  - { offset: 0xB04E6, size: 0x8, addend: 0x0, symName: __ZN7ndarray9dimension16do_collapse_axis17h032d86bc9f3759c3E, symObjAddr: 0x4E0, symBinAddr: 0x36430, symSize: 0x1C0 }
  - { offset: 0xB064F, size: 0x8, addend: 0x0, symName: __ZN7ndarray9dimension18dim_stride_overlap17h5e8a69bbf2c78bf2E, symObjAddr: 0x6A0, symBinAddr: 0x365F0, symSize: 0x2DC }
  - { offset: 0xB079C, size: 0x8, addend: 0x0, symName: __ZN7ndarray9dimension20can_index_slice_impl17ha29b02f4739b76c0E, symObjAddr: 0x97C, symBinAddr: 0x368CC, symSize: 0x110 }
  - { offset: 0xB0825, size: 0x8, addend: 0x0, symName: __ZN7ndarray9dimension20strides_non_negative17h50e1dd551cad963aE, symObjAddr: 0xA8C, symBinAddr: 0x369DC, symSize: 0x84 }
  - { offset: 0xB0888, size: 0x8, addend: 0x0, symName: __ZN7ndarray9dimension21size_of_shape_checked17h0971704b9e097276E, symObjAddr: 0xB10, symBinAddr: 0x36A60, symSize: 0xDC }
  - { offset: 0xB08FC, size: 0x8, addend: 0x0, symName: '__ZN7ndarray9dimension21size_of_shape_checked28_$u7b$$u7b$closure$u7d$$u7d$17h23eafb9f061c5e38E', symObjAddr: 0xBEC, symBinAddr: 0x36B3C, symSize: 0x18 }
  - { offset: 0xB092D, size: 0x8, addend: 0x0, symName: '__ZN7ndarray9dimension21size_of_shape_checked28_$u7b$$u7b$closure$u7d$$u7d$17hcdf6f504d7dd960eE', symObjAddr: 0xC04, symBinAddr: 0x36B54, symSize: 0x2C }
  - { offset: 0xB0985, size: 0x8, addend: 0x0, symName: '__ZN7ndarray9dimension21size_of_shape_checked28_$u7b$$u7b$closure$u7d$$u7d$17hd8280cc6ce852de6E', symObjAddr: 0xC30, symBinAddr: 0x36B80, symSize: 0x3C }
  - { offset: 0xB0A01, size: 0x8, addend: 0x0, symName: __ZN7ndarray9dimension29max_abs_offset_check_overflow17h34b1d7bdc82af300E, symObjAddr: 0xC6C, symBinAddr: 0x36BBC, symSize: 0x40 }
  - { offset: 0xB0A4D, size: 0x8, addend: 0x0, symName: __ZN7ndarray9dimension29max_abs_offset_check_overflow17h47490e2b85dc6fc7E, symObjAddr: 0xCAC, symBinAddr: 0x36BFC, symSize: 0x40 }
  - { offset: 0xB0A99, size: 0x8, addend: 0x0, symName: __ZN7ndarray9dimension29max_abs_offset_check_overflow17hd5124560e3e1d76cE, symObjAddr: 0xCEC, symBinAddr: 0x36C3C, symSize: 0x40 }
  - { offset: 0xB0AE5, size: 0x8, addend: 0x0, symName: __ZN7ndarray9dimension34max_abs_offset_check_overflow_impl17h8e9c27014df115c9E, symObjAddr: 0xD2C, symBinAddr: 0x36C7C, symSize: 0x22C }
  - { offset: 0xB0BBD, size: 0x8, addend: 0x0, symName: '__ZN7ndarray9dimension34max_abs_offset_check_overflow_impl28_$u7b$$u7b$closure$u7d$$u7d$17h022dcbcd6e90230fE', symObjAddr: 0xF58, symBinAddr: 0x36EA8, symSize: 0x18 }
  - { offset: 0xB0BEE, size: 0x8, addend: 0x0, symName: '__ZN7ndarray9dimension34max_abs_offset_check_overflow_impl28_$u7b$$u7b$closure$u7d$$u7d$17he7b6482709d11331E', symObjAddr: 0xF70, symBinAddr: 0x36EC0, symSize: 0xD0 }
  - { offset: 0xB0CE0, size: 0x8, addend: 0x0, symName: '__ZN7ndarray9dimension34max_abs_offset_check_overflow_impl28_$u7b$$u7b$closure$u7d$$u7d$17heeb542879283cae3E', symObjAddr: 0x1040, symBinAddr: 0x36F90, symSize: 0x18 }
  - { offset: 0xB0D27, size: 0x8, addend: 0x0, symName: __ZN7ndarray9dimension39offset_from_low_addr_ptr_to_logical_ptr17hadca60d1ee23fae6E, symObjAddr: 0x1058, symBinAddr: 0x36FA8, symSize: 0x9C }
  - { offset: 0xB0D90, size: 0x8, addend: 0x0, symName: '__ZN7ndarray9dimension39offset_from_low_addr_ptr_to_logical_ptr28_$u7b$$u7b$closure$u7d$$u7d$17h7f09ba61329e93bbE', symObjAddr: 0x10F4, symBinAddr: 0x37044, symSize: 0xFC }
  - { offset: 0xB0E84, size: 0x8, addend: 0x0, symName: __ZN4core3cmp9PartialEq2ne17h120352d89bc46d91E, symObjAddr: 0x0, symBinAddr: 0x35F50, symSize: 0x30 }
  - { offset: 0xB1690, size: 0x8, addend: 0x0, symName: __ZN4core3cmp6max_by17hc32658ee33fbc334E, symObjAddr: 0x0, symBinAddr: 0x37140, symSize: 0xD4 }
  - { offset: 0xB16C9, size: 0x8, addend: 0x0, symName: __ZN4core3cmp6max_by17hc32658ee33fbc334E, symObjAddr: 0x0, symBinAddr: 0x37140, symSize: 0xD4 }
  - { offset: 0xB181B, size: 0x8, addend: 0x0, symName: __ZN4core5panic8location8Location4file17h7e30f0407acdba3aE, symObjAddr: 0x0, symBinAddr: 0x37214, symSize: 0x20 }
  - { offset: 0xB1983, size: 0x8, addend: 0x0, symName: __ZN4core5panic8location8Location4file17h7e30f0407acdba3aE, symObjAddr: 0x0, symBinAddr: 0x37214, symSize: 0x20 }
  - { offset: 0xB19B9, size: 0x8, addend: 0x0, symName: __ZN4core5panic8location8Location4line17hee3d8bb597978eddE, symObjAddr: 0x20, symBinAddr: 0x37234, symSize: 0x18 }
  - { offset: 0xB19FA, size: 0x8, addend: 0x0, symName: '__ZN4core3ptr9const_ptr33_$LT$impl$u20$$BP$const$u20$T$GT$7is_null17hcde30382a0ddc66bE', symObjAddr: 0x0, symBinAddr: 0x3724C, symSize: 0x18 }
  - { offset: 0xB2241, size: 0x8, addend: 0x0, symName: '__ZN4core3ptr9const_ptr33_$LT$impl$u20$$BP$const$u20$T$GT$7is_null17hcde30382a0ddc66bE', symObjAddr: 0x0, symBinAddr: 0x3724C, symSize: 0x18 }
  - { offset: 0xB23FE, size: 0x8, addend: 0x0, symName: '__ZN4core5slice29_$LT$impl$u20$$u5b$T$u5d$$GT$15copy_from_slice17h869744fd1d428f5aE', symObjAddr: 0x18, symBinAddr: 0x37264, symSize: 0x34 }
  - { offset: 0xB2467, size: 0x8, addend: 0x0, symName: '__ZN4core5slice29_$LT$impl$u20$$u5b$T$u5d$$GT$18split_at_unchecked17h4023e6afde3228b3E', symObjAddr: 0x4C, symBinAddr: 0x37298, symSize: 0xE8 }
  - { offset: 0xB25F4, size: 0x8, addend: 0x0, symName: '__ZN4core5slice29_$LT$impl$u20$$u5b$T$u5d$$GT$8split_at17h8f8263c51363169cE', symObjAddr: 0x134, symBinAddr: 0x37380, symSize: 0xAC }
  - { offset: 0xB393E, size: 0x8, addend: 0x0, symName: '__ZN68_$LT$core..option..Option$LT$T$GT$$u20$as$u20$core..clone..Clone$GT$5clone17h08f96fa5d7d1ec6bE', symObjAddr: 0x7BC, symBinAddr: 0x37A08, symSize: 0x78 }
  - { offset: 0xB3993, size: 0x8, addend: 0x0, symName: '__ZN68_$LT$core..option..Option$LT$T$GT$$u20$as$u20$core..clone..Clone$GT$5clone17h4f0adb49dc2fcf4eE', symObjAddr: 0x834, symBinAddr: 0x37A80, symSize: 0x64 }
  - { offset: 0xB486C, size: 0x8, addend: 0x0, symName: '__ZN4core6option15Option$LT$T$GT$10ok_or_else17h47290f1c15523a35E', symObjAddr: 0x1E0, symBinAddr: 0x3742C, symSize: 0x60 }
  - { offset: 0xB48D7, size: 0x8, addend: 0x0, symName: '__ZN4core6option15Option$LT$T$GT$10ok_or_else17heab453aa85de84f8E', symObjAddr: 0x240, symBinAddr: 0x3748C, symSize: 0x60 }
  - { offset: 0xB4942, size: 0x8, addend: 0x0, symName: '__ZN4core6option15Option$LT$T$GT$10ok_or_else17hf1af3dbfcdf526c8E', symObjAddr: 0x2A0, symBinAddr: 0x374EC, symSize: 0x60 }
  - { offset: 0xB49FF, size: 0x8, addend: 0x0, symName: '__ZN4core6option15Option$LT$T$GT$14unwrap_or_else17h004e6d05f7dfb5afE', symObjAddr: 0x300, symBinAddr: 0x3754C, symSize: 0x48 }
  - { offset: 0xB4A43, size: 0x8, addend: 0x0, symName: '__ZN4core6option15Option$LT$T$GT$14unwrap_or_else17haf7bfc8d96d51fa2E', symObjAddr: 0x348, symBinAddr: 0x37594, symSize: 0x48 }
  - { offset: 0xB4A87, size: 0x8, addend: 0x0, symName: '__ZN4core6option15Option$LT$T$GT$14unwrap_or_else17hb266f90a42f66a0fE', symObjAddr: 0x390, symBinAddr: 0x375DC, symSize: 0x48 }
  - { offset: 0xB4ACB, size: 0x8, addend: 0x0, symName: '__ZN4core6option15Option$LT$T$GT$14unwrap_or_else17hdac452ccafc47255E', symObjAddr: 0x3D8, symBinAddr: 0x37624, symSize: 0x48 }
  - { offset: 0xB4B0F, size: 0x8, addend: 0x0, symName: '__ZN4core6option15Option$LT$T$GT$14unwrap_or_else17he25ba549e8e87c5aE', symObjAddr: 0x420, symBinAddr: 0x3766C, symSize: 0x48 }
  - { offset: 0xB4BCD, size: 0x8, addend: 0x0, symName: '__ZN4core6option15Option$LT$T$GT$3map17h17b6c5dcbb2d0745E', symObjAddr: 0x468, symBinAddr: 0x376B4, symSize: 0x78 }
  - { offset: 0xB4C45, size: 0x8, addend: 0x0, symName: '__ZN4core6option15Option$LT$T$GT$3map17h79721762e0745334E', symObjAddr: 0x4E0, symBinAddr: 0x3772C, symSize: 0x50 }
  - { offset: 0xB4D01, size: 0x8, addend: 0x0, symName: '__ZN4core6option15Option$LT$T$GT$3map17h86bdd64aab66b375E', symObjAddr: 0x530, symBinAddr: 0x3777C, symSize: 0x50 }
  - { offset: 0xB4D79, size: 0x8, addend: 0x0, symName: '__ZN4core6option15Option$LT$T$GT$3map17haf6691f72d1f4014E', symObjAddr: 0x580, symBinAddr: 0x377CC, symSize: 0x50 }
  - { offset: 0xB4DFE, size: 0x8, addend: 0x0, symName: '__ZN4core6option15Option$LT$T$GT$3map17hbdb41b3e6b06a86fE', symObjAddr: 0x5D0, symBinAddr: 0x3781C, symSize: 0x50 }
  - { offset: 0xB4E7D, size: 0x8, addend: 0x0, symName: '__ZN4core6option15Option$LT$T$GT$6expect17hbfdd820ac7a54875E', symObjAddr: 0x620, symBinAddr: 0x3786C, symSize: 0x5C }
  - { offset: 0xB5072, size: 0x8, addend: 0x0, symName: '__ZN4core6option15Option$LT$T$GT$6insert17h4122a77a927368b2E', symObjAddr: 0x67C, symBinAddr: 0x378C8, symSize: 0xA8 }
  - { offset: 0xB5131, size: 0x8, addend: 0x0, symName: '__ZN4core6option15Option$LT$T$GT$7is_none17h42c78ec111be10f1E', symObjAddr: 0x724, symBinAddr: 0x37970, symSize: 0x20 }
  - { offset: 0xB5188, size: 0x8, addend: 0x0, symName: '__ZN4core6option15Option$LT$T$GT$7is_some17h67a8902f2fb3af18E', symObjAddr: 0x744, symBinAddr: 0x37990, symSize: 0x28 }
  - { offset: 0xB5206, size: 0x8, addend: 0x0, symName: '__ZN4core6option15Option$LT$T$GT$7is_some17hfe13a668d3e873dcE', symObjAddr: 0x76C, symBinAddr: 0x379B8, symSize: 0x28 }
  - { offset: 0xB523F, size: 0x8, addend: 0x0, symName: '__ZN4core6option15Option$LT$T$GT$7replace17h4aad9e856a1adf9cE', symObjAddr: 0x794, symBinAddr: 0x379E0, symSize: 0x28 }
  - { offset: 0xB5308, size: 0x8, addend: 0x0, symName: '__ZN59_$LT$alloc..alloc..Global$u20$as$u20$core..clone..Clone$GT$5clone17h6477f242aaef7facE', symObjAddr: 0x0, symBinAddr: 0x37AE4, symSize: 0x10 }
  - { offset: 0xB5C7E, size: 0x8, addend: 0x0, symName: '__ZN59_$LT$alloc..alloc..Global$u20$as$u20$core..clone..Clone$GT$5clone17h6477f242aaef7facE', symObjAddr: 0x0, symBinAddr: 0x37AE4, symSize: 0x10 }
  - { offset: 0xB5CFD, size: 0x8, addend: 0x0, symName: __ZN5alloc5alloc15exchange_malloc17h6ed51c45f1d4ca01E, symObjAddr: 0x10, symBinAddr: 0x37AF4, symSize: 0xAC }
  - { offset: 0xB5FE1, size: 0x8, addend: 0x0, symName: __ZN5alloc5alloc6Global10alloc_impl17h7c7d0d6ff6a14ed9E, symObjAddr: 0xBC, symBinAddr: 0x37BA0, symSize: 0x198 }
  - { offset: 0xB6399, size: 0x8, addend: 0x0, symName: '__ZN129_$LT$ndarray..dimension..dim..Dim$LT$$u5b$usize$u3b$$u20$1$u5d$$GT$$u20$as$u20$ndarray..dimension..dimension_trait..Dimension$GT$14from_dimension17h3d9ce372a5b296e8E', symObjAddr: 0x0, symBinAddr: 0x37D38, symSize: 0xAC }
  - { offset: 0xB6436, size: 0x8, addend: 0x0, symName: '__ZN74_$LT$ndarray..dimension..dim..Dim$LT$I$GT$$u20$as$u20$core..fmt..Debug$GT$3fmt17h50927cbff564dbe7E', symObjAddr: 0x3CC, symBinAddr: 0x38104, symSize: 0x68 }
  - { offset: 0xB64B9, size: 0x8, addend: 0x0, symName: '__ZN76_$LT$ndarray..dimension..dim..Dim$LT$I$GT$$u20$as$u20$core..clone..Clone$GT$5clone17hfc9520a8e23ac718E', symObjAddr: 0x434, symBinAddr: 0x3816C, symSize: 0x3C }
  - { offset: 0xB64EF, size: 0x8, addend: 0x0, symName: __ZN7ndarray9dimension3dim3Dim17he143dd5613d4617aE, symObjAddr: 0xBF0, symBinAddr: 0x38928, symSize: 0x28 }
  - { offset: 0xB6529, size: 0x8, addend: 0x0, symName: '__ZN80_$LT$ndarray..dimension..dim..Dim$LT$I$GT$$u20$as$u20$core..default..Default$GT$7default17h5c6c9f4831fa2402E', symObjAddr: 0xC18, symBinAddr: 0x38950, symSize: 0x34 }
  - { offset: 0xB657A, size: 0x8, addend: 0x0, symName: '__ZN129_$LT$ndarray..dimension..dim..Dim$LT$$u5b$usize$u3b$$u20$1$u5d$$GT$$u20$as$u20$ndarray..dimension..dimension_trait..Dimension$GT$14from_dimension17h3d9ce372a5b296e8E', symObjAddr: 0x0, symBinAddr: 0x37D38, symSize: 0xAC }
  - { offset: 0xB65D5, size: 0x8, addend: 0x0, symName: __ZN7ndarray9dimension15dimension_trait9Dimension13is_contiguous17h9ca8efe2116658c9E, symObjAddr: 0x470, symBinAddr: 0x381A8, symSize: 0x38C }
  - { offset: 0xB6744, size: 0x8, addend: 0x0, symName: __ZN7ndarray9dimension15dimension_trait9Dimension13set_last_elem17h6e8808aac9e10275E, symObjAddr: 0x7FC, symBinAddr: 0x38534, symSize: 0xAC }
  - { offset: 0xB679C, size: 0x8, addend: 0x0, symName: __ZN7ndarray9dimension15dimension_trait9Dimension15fortran_strides17h6678983749b25241E, symObjAddr: 0x8A8, symBinAddr: 0x385E0, symSize: 0x270 }
  - { offset: 0xB6883, size: 0x8, addend: 0x0, symName: __ZN7ndarray9dimension15dimension_trait9Dimension9last_elem17h354539ecfe609b09E, symObjAddr: 0xB18, symBinAddr: 0x38850, symSize: 0xB4 }
  - { offset: 0xB694C, size: 0x8, addend: 0x0, symName: '__ZN54_$LT$D$u20$as$u20$ndarray..dimension..DimensionExt$GT$4axis17he993f9bae414e10cE', symObjAddr: 0x110, symBinAddr: 0x37E48, symSize: 0x70 }
  - { offset: 0xB69B8, size: 0x8, addend: 0x0, symName: '__ZN54_$LT$D$u20$as$u20$ndarray..dimension..DimensionExt$GT$8set_axis17h7a1b6e92c8ad7486E', symObjAddr: 0x180, symBinAddr: 0x37EB8, symSize: 0x7C }
  - { offset: 0xB6AEB, size: 0x8, addend: 0x0, symName: '__ZN58_$LT$T$u20$as$u20$ndarray..shape_builder..ShapeBuilder$GT$21into_shape_with_order17h3f78e6685c0cff28E', symObjAddr: 0x1FC, symBinAddr: 0x37F34, symSize: 0x5C }
  - { offset: 0xB6B3D, size: 0x8, addend: 0x0, symName: '__ZN58_$LT$T$u20$as$u20$ndarray..shape_builder..ShapeBuilder$GT$7strides17hdad0a5a79713d361E', symObjAddr: 0x258, symBinAddr: 0x37F90, symSize: 0x120 }
  - { offset: 0xB6D2C, size: 0x8, addend: 0x0, symName: '__ZN42_$LT$$RF$T$u20$as$u20$core..fmt..Debug$GT$3fmt17hd169015aa8780acaE', symObjAddr: 0xAC, symBinAddr: 0x37DE4, symSize: 0x30 }
  - { offset: 0xB6E62, size: 0x8, addend: 0x0, symName: '__ZN50_$LT$T$u20$as$u20$core..convert..Into$LT$U$GT$$GT$4into17h5afaf6b971e4ac7aE', symObjAddr: 0xDC, symBinAddr: 0x37E14, symSize: 0x34 }
  - { offset: 0xB712F, size: 0x8, addend: 0x0, symName: __ZN5numpy7convert9ToNpyDims11as_dims_ptr17h399e233d1c16e23bE, symObjAddr: 0x378, symBinAddr: 0x380B0, symSize: 0x30 }
  - { offset: 0xB7166, size: 0x8, addend: 0x0, symName: __ZN5numpy7convert9ToNpyDims9ndim_cint17h72c722e8f18b201dE, symObjAddr: 0x3A8, symBinAddr: 0x380E0, symSize: 0x24 }
  - { offset: 0xB71C8, size: 0x8, addend: 0x0, symName: '__ZN7ndarray9dimension3dim12Dim$LT$I$GT$3new17hbce83577fa6023c9E', symObjAddr: 0xBCC, symBinAddr: 0x38904, symSize: 0x24 }
  - { offset: 0xB7388, size: 0x8, addend: 0x0, symName: '__ZN105_$LT$pyo3..instance..Py$LT$T$GT$$u20$as$u20$core..convert..From$LT$pyo3..instance..Bound$LT$T$GT$$GT$$GT$4from17h281f71c995093596E', symObjAddr: 0x0, symBinAddr: 0x38984, symSize: 0x24 }
  - { offset: 0xB73D0, size: 0x8, addend: 0x0, symName: '__ZN125_$LT$pyo3..instance..Bound$LT$numpy..array..PyArray$LT$T$C$D$GT$$GT$$u20$as$u20$numpy..array..PyArrayMethods$LT$T$C$D$GT$$GT$12try_readonly17h44fdbf0e79550773E', symObjAddr: 0x350, symBinAddr: 0x38CD4, symSize: 0x30 }
  - { offset: 0xB7410, size: 0x8, addend: 0x0, symName: '__ZN125_$LT$pyo3..instance..Bound$LT$numpy..array..PyArray$LT$T$C$D$GT$$GT$$u20$as$u20$numpy..array..PyArrayMethods$LT$T$C$D$GT$$GT$12try_readonly17hacfb61ebc34177dfE', symObjAddr: 0x380, symBinAddr: 0x38D04, symSize: 0x30 }
  - { offset: 0xB7450, size: 0x8, addend: 0x0, symName: '__ZN125_$LT$pyo3..instance..Bound$LT$numpy..array..PyArray$LT$T$C$D$GT$$GT$$u20$as$u20$numpy..array..PyArrayMethods$LT$T$C$D$GT$$GT$17try_into_readonly17h180abe734a4b7ce1E', symObjAddr: 0x3B0, symBinAddr: 0x38D34, symSize: 0x24 }
  - { offset: 0xB7490, size: 0x8, addend: 0x0, symName: '__ZN125_$LT$pyo3..instance..Bound$LT$numpy..array..PyArray$LT$T$C$D$GT$$GT$$u20$as$u20$numpy..array..PyArrayMethods$LT$T$C$D$GT$$GT$17try_into_readonly17h8610e96406eb09f2E', symObjAddr: 0x3D4, symBinAddr: 0x38D58, symSize: 0x24 }
  - { offset: 0xB74D0, size: 0x8, addend: 0x0, symName: '__ZN125_$LT$pyo3..instance..Bound$LT$numpy..array..PyArray$LT$T$C$D$GT$$GT$$u20$as$u20$numpy..array..PyArrayMethods$LT$T$C$D$GT$$GT$8as_array17h94d8ddf94efe344bE', symObjAddr: 0x3F8, symBinAddr: 0x38D7C, symSize: 0x24 }
  - { offset: 0xB7510, size: 0x8, addend: 0x0, symName: '__ZN125_$LT$pyo3..instance..Bound$LT$numpy..array..PyArray$LT$T$C$D$GT$$GT$$u20$as$u20$numpy..array..PyArrayMethods$LT$T$C$D$GT$$GT$8as_array17hfaa98c02c67e536bE', symObjAddr: 0x41C, symBinAddr: 0x38DA0, symSize: 0x24 }
  - { offset: 0xB7634, size: 0x8, addend: 0x0, symName: __ZN5numpy5array14PyArrayMethods8readonly17h61a204ddf9572aa4E, symObjAddr: 0x16A4, symBinAddr: 0x3A028, symSize: 0x8C }
  - { offset: 0xB76B5, size: 0x8, addend: 0x0, symName: __ZN5numpy5array14PyArrayMethods8readonly17hc59c4631c65a8708E, symObjAddr: 0x1730, symBinAddr: 0x3A0B4, symSize: 0x8C }
  - { offset: 0xB7757, size: 0x8, addend: 0x0, symName: '__ZN127_$LT$pyo3..instance..Bound$LT$numpy..array..PyArray$LT$T$C$D$GT$$GT$$u20$as$u20$numpy..untyped_array..PyUntypedArrayMethods$GT$12as_array_ptr17h485d6a04c3f2a1d7E', symObjAddr: 0x440, symBinAddr: 0x38DC4, symSize: 0x30 }
  - { offset: 0xB77B5, size: 0x8, addend: 0x0, symName: '__ZN127_$LT$pyo3..instance..Bound$LT$numpy..array..PyArray$LT$T$C$D$GT$$GT$$u20$as$u20$numpy..untyped_array..PyUntypedArrayMethods$GT$12as_array_ptr17hd75231ff055bb164E', symObjAddr: 0x470, symBinAddr: 0x38DF4, symSize: 0x30 }
  - { offset: 0xB7813, size: 0x8, addend: 0x0, symName: '__ZN127_$LT$pyo3..instance..Bound$LT$numpy..array..PyArray$LT$T$C$D$GT$$GT$$u20$as$u20$numpy..untyped_array..PyUntypedArrayMethods$GT$5dtype17h852fab19777a7110E', symObjAddr: 0x4A0, symBinAddr: 0x38E24, symSize: 0x30 }
  - { offset: 0xB7871, size: 0x8, addend: 0x0, symName: '__ZN127_$LT$pyo3..instance..Bound$LT$numpy..array..PyArray$LT$T$C$D$GT$$GT$$u20$as$u20$numpy..untyped_array..PyUntypedArrayMethods$GT$5dtype17h8787bfc168902061E', symObjAddr: 0x4D0, symBinAddr: 0x38E54, symSize: 0x30 }
  - { offset: 0xB78D5, size: 0x8, addend: 0x0, symName: __ZN5numpy13untyped_array21PyUntypedArrayMethods4ndim17h43f42fa5bd986f9dE, symObjAddr: 0x1264, symBinAddr: 0x39BE8, symSize: 0x78 }
  - { offset: 0xB790A, size: 0x8, addend: 0x0, symName: __ZN5numpy13untyped_array21PyUntypedArrayMethods4ndim17h97cf16077e669619E, symObjAddr: 0x12DC, symBinAddr: 0x39C60, symSize: 0x78 }
  - { offset: 0xB793F, size: 0x8, addend: 0x0, symName: __ZN5numpy13untyped_array21PyUntypedArrayMethods5shape17h98ad7785a7827593E, symObjAddr: 0x1354, symBinAddr: 0x39CD8, symSize: 0xD4 }
  - { offset: 0xB79BE, size: 0x8, addend: 0x0, symName: __ZN5numpy13untyped_array21PyUntypedArrayMethods5shape17heb4de950a2dc9e5dE, symObjAddr: 0x1428, symBinAddr: 0x39DAC, symSize: 0xD4 }
  - { offset: 0xB7A3D, size: 0x8, addend: 0x0, symName: __ZN5numpy13untyped_array21PyUntypedArrayMethods7strides17h193f13fd9d37da84E, symObjAddr: 0x14FC, symBinAddr: 0x39E80, symSize: 0xD4 }
  - { offset: 0xB7AB9, size: 0x8, addend: 0x0, symName: __ZN5numpy13untyped_array21PyUntypedArrayMethods7strides17h4da85a76dbc0677cE, symObjAddr: 0x15D0, symBinAddr: 0x39F54, symSize: 0xD4 }
  - { offset: 0xB94D9, size: 0x8, addend: 0x0, symName: '__ZN4core5slice29_$LT$impl$u20$$u5b$T$u5d$$GT$4iter17h2bdc3b61058e37acE', symObjAddr: 0x500, symBinAddr: 0x38E84, symSize: 0x28 }
  - { offset: 0xB9D94, size: 0x8, addend: 0x0, symName: '__ZN50_$LT$T$u20$as$u20$core..convert..Into$LT$U$GT$$GT$4into17h9184c4eafae96338E', symObjAddr: 0x1240, symBinAddr: 0x39BC4, symSize: 0x24 }
  - { offset: 0xB9F72, size: 0x8, addend: 0x0, symName: '__ZN105_$LT$pyo3..instance..Py$LT$T$GT$$u20$as$u20$core..convert..From$LT$pyo3..instance..Bound$LT$T$GT$$GT$$GT$4from17h281f71c995093596E', symObjAddr: 0x0, symBinAddr: 0x38984, symSize: 0x24 }
  - { offset: 0xBA7AF, size: 0x8, addend: 0x0, symName: '__ZN4pyo38instance17Borrowed$LT$T$GT$4cast5inner17h7eeae193919dd85fE', symObjAddr: 0xFB8, symBinAddr: 0x3993C, symSize: 0x7C }
  - { offset: 0xBA7E6, size: 0x8, addend: 0x0, symName: '__ZN4pyo38instance17Borrowed$LT$T$GT$4cast5inner17h974512b6f466c315E', symObjAddr: 0x1034, symBinAddr: 0x399B8, symSize: 0x7C }
  - { offset: 0xBA81D, size: 0x8, addend: 0x0, symName: '__ZN4pyo38instance17Borrowed$LT$T$GT$4cast5inner17hba8d3b8d4fcb5375E', symObjAddr: 0x10B0, symBinAddr: 0x39A34, symSize: 0x7C }
  - { offset: 0xBA854, size: 0x8, addend: 0x0, symName: '__ZN4pyo38instance17Borrowed$LT$T$GT$4cast5inner17hc0f4ced1728ab706E', symObjAddr: 0x112C, symBinAddr: 0x39AB0, symSize: 0x7C }
  - { offset: 0xBA911, size: 0x8, addend: 0x0, symName: '__ZN69_$LT$pyo3..instance..Bound$LT$T$GT$$u20$as$u20$core..clone..Clone$GT$5clone17h093cc819b4bb09c7E', symObjAddr: 0x17BC, symBinAddr: 0x3A140, symSize: 0x34 }
  - { offset: 0xBA948, size: 0x8, addend: 0x0, symName: '__ZN69_$LT$pyo3..instance..Bound$LT$T$GT$$u20$as$u20$core..clone..Clone$GT$5clone17h1385518c931a1942E', symObjAddr: 0x17F0, symBinAddr: 0x3A174, symSize: 0x34 }
  - { offset: 0xBA985, size: 0x8, addend: 0x0, symName: '__ZN77_$LT$pyo3..instance..Borrowed$LT$T$GT$$u20$as$u20$core..ops..deref..Deref$GT$5deref17h23c527e5b8e4d01aE', symObjAddr: 0x1824, symBinAddr: 0x3A1A8, symSize: 0x28 }
  - { offset: 0xBA9BC, size: 0x8, addend: 0x0, symName: '__ZN77_$LT$pyo3..instance..Borrowed$LT$T$GT$$u20$as$u20$core..ops..deref..Deref$GT$5deref17h5956c909687e00b4E', symObjAddr: 0x184C, symBinAddr: 0x3A1D0, symSize: 0x28 }
  - { offset: 0xBA9F9, size: 0x8, addend: 0x0, symName: '__ZN87_$LT$pyo3..instance..Bound$LT$T$GT$$u20$as$u20$pyo3..instance..BoundObject$LT$T$GT$$GT$8into_any17hf8691578b4379531E', symObjAddr: 0x1898, symBinAddr: 0x3A21C, symSize: 0x24 }
  - { offset: 0xBABBB, size: 0x8, addend: 0x0, symName: '__ZN115_$LT$pyo3..instance..Bound$LT$pyo3..types..module..PyModule$GT$$u20$as$u20$pyo3..types..module..PyModuleMethods$GT$3add17h5e9f45375714fc6fE', symObjAddr: 0x24, symBinAddr: 0x389A8, symSize: 0x25C }
  - { offset: 0xBAC88, size: 0x8, addend: 0x0, symName: '__ZN115_$LT$pyo3..instance..Bound$LT$pyo3..types..module..PyModule$GT$$u20$as$u20$pyo3..types..module..PyModuleMethods$GT$9add_class17h4a6c93ddaa6dffd1E', symObjAddr: 0x280, symBinAddr: 0x38C04, symSize: 0xD0 }
  - { offset: 0xBAD3A, size: 0x8, addend: 0x0, symName: '__ZN4pyo35types5tuple76_$LT$impl$u20$pyo3..conversion..IntoPyObject$u20$for$u20$$LP$T0$C$T1$RP$$GT$13into_pyobject17h130f0d7db482308eE', symObjAddr: 0x6A8, symBinAddr: 0x3902C, symSize: 0x1F4 }
  - { offset: 0xBAEF6, size: 0x8, addend: 0x0, symName: __ZN4pyo310conversion15IntoPyObjectExt17into_bound_py_any17h9cedfec9cfd6db06E, symObjAddr: 0x528, symBinAddr: 0x38EAC, symSize: 0xD4 }
  - { offset: 0xBAF83, size: 0x8, addend: 0x0, symName: __ZN4pyo310conversion15IntoPyObjectExt17into_bound_py_any17hc8379ef34857c5a3E, symObjAddr: 0x5FC, symBinAddr: 0x38F80, symSize: 0x50 }
  - { offset: 0xBAFEE, size: 0x8, addend: 0x0, symName: __ZN4pyo310conversion15IntoPyObjectExt22into_pyobject_or_pyerr17hd722c30b1b1dada9E, symObjAddr: 0x64C, symBinAddr: 0x38FD0, symSize: 0x48 }
  - { offset: 0xBB064, size: 0x8, addend: 0x0, symName: '__ZN78_$LT$pyo3..instance..Py$LT$T$GT$$u20$as$u20$pyo3..conversion..IntoPyObject$GT$13into_pyobject17h94b928cf5b6cc1d7E', symObjAddr: 0x1874, symBinAddr: 0x3A1F8, symSize: 0x24 }
  - { offset: 0xBB0C3, size: 0x8, addend: 0x0, symName: '__ZN4pyo35impl_9pymethods133_$LT$impl$u20$core..convert..From$LT$pyo3..impl_..pymethods..BoundRef$LT$T$GT$$GT$$u20$for$u20$$RF$pyo3..instance..Bound$LT$T$GT$$GT$4from17h7b26bdea0a771fd6E', symObjAddr: 0x694, symBinAddr: 0x39018, symSize: 0x14 }
  - { offset: 0xBBAAB, size: 0x8, addend: 0x0, symName: '__ZN4pyo38instance11Py$LT$T$GT$10into_bound17h88dce92cdf2e86f9E', symObjAddr: 0x89C, symBinAddr: 0x39220, symSize: 0x1C }
  - { offset: 0xBBAFF, size: 0x8, addend: 0x0, symName: '__ZN4pyo38instance11Py$LT$T$GT$6as_ptr17h2598e1e52cb40085E', symObjAddr: 0x8B8, symBinAddr: 0x3923C, symSize: 0x1C }
  - { offset: 0xBBB38, size: 0x8, addend: 0x0, symName: '__ZN4pyo38instance11Py$LT$T$GT$6as_ptr17h491b9e4c29b5c599E', symObjAddr: 0x8D4, symBinAddr: 0x39258, symSize: 0x1C }
  - { offset: 0xBBB71, size: 0x8, addend: 0x0, symName: '__ZN4pyo38instance11Py$LT$T$GT$6as_ptr17hfeb92a58810bf348E', symObjAddr: 0x8F0, symBinAddr: 0x39274, symSize: 0x1C }
  - { offset: 0xBBB9D, size: 0x8, addend: 0x0, symName: '__ZN4pyo38instance11Py$LT$T$GT$8into_any17h6d33a70c335ea8a7E', symObjAddr: 0x90C, symBinAddr: 0x39290, symSize: 0x30 }
  - { offset: 0xBBD26, size: 0x8, addend: 0x0, symName: '__ZN4pyo38instance11Py$LT$T$GT$8into_any17hd06ff76e1415f389E', symObjAddr: 0x93C, symBinAddr: 0x392C0, symSize: 0x30 }
  - { offset: 0xBBD52, size: 0x8, addend: 0x0, symName: '__ZN4pyo38instance11Py$LT$T$GT$9clone_ref17h70c5355e4c68289cE', symObjAddr: 0x96C, symBinAddr: 0x392F0, symSize: 0x10C }
  - { offset: 0xBBDEE, size: 0x8, addend: 0x0, symName: '__ZN4pyo38instance11Py$LT$T$GT$9clone_ref17hadebda709087063dE', symObjAddr: 0xA78, symBinAddr: 0x393FC, symSize: 0x10C }
  - { offset: 0xBBEC0, size: 0x8, addend: 0x0, symName: '__ZN4pyo38instance14Bound$LT$T$GT$14cast_unchecked17h440816f4a1bb5772E', symObjAddr: 0xB84, symBinAddr: 0x39508, symSize: 0x38 }
  - { offset: 0xBBF13, size: 0x8, addend: 0x0, symName: '__ZN4pyo38instance14Bound$LT$T$GT$14cast_unchecked17h46595677b813d76bE', symObjAddr: 0xBBC, symBinAddr: 0x39540, symSize: 0x38 }
  - { offset: 0xBBFA9, size: 0x8, addend: 0x0, symName: '__ZN4pyo38instance14Bound$LT$T$GT$14cast_unchecked17h64392cdc39f78b03E', symObjAddr: 0xBF4, symBinAddr: 0x39578, symSize: 0x38 }
  - { offset: 0xBC032, size: 0x8, addend: 0x0, symName: '__ZN4pyo38instance14Bound$LT$T$GT$14cast_unchecked17h869479904a426097E', symObjAddr: 0xC2C, symBinAddr: 0x395B0, symSize: 0x38 }
  - { offset: 0xBC085, size: 0x8, addend: 0x0, symName: '__ZN4pyo38instance14Bound$LT$T$GT$19cast_into_unchecked17h8ae6ef573d8b1a3bE', symObjAddr: 0xC64, symBinAddr: 0x395E8, symSize: 0x14 }
  - { offset: 0xBC0BA, size: 0x8, addend: 0x0, symName: '__ZN4pyo38instance14Bound$LT$T$GT$19cast_into_unchecked17h917843672394c26fE', symObjAddr: 0xC78, symBinAddr: 0x395FC, symSize: 0x14 }
  - { offset: 0xBC0EF, size: 0x8, addend: 0x0, symName: '__ZN4pyo38instance14Bound$LT$T$GT$2py17h1bcc3b4230478c0bE', symObjAddr: 0xC8C, symBinAddr: 0x39610, symSize: 0x10 }
  - { offset: 0xBC11B, size: 0x8, addend: 0x0, symName: '__ZN4pyo38instance14Bound$LT$T$GT$2py17hcd2cffb9ac98e248E', symObjAddr: 0xC9C, symBinAddr: 0x39620, symSize: 0x10 }
  - { offset: 0xBC147, size: 0x8, addend: 0x0, symName: '__ZN4pyo38instance14Bound$LT$T$GT$6as_ptr17h3880d63a09200defE', symObjAddr: 0xCAC, symBinAddr: 0x39630, symSize: 0x2C }
  - { offset: 0xBC180, size: 0x8, addend: 0x0, symName: '__ZN4pyo38instance14Bound$LT$T$GT$6as_ptr17h38ab17ec5341bb0aE', symObjAddr: 0xCD8, symBinAddr: 0x3965C, symSize: 0x2C }
  - { offset: 0xBC1AC, size: 0x8, addend: 0x0, symName: '__ZN4pyo38instance14Bound$LT$T$GT$6as_ptr17hb3f00ebfa2bcca41E', symObjAddr: 0xD04, symBinAddr: 0x39688, symSize: 0x2C }
  - { offset: 0xBC1D8, size: 0x8, addend: 0x0, symName: '__ZN4pyo38instance14Bound$LT$T$GT$6unbind17h41acaee3d962ca81E', symObjAddr: 0xD30, symBinAddr: 0x396B4, symSize: 0x3C }
  - { offset: 0xBC204, size: 0x8, addend: 0x0, symName: '__ZN4pyo38instance14Bound$LT$T$GT$6unbind17h88eb8a538ae8591fE', symObjAddr: 0xD6C, symBinAddr: 0x396F0, symSize: 0x3C }
  - { offset: 0xBC230, size: 0x8, addend: 0x0, symName: '__ZN4pyo38instance14Bound$LT$T$GT$8into_any17h18c57f0fe8f9f7dcE', symObjAddr: 0xDA8, symBinAddr: 0x3972C, symSize: 0x30 }
  - { offset: 0xBC25C, size: 0x8, addend: 0x0, symName: '__ZN4pyo38instance14Bound$LT$T$GT$8into_any17h6bb69f71ffc90d12E', symObjAddr: 0xDD8, symBinAddr: 0x3975C, symSize: 0x30 }
  - { offset: 0xBC288, size: 0x8, addend: 0x0, symName: '__ZN4pyo38instance14Bound$LT$T$GT$8into_ptr17h4721dbfe7861299eE', symObjAddr: 0xE08, symBinAddr: 0x3978C, symSize: 0x40 }
  - { offset: 0xBC2C1, size: 0x8, addend: 0x0, symName: '__ZN4pyo38instance17Borrowed$LT$T$GT$14cast_unchecked17h03afe284ca07c884E', symObjAddr: 0xE48, symBinAddr: 0x397CC, symSize: 0x14 }
  - { offset: 0xBC303, size: 0x8, addend: 0x0, symName: '__ZN4pyo38instance17Borrowed$LT$T$GT$14cast_unchecked17hca4067246f4f3b45E', symObjAddr: 0xE5C, symBinAddr: 0x397E0, symSize: 0x14 }
  - { offset: 0xBC338, size: 0x8, addend: 0x0, symName: '__ZN4pyo38instance17Borrowed$LT$T$GT$14cast_unchecked17he12092fed6566d25E', symObjAddr: 0xE70, symBinAddr: 0x397F4, symSize: 0x14 }
  - { offset: 0xBC37A, size: 0x8, addend: 0x0, symName: '__ZN4pyo38instance17Borrowed$LT$T$GT$16get_class_object17h4ca9ed1006c3c5bdE', symObjAddr: 0xE84, symBinAddr: 0x39808, symSize: 0x74 }
  - { offset: 0xBC3A6, size: 0x8, addend: 0x0, symName: '__ZN4pyo38instance17Borrowed$LT$T$GT$4cast17h04a38d76608739cdE', symObjAddr: 0xEF8, symBinAddr: 0x3987C, symSize: 0x30 }
  - { offset: 0xBC3DB, size: 0x8, addend: 0x0, symName: '__ZN4pyo38instance17Borrowed$LT$T$GT$4cast17h9a6fc2a94b4dad05E', symObjAddr: 0xF28, symBinAddr: 0x398AC, symSize: 0x30 }
  - { offset: 0xBC41D, size: 0x8, addend: 0x0, symName: '__ZN4pyo38instance17Borrowed$LT$T$GT$4cast17h9c843ad84bfef9b5E', symObjAddr: 0xF58, symBinAddr: 0x398DC, symSize: 0x30 }
  - { offset: 0xBC452, size: 0x8, addend: 0x0, symName: '__ZN4pyo38instance17Borrowed$LT$T$GT$4cast17hbc9602e4a55f9ed7E', symObjAddr: 0xF88, symBinAddr: 0x3990C, symSize: 0x30 }
  - { offset: 0xBC487, size: 0x8, addend: 0x0, symName: '__ZN4pyo38instance17Borrowed$LT$T$GT$6as_ptr17h849a88375a61539cE', symObjAddr: 0x11A8, symBinAddr: 0x39B2C, symSize: 0x1C }
  - { offset: 0xBC4C0, size: 0x8, addend: 0x0, symName: '__ZN4pyo38instance17Borrowed$LT$T$GT$6as_ptr17h8c1d307d98350fcfE', symObjAddr: 0x11C4, symBinAddr: 0x39B48, symSize: 0x1C }
  - { offset: 0xBC4EC, size: 0x8, addend: 0x0, symName: '__ZN4pyo38instance17Borrowed$LT$T$GT$7extract17h31e5c901069eb5e4E', symObjAddr: 0x11E0, symBinAddr: 0x39B64, symSize: 0x30 }
  - { offset: 0xBC521, size: 0x8, addend: 0x0, symName: '__ZN4pyo38instance17Borrowed$LT$T$GT$7extract17hbc9c46ac6f38f9b4E', symObjAddr: 0x1210, symBinAddr: 0x39B94, symSize: 0x30 }
  - { offset: 0xBC961, size: 0x8, addend: 0x0, symName: __ZN4core5alloc6layout6Layout25from_size_align_unchecked18precondition_check17h98575bba767ca053E, symObjAddr: 0x0, symBinAddr: 0x3A240, symSize: 0x70 }
  - { offset: 0xBC987, size: 0x8, addend: 0x0, symName: __ZN4core5alloc6layout6Layout25from_size_align_unchecked18precondition_check17h98575bba767ca053E, symObjAddr: 0x0, symBinAddr: 0x3A240, symSize: 0x70 }
  - { offset: 0xBCA32, size: 0x8, addend: 0x0, symName: '__ZN62_$LT$T$u20$as$u20$alloc..vec..spec_from_elem..SpecFromElem$GT$9from_elem17h3abb9451f0208736E', symObjAddr: 0x0, symBinAddr: 0x3A2B0, symSize: 0x198 }
  - { offset: 0xBD0EB, size: 0x8, addend: 0x0, symName: '__ZN62_$LT$T$u20$as$u20$alloc..vec..spec_from_elem..SpecFromElem$GT$9from_elem17h3abb9451f0208736E', symObjAddr: 0x0, symBinAddr: 0x3A2B0, symSize: 0x198 }
  - { offset: 0xBD203, size: 0x8, addend: 0x0, symName: '__ZN62_$LT$T$u20$as$u20$alloc..vec..spec_from_elem..SpecFromElem$GT$9from_elem17h57dc4652c55c9acaE', symObjAddr: 0x198, symBinAddr: 0x3A448, symSize: 0x198 }
  - { offset: 0xBD31B, size: 0x8, addend: 0x0, symName: '__ZN62_$LT$T$u20$as$u20$alloc..vec..spec_from_elem..SpecFromElem$GT$9from_elem17h890957deb605da4fE', symObjAddr: 0x330, symBinAddr: 0x3A5E0, symSize: 0x198 }
  - { offset: 0xBD7EB, size: 0x8, addend: 0x0, symName: __ZN4pyo36marker6Python15assume_attached17hdef372dbe9280e19E, symObjAddr: 0x0, symBinAddr: 0x3A778, symSize: 0x4 }
  - { offset: 0xBD927, size: 0x8, addend: 0x0, symName: __ZN4pyo36marker6Python15assume_attached17hdef372dbe9280e19E, symObjAddr: 0x0, symBinAddr: 0x3A778, symSize: 0x4 }
  - { offset: 0xBD9E7, size: 0x8, addend: 0x0, symName: __ZN4core3ptr4swap17heeba1cfc3dcf8f99E, symObjAddr: 0x178, symBinAddr: 0x3A77C, symSize: 0x120 }
  - { offset: 0xBDADD, size: 0x8, addend: 0x0, symName: __ZN4core3ptr5write17h58270ae3d54b7972E, symObjAddr: 0x298, symBinAddr: 0x3A89C, symSize: 0x24 }
  - { offset: 0xBDB1F, size: 0x8, addend: 0x0, symName: __ZN4core3ptr5write17h842ed0ac845edb45E, symObjAddr: 0x2BC, symBinAddr: 0x3A8C0, symSize: 0x1C }
  - { offset: 0xBDB61, size: 0x8, addend: 0x0, symName: __ZN4core3ptr5write17h9040abc2fb26d0f6E, symObjAddr: 0x2D8, symBinAddr: 0x3A8DC, symSize: 0x1C }
  - { offset: 0xBDD38, size: 0x8, addend: 0x0, symName: '__ZN106_$LT$core..ops..range..Range$LT$usize$GT$$u20$as$u20$core..slice..index..SliceIndex$LT$$u5b$T$u5d$$GT$$GT$9index_mut17h441976dae64e5068E', symObjAddr: 0x0, symBinAddr: 0x3A8F8, symSize: 0xBC }
  - { offset: 0xBEF98, size: 0x8, addend: 0x0, symName: '__ZN106_$LT$core..ops..range..Range$LT$usize$GT$$u20$as$u20$core..slice..index..SliceIndex$LT$$u5b$T$u5d$$GT$$GT$9index_mut17h441976dae64e5068E', symObjAddr: 0x0, symBinAddr: 0x3A8F8, symSize: 0xBC }
  - { offset: 0xBF049, size: 0x8, addend: 0x0, symName: '__ZN108_$LT$core..ops..range..RangeTo$LT$usize$GT$$u20$as$u20$core..slice..index..SliceIndex$LT$$u5b$T$u5d$$GT$$GT$9index_mut17hc147704e2af9dd09E', symObjAddr: 0xBC, symBinAddr: 0x3A9B4, symSize: 0x54 }
  - { offset: 0xBF0D0, size: 0x8, addend: 0x0, symName: '__ZN110_$LT$core..ops..range..RangeFrom$LT$usize$GT$$u20$as$u20$core..slice..index..SliceIndex$LT$$u5b$T$u5d$$GT$$GT$5index17h70316b9b6a337735E', symObjAddr: 0x110, symBinAddr: 0x3AA08, symSize: 0x70 }
  - { offset: 0xBF5D0, size: 0x8, addend: 0x0, symName: __ZN4core4iter6traits8iterator8Iterator3map17h286685326fc7cf76E, symObjAddr: 0x180, symBinAddr: 0x3AA78, symSize: 0x28 }
  - { offset: 0xBF63D, size: 0x8, addend: 0x0, symName: __ZN4core4iter6traits8iterator8Iterator3map17h2bb7f5be6d46b83dE, symObjAddr: 0x1A8, symBinAddr: 0x3AAA0, symSize: 0x30 }
  - { offset: 0xBF6AA, size: 0x8, addend: 0x0, symName: __ZN4core4iter6traits8iterator8Iterator3map17h8fc339f71f2138d0E, symObjAddr: 0x1D8, symBinAddr: 0x3AAD0, symSize: 0x28 }
  - { offset: 0xBF717, size: 0x8, addend: 0x0, symName: __ZN4core4iter6traits8iterator8Iterator3map17hb156dbf4d6aa6bb5E, symObjAddr: 0x200, symBinAddr: 0x3AAF8, symSize: 0x28 }
  - { offset: 0xBF784, size: 0x8, addend: 0x0, symName: __ZN4core4iter6traits8iterator8Iterator3map17hf077ae3bf5a401ebE, symObjAddr: 0x228, symBinAddr: 0x3AB20, symSize: 0x28 }
  - { offset: 0xBF7F1, size: 0x8, addend: 0x0, symName: __ZN4core4iter6traits8iterator8Iterator4fold17h22c5e57c2e112009E, symObjAddr: 0x250, symBinAddr: 0x3AB48, symSize: 0xD8 }
  - { offset: 0xBF881, size: 0x8, addend: 0x0, symName: __ZN4core4iter6traits8iterator8Iterator4fold17h4cb931c6bab874bdE, symObjAddr: 0x328, symBinAddr: 0x3AC20, symSize: 0xD8 }
  - { offset: 0xBF911, size: 0x8, addend: 0x0, symName: __ZN4core4iter6traits8iterator8Iterator4fold17h79346c8c2f3353f6E, symObjAddr: 0x400, symBinAddr: 0x3ACF8, symSize: 0xD8 }
  - { offset: 0xBF9A5, size: 0x8, addend: 0x0, symName: __ZN4core4iter6traits8iterator8Iterator4fold17hcf2749796fa872b6E, symObjAddr: 0x4D8, symBinAddr: 0x3ADD0, symSize: 0xD8 }
  - { offset: 0xBFA39, size: 0x8, addend: 0x0, symName: __ZN4core4iter6traits8iterator8Iterator7collect17he65e24c056346e41E, symObjAddr: 0x5B0, symBinAddr: 0x3AEA8, symSize: 0x24 }
  - { offset: 0xBFADB, size: 0x8, addend: 0x0, symName: __ZN4core4iter6traits8iterator8Iterator8for_each17hbb7b8fc20c33761eE, symObjAddr: 0x5D4, symBinAddr: 0x3AECC, symSize: 0x3C }
  - { offset: 0xBFB46, size: 0x8, addend: 0x0, symName: __ZN4core4iter6traits8iterator8Iterator8try_fold17h497a2b87c670fab5E, symObjAddr: 0x610, symBinAddr: 0x3AF08, symSize: 0x134 }
  - { offset: 0xBFC01, size: 0x8, addend: 0x0, symName: __ZN4core4iter6traits8iterator8Iterator9enumerate17h8ec9ec0dd08b128dE, symObjAddr: 0x744, symBinAddr: 0x3B03C, symSize: 0x20 }
  - { offset: 0xC081F, size: 0x8, addend: 0x0, symName: __ZN7ndarray5slice12SliceNextDim11next_in_dim17h410ae8a15f7ab4e6E, symObjAddr: 0x764, symBinAddr: 0x3B05C, symSize: 0x10 }
  - { offset: 0xC0866, size: 0x8, addend: 0x0, symName: __ZN7ndarray5slice12SliceNextDim12next_out_dim17h6688ba59c595f68bE, symObjAddr: 0x774, symBinAddr: 0x3B06C, symSize: 0x10 }
  - { offset: 0xC0C01, size: 0x8, addend: 0x0, symName: __ZN4core5slice4sort6shared5pivot11median3_rec17h1585d641733467beE, symObjAddr: 0x0, symBinAddr: 0x3B07C, symSize: 0x1B8 }
  - { offset: 0xC0E74, size: 0x8, addend: 0x0, symName: __ZN4core5slice4sort6shared5pivot11median3_rec17h1585d641733467beE, symObjAddr: 0x0, symBinAddr: 0x3B07C, symSize: 0x1B8 }
  - { offset: 0xC10F1, size: 0x8, addend: 0x0, symName: __ZN4core5slice4sort6shared5pivot11median3_rec17h64ab974a18b776c3E, symObjAddr: 0x1B8, symBinAddr: 0x3B234, symSize: 0x1B8 }
  - { offset: 0xC12F5, size: 0x8, addend: 0x0, symName: __ZN4core5slice4sort6shared5pivot12choose_pivot17h0b8cfbb194e7c205E, symObjAddr: 0x370, symBinAddr: 0x3B3EC, symSize: 0x238 }
  - { offset: 0xC1589, size: 0x8, addend: 0x0, symName: __ZN4core5slice4sort6shared5pivot12choose_pivot17h12703689aac19fbdE, symObjAddr: 0x5A8, symBinAddr: 0x3B624, symSize: 0x238 }
  - { offset: 0xC1B59, size: 0x8, addend: 0x0, symName: '__ZN4core5slice4sort6stable5merge19MergeState$LT$T$GT$10merge_down17h20092d4057c2529aE', symObjAddr: 0x0, symBinAddr: 0x3B85C, symSize: 0x1BC }
  - { offset: 0xC2103, size: 0x8, addend: 0x0, symName: __ZN4core5slice4sort6stable5merge5merge17h65f423210e7e3326E, symObjAddr: 0x650, symBinAddr: 0x3BEAC, symSize: 0x230 }
  - { offset: 0xC237F, size: 0x8, addend: 0x0, symName: __ZN4core5slice4sort6stable5merge5merge17h750445b22e9c1b7fE, symObjAddr: 0x880, symBinAddr: 0x3C0DC, symSize: 0x230 }
  - { offset: 0xC296A, size: 0x8, addend: 0x0, symName: '__ZN4core5slice4sort6stable5merge19MergeState$LT$T$GT$10merge_down17h20092d4057c2529aE', symObjAddr: 0x0, symBinAddr: 0x3B85C, symSize: 0x1BC }
  - { offset: 0xC2B6C, size: 0x8, addend: 0x0, symName: '__ZN4core5slice4sort6stable5merge19MergeState$LT$T$GT$10merge_down17hcaa05a21620a3389E', symObjAddr: 0x1BC, symBinAddr: 0x3BA18, symSize: 0x1BC }
  - { offset: 0xC2D02, size: 0x8, addend: 0x0, symName: '__ZN4core5slice4sort6stable5merge19MergeState$LT$T$GT$8merge_up17h81f1660bb8482836E', symObjAddr: 0x378, symBinAddr: 0x3BBD4, symSize: 0x16C }
  - { offset: 0xC2E44, size: 0x8, addend: 0x0, symName: '__ZN4core5slice4sort6stable5merge19MergeState$LT$T$GT$8merge_up17h9a1ddc12de107900E', symObjAddr: 0x4E4, symBinAddr: 0x3BD40, symSize: 0x16C }
  - { offset: 0xC307B, size: 0x8, addend: 0x0, symName: __ZN11_cringepack5etree10etree_post17hea605bde0c7f0aafE, symObjAddr: 0x0, symBinAddr: 0x3C30C, symSize: 0x70 }
  - { offset: 0xC311F, size: 0x8, addend: 0x0, symName: __ZN11_cringepack5etree10etree_post17hea605bde0c7f0aafE, symObjAddr: 0x0, symBinAddr: 0x3C30C, symSize: 0x70 }
  - { offset: 0xC314B, size: 0x8, addend: 0x0, symName: __ZN11_cringepack5etree13col_non_zeros17h915f98f95fc0e34dE, symObjAddr: 0x70, symBinAddr: 0x3C37C, symSize: 0x9CC }
  - { offset: 0xC338C, size: 0x8, addend: 0x0, symName: __ZN11_cringepack5etree16elimination_tree17h7faed25b7657c1d1E, symObjAddr: 0xA3C, symBinAddr: 0x3CD48, symSize: 0x3C4 }
  - { offset: 0xC34DB, size: 0x8, addend: 0x0, symName: __ZN11_cringepack5etree23tree_depth_first_search17h13d9f9140ac166baE, symObjAddr: 0xE00, symBinAddr: 0x3D10C, symSize: 0x1DC }
  - { offset: 0xC35A3, size: 0x8, addend: 0x0, symName: __ZN11_cringepack5etree4leaf17h1519afc2e30bd0b8E, symObjAddr: 0xFDC, symBinAddr: 0x3D2E8, symSize: 0x2A0 }
  - { offset: 0xC369F, size: 0x8, addend: 0x0, symName: __ZN11_cringepack5etree9postorder17h18a01f3474209f8eE, symObjAddr: 0x127C, symBinAddr: 0x3D588, symSize: 0x58C }
  - { offset: 0xC3D5E, size: 0x8, addend: 0x0, symName: '__ZN57_$LT$usize$u20$as$u20$core..slice..cmp..SliceContains$GT$14slice_contains17h125a2a3635d39fbeE', symObjAddr: 0x0, symBinAddr: 0x3DB14, symSize: 0x1E0 }
  - { offset: 0xC3EFC, size: 0x8, addend: 0x0, symName: '__ZN57_$LT$usize$u20$as$u20$core..slice..cmp..SliceContains$GT$14slice_contains17h125a2a3635d39fbeE', symObjAddr: 0x0, symBinAddr: 0x3DB14, symSize: 0x1E0 }
  - { offset: 0xC46B2, size: 0x8, addend: 0x0, symName: __ZN4core4hint16assert_unchecked18precondition_check17h7e3b519a7f56a23bE, symObjAddr: 0x0, symBinAddr: 0x3DCF4, symSize: 0x58 }
  - { offset: 0xC46CE, size: 0x8, addend: 0x0, symName: __ZN4core4hint16assert_unchecked18precondition_check17h7e3b519a7f56a23bE, symObjAddr: 0x0, symBinAddr: 0x3DCF4, symSize: 0x58 }
  - { offset: 0xC4719, size: 0x8, addend: 0x0, symName: __ZN4core4hint21unreachable_unchecked18precondition_check17h08d747fa464f8638E, symObjAddr: 0x58, symBinAddr: 0x3DD4C, symSize: 0x3C }
  - { offset: 0xC47AD, size: 0x8, addend: 0x0, symName: __ZN3log13RecordBuilder11file_static17h08641fb007ea82a5E, symObjAddr: 0x0, symBinAddr: 0x3DD88, symSize: 0x54 }
  - { offset: 0xC49B2, size: 0x8, addend: 0x0, symName: __ZN3log14MaybeStaticStr6Static17h67d770456fc077c7E, symObjAddr: 0x220, symBinAddr: 0x3DFA8, symSize: 0x24 }
  - { offset: 0xC4A1E, size: 0x8, addend: 0x0, symName: '__ZN49_$LT$log..Level$u20$as$u20$core..clone..Clone$GT$5clone17h4d516494956b361cE', symObjAddr: 0x2C4, symBinAddr: 0x3E04C, symSize: 0x18 }
  - { offset: 0xC4A52, size: 0x8, addend: 0x0, symName: '__ZN50_$LT$log..Record$u20$as$u20$core..clone..Clone$GT$5clone17h7ba9fc3fbef1ca8cE', symObjAddr: 0x2DC, symBinAddr: 0x3E064, symSize: 0xBC }
  - { offset: 0xC4A86, size: 0x8, addend: 0x0, symName: '__ZN52_$LT$log..Metadata$u20$as$u20$core..clone..Clone$GT$5clone17h392d75f11016928bE', symObjAddr: 0x398, symBinAddr: 0x3E120, symSize: 0x48 }
  - { offset: 0xC4ABA, size: 0x8, addend: 0x0, symName: '__ZN58_$LT$log..MaybeStaticStr$u20$as$u20$core..clone..Clone$GT$5clone17hf8710a24b070fe68E', symObjAddr: 0x3E0, symBinAddr: 0x3E168, symSize: 0x28 }
  - { offset: 0xC4F34, size: 0x8, addend: 0x0, symName: __ZN3log13RecordBuilder11file_static17h08641fb007ea82a5E, symObjAddr: 0x0, symBinAddr: 0x3DD88, symSize: 0x54 }
  - { offset: 0xC4F66, size: 0x8, addend: 0x0, symName: __ZN3log13RecordBuilder18module_path_static17h392e80b3a2f26078E, symObjAddr: 0x54, symBinAddr: 0x3DDDC, symSize: 0x54 }
  - { offset: 0xC4F98, size: 0x8, addend: 0x0, symName: __ZN3log13RecordBuilder3new17h174304ce788454e6E, symObjAddr: 0xA8, symBinAddr: 0x3DE30, symSize: 0xC0 }
  - { offset: 0xC4FAB, size: 0x8, addend: 0x0, symName: __ZN3log13RecordBuilder4args17h66ea858215dbaae9E, symObjAddr: 0x168, symBinAddr: 0x3DEF0, symSize: 0x2C }
  - { offset: 0xC4FDD, size: 0x8, addend: 0x0, symName: __ZN3log13RecordBuilder4line17hdc11c40dc32d58b0E, symObjAddr: 0x194, symBinAddr: 0x3DF1C, symSize: 0x24 }
  - { offset: 0xC501C, size: 0x8, addend: 0x0, symName: __ZN3log13RecordBuilder5build17h63923919ca902798E, symObjAddr: 0x1B8, symBinAddr: 0x3DF40, symSize: 0x24 }
  - { offset: 0xC503F, size: 0x8, addend: 0x0, symName: __ZN3log13RecordBuilder5level17hafbf0b951f27d47aE, symObjAddr: 0x1DC, symBinAddr: 0x3DF64, symSize: 0x1C }
  - { offset: 0xC5071, size: 0x8, addend: 0x0, symName: __ZN3log13RecordBuilder6target17hd2f938914ce8900eE, symObjAddr: 0x1F8, symBinAddr: 0x3DF80, symSize: 0x28 }
  - { offset: 0xC50A3, size: 0x8, addend: 0x0, symName: __ZN3log15MetadataBuilder3new17h07d8e36405422effE, symObjAddr: 0x244, symBinAddr: 0x3DFCC, symSize: 0x34 }
  - { offset: 0xC50C3, size: 0x8, addend: 0x0, symName: __ZN3log15MetadataBuilder5build17h5f59e4d2ab51f8f5E, symObjAddr: 0x278, symBinAddr: 0x3E000, symSize: 0x24 }
  - { offset: 0xC50E6, size: 0x8, addend: 0x0, symName: __ZN3log6Record7builder17h59d47f3280abe28fE, symObjAddr: 0x29C, symBinAddr: 0x3E024, symSize: 0x14 }
  - { offset: 0xC50F9, size: 0x8, addend: 0x0, symName: __ZN3log8Metadata7builder17h5fb6375c62759f72E, symObjAddr: 0x2B0, symBinAddr: 0x3E038, symSize: 0x14 }
  - { offset: 0xC515E, size: 0x8, addend: 0x0, symName: __ZN4core5slice4sort6stable9quicksort16stable_partition17h39de3ef44b619766E, symObjAddr: 0x0, symBinAddr: 0x3E190, symSize: 0x4F4 }
  - { offset: 0xC6078, size: 0x8, addend: 0x0, symName: __ZN4core5slice4sort6stable9quicksort16stable_partition17h39de3ef44b619766E, symObjAddr: 0x0, symBinAddr: 0x3E190, symSize: 0x4F4 }
  - { offset: 0xC657E, size: 0x8, addend: 0x0, symName: __ZN4core5slice4sort6stable9quicksort16stable_partition17h5e51590bd1f113f4E, symObjAddr: 0x4F4, symBinAddr: 0x3E684, symSize: 0x4F4 }
  - { offset: 0xC69F7, size: 0x8, addend: 0x0, symName: __ZN4core5slice4sort6stable9quicksort16stable_partition17h8d4da08f6a0f2557E, symObjAddr: 0x9E8, symBinAddr: 0x3EB78, symSize: 0x4F4 }
  - { offset: 0xC6E70, size: 0x8, addend: 0x0, symName: __ZN4core5slice4sort6stable9quicksort16stable_partition17hb4a7a3bc49b4d3f7E, symObjAddr: 0xEDC, symBinAddr: 0x3F06C, symSize: 0x4F4 }
  - { offset: 0xC72E9, size: 0x8, addend: 0x0, symName: __ZN4core5slice4sort6stable9quicksort9quicksort17h551b625b8371dfc5E, symObjAddr: 0x1640, symBinAddr: 0x3F7D0, symSize: 0x340 }
  - { offset: 0xC759A, size: 0x8, addend: 0x0, symName: __ZN4core5slice4sort6stable9quicksort9quicksort17h60de6231ab29a652E, symObjAddr: 0x1980, symBinAddr: 0x3FB10, symSize: 0x340 }
  - { offset: 0xC7836, size: 0x8, addend: 0x0, symName: '__ZN4core5slice4sort6stable9quicksort9quicksort28_$u7b$$u7b$closure$u7d$$u7d$17hb0820062de8de4fcE', symObjAddr: 0x1CC0, symBinAddr: 0x3FE50, symSize: 0x48 }
  - { offset: 0xC7893, size: 0x8, addend: 0x0, symName: '__ZN4core5slice4sort6stable9quicksort9quicksort28_$u7b$$u7b$closure$u7d$$u7d$17he866c7dc2676a3e6E', symObjAddr: 0x1D08, symBinAddr: 0x3FE98, symSize: 0x48 }
  - { offset: 0xC791C, size: 0x8, addend: 0x0, symName: '__ZN68_$LT$T$u20$as$u20$core..slice..sort..stable..quicksort..IsFreeze$GT$9is_freeze17h453019ff69206c3cE', symObjAddr: 0x1D50, symBinAddr: 0x3FEE0, symSize: 0xC }
  - { offset: 0xC7943, size: 0x8, addend: 0x0, symName: '__ZN68_$LT$T$u20$as$u20$core..slice..sort..stable..quicksort..IsFreeze$GT$9is_freeze17h4daee9cd5d072675E', symObjAddr: 0x1D5C, symBinAddr: 0x3FEEC, symSize: 0xC }
  - { offset: 0xC7FF8, size: 0x8, addend: 0x0, symName: '__ZN4core5slice4sort6stable9quicksort23PartitionState$LT$T$GT$13partition_one17ha18e33c9fad1ebd6E', symObjAddr: 0x13D0, symBinAddr: 0x3F560, symSize: 0x138 }
  - { offset: 0xC80F0, size: 0x8, addend: 0x0, symName: '__ZN4core5slice4sort6stable9quicksort23PartitionState$LT$T$GT$13partition_one17hd1e813a2652e7093E', symObjAddr: 0x1508, symBinAddr: 0x3F698, symSize: 0x138 }
  - { offset: 0xC8424, size: 0x8, addend: 0x0, symName: __ZN4core3fmt2rt8Argument9new_debug17h02650c1b8335b058E, symObjAddr: 0x0, symBinAddr: 0x3FEF8, symSize: 0x2C }
  - { offset: 0xC8803, size: 0x8, addend: 0x0, symName: __ZN4core3fmt2rt8Argument9new_debug17h02650c1b8335b058E, symObjAddr: 0x0, symBinAddr: 0x3FEF8, symSize: 0x2C }
  - { offset: 0xC8848, size: 0x8, addend: 0x0, symName: __ZN4core3fmt2rt8Argument9new_debug17h267927502c4bf5d1E, symObjAddr: 0x2C, symBinAddr: 0x3FF24, symSize: 0x2C }
  - { offset: 0xC88BD, size: 0x8, addend: 0x0, symName: __ZN4core3fmt2rt8Argument9new_debug17h4ce89b363b441163E, symObjAddr: 0x58, symBinAddr: 0x3FF50, symSize: 0x2C }
  - { offset: 0xC88E8, size: 0x8, addend: 0x0, symName: __ZN4core3fmt2rt8Argument9new_debug17h6c0a66b4eb909ad7E, symObjAddr: 0x84, symBinAddr: 0x3FF7C, symSize: 0x2C }
  - { offset: 0xC89E9, size: 0x8, addend: 0x0, symName: __ZN4core3fmt2rt8Argument9new_debug17hea24fac84bd33023E, symObjAddr: 0xB0, symBinAddr: 0x3FFA8, symSize: 0x2C }
  - { offset: 0xC8A32, size: 0x8, addend: 0x0, symName: __ZN11_cringepack8symbolic10CCSymbolic3new17hf1eb5bc52acc8d78E, symObjAddr: 0x0, symBinAddr: 0x3FFD4, symSize: 0x678 }
  - { offset: 0xC913A, size: 0x8, addend: 0x0, symName: __ZN11_cringepack8symbolic10CCSymbolic3new17hf1eb5bc52acc8d78E, symObjAddr: 0x0, symBinAddr: 0x3FFD4, symSize: 0x678 }
  - { offset: 0xC942C, size: 0x8, addend: 0x0, symName: '__ZN119_$LT$pyo3..instance..Bound$LT$pyo3..types..typeobject..PyType$GT$$u20$as$u20$pyo3..types..typeobject..PyTypeMethods$GT$11as_type_ptr17h802ccbce050d752eE', symObjAddr: 0x0, symBinAddr: 0x4064C, symSize: 0x24 }
  - { offset: 0xCAA26, size: 0x8, addend: 0x0, symName: '__ZN119_$LT$pyo3..instance..Bound$LT$pyo3..types..typeobject..PyType$GT$$u20$as$u20$pyo3..types..typeobject..PyTypeMethods$GT$11as_type_ptr17h802ccbce050d752eE', symObjAddr: 0x0, symBinAddr: 0x4064C, symSize: 0x24 }
  - { offset: 0xCABF4, size: 0x8, addend: 0x0, symName: '__ZN69_$LT$pyo3..instance..Py$LT$T$GT$$u20$as$u20$core..ops..drop..Drop$GT$4drop5inner17h91e6fb78346cc209E', symObjAddr: 0x180, symBinAddr: 0x407CC, symSize: 0x1D4 }
  - { offset: 0xCAEA9, size: 0x8, addend: 0x0, symName: '__ZN129_$LT$pyo3..instance..Bound$LT$numpy..untyped_array..PyUntypedArray$GT$$u20$as$u20$numpy..untyped_array..PyUntypedArrayMethods$GT$12as_array_ptr17h08cfffba27248175E', symObjAddr: 0x24, symBinAddr: 0x40670, symSize: 0x2C }
  - { offset: 0xCB491, size: 0x8, addend: 0x0, symName: '__ZN4pyo38instance36Bound$LT$pyo3..types..any..PyAny$GT$14from_owned_ptr17hd13df7e5a25680f1E', symObjAddr: 0x50, symBinAddr: 0x4069C, symSize: 0x48 }
  - { offset: 0xCB4FA, size: 0x8, addend: 0x0, symName: '__ZN4pyo38instance39Borrowed$LT$pyo3..types..any..PyAny$GT$13from_non_null17hca3a67938048539fE', symObjAddr: 0x98, symBinAddr: 0x406E4, symSize: 0x14 }
  - { offset: 0xCB72C, size: 0x8, addend: 0x0, symName: '__ZN4pyo38instance39Borrowed$LT$pyo3..types..any..PyAny$GT$15from_ptr_or_err17h646ddc055e43d954E', symObjAddr: 0xAC, symBinAddr: 0x406F8, symSize: 0x38 }
  - { offset: 0xCB76A, size: 0x8, addend: 0x0, symName: '__ZN4pyo38instance39Borrowed$LT$pyo3..types..any..PyAny$GT$15from_ptr_or_opt17h9bf3578281ef7e44E', symObjAddr: 0xE4, symBinAddr: 0x40730, symSize: 0x2C }
  - { offset: 0xCB7A8, size: 0x8, addend: 0x0, symName: '__ZN4pyo38instance39Borrowed$LT$pyo3..types..any..PyAny$GT$18from_ptr_unchecked17h61c95ff9be585001E', symObjAddr: 0x110, symBinAddr: 0x4075C, symSize: 0x30 }
  - { offset: 0xCB7E6, size: 0x8, addend: 0x0, symName: '__ZN4pyo38instance39Borrowed$LT$pyo3..types..any..PyAny$GT$8from_ptr17h671935fadb3f6aa5E', symObjAddr: 0x140, symBinAddr: 0x4078C, symSize: 0x40 }
  - { offset: 0xCB89B, size: 0x8, addend: 0x0, symName: __ZN5alloc3fmt6format17h2fe11671a8948ae9E, symObjAddr: 0x0, symBinAddr: 0x409A0, symSize: 0xD8 }
  - { offset: 0xCBDB3, size: 0x8, addend: 0x0, symName: __ZN5alloc3fmt6format17h2fe11671a8948ae9E, symObjAddr: 0x0, symBinAddr: 0x409A0, symSize: 0xD8 }
  - { offset: 0xCBF53, size: 0x8, addend: 0x0, symName: '__ZN119_$LT$pyo3..pyclass_init..PyClassInitializer$LT$T$GT$$u20$as$u20$pyo3..impl_..pyclass_init..PyClassInit$LT$_$C$_$GT$$GT$4init17hd35f54b74fae078dE', symObjAddr: 0x0, symBinAddr: 0x40A78, symSize: 0xEC }
  - { offset: 0xCDD46, size: 0x8, addend: 0x0, symName: '__ZN119_$LT$pyo3..pyclass_init..PyClassInitializer$LT$T$GT$$u20$as$u20$pyo3..impl_..pyclass_init..PyClassInit$LT$_$C$_$GT$$GT$4init17hd35f54b74fae078dE', symObjAddr: 0x0, symBinAddr: 0x40A78, symSize: 0xEC }
  - { offset: 0xCDEED, size: 0x8, addend: 0x0, symName: '__ZN96_$LT$pyo3..pyclass_init..PyClassInitializer$LT$T$GT$$u20$as$u20$core..convert..From$LT$T$GT$$GT$4from17hd42ab2227e7af3f7E', symObjAddr: 0x32C, symBinAddr: 0x40DA4, symSize: 0x50 }
  - { offset: 0xCE7F5, size: 0x8, addend: 0x0, symName: '__ZN4pyo312pyclass_init27PyClassInitializer$LT$T$GT$27create_class_object_of_type17h8e1a5890c58b8269E', symObjAddr: 0xEC, symBinAddr: 0x40B64, symSize: 0x210 }
  - { offset: 0xCE951, size: 0x8, addend: 0x0, symName: '__ZN4pyo312pyclass_init27PyClassInitializer$LT$T$GT$3new17hd7664ecb3b490e59E', symObjAddr: 0x2FC, symBinAddr: 0x40D74, symSize: 0x30 }
  - { offset: 0xCE9C3, size: 0x8, addend: 0x0, symName: __ZN7ndarray9extension7nonnull21nonnull_from_vec_data17h1206c5962f3c20f9E, symObjAddr: 0x0, symBinAddr: 0x40DF4, symSize: 0x30 }
  - { offset: 0xCE9DF, size: 0x8, addend: 0x0, symName: __ZN7ndarray9extension7nonnull21nonnull_from_vec_data17h1206c5962f3c20f9E, symObjAddr: 0x0, symBinAddr: 0x40DF4, symSize: 0x30 }
  - { offset: 0xCEA14, size: 0x8, addend: 0x0, symName: __ZN7ndarray9extension7nonnull21nonnull_from_vec_data17h5615d406b08d98b5E, symObjAddr: 0x30, symBinAddr: 0x40E24, symSize: 0x30 }
  - { offset: 0xCEA49, size: 0x8, addend: 0x0, symName: __ZN7ndarray9extension7nonnull21nonnull_from_vec_data17h972b208dc630fc59E, symObjAddr: 0x60, symBinAddr: 0x40E54, symSize: 0x30 }
  - { offset: 0xCEA7E, size: 0x8, addend: 0x0, symName: __ZN7ndarray9extension7nonnull30nonnull_debug_checked_from_ptr17h186d883968e97a53E, symObjAddr: 0x90, symBinAddr: 0x40E84, symSize: 0x5C }
  - { offset: 0xCEAB3, size: 0x8, addend: 0x0, symName: __ZN7ndarray9extension7nonnull30nonnull_debug_checked_from_ptr17hb9a83266f9cd6633E, symObjAddr: 0xEC, symBinAddr: 0x40EE0, symSize: 0x5C }
  - { offset: 0xCEE7B, size: 0x8, addend: 0x0, symName: '__ZN102_$LT$env_logger..writer..WriteStyle$u20$as$u20$core..convert..From$LT$colorchoice..ColorChoice$GT$$GT$4from17hcbaf963eba8ec6f0E', symObjAddr: 0x0, symBinAddr: 0x40F58, symSize: 0x78 }
  - { offset: 0xCF062, size: 0x8, addend: 0x0, symName: '__ZN103_$LT$env_logger..fmt..ConfigurableFormatWriter..write_args..IndentWrapper$u20$as$u20$std..io..Write$GT$5write17hb89a13ec813911ddE', symObjAddr: 0xA4, symBinAddr: 0x40FD0, symSize: 0x21C }
  - { offset: 0xCF164, size: 0x8, addend: 0x0, symName: '__ZN103_$LT$env_logger..fmt..ConfigurableFormatWriter..write_args..IndentWrapper$u20$as$u20$std..io..Write$GT$5write28_$u7b$$u7b$closure$u7d$$u7d$17he3c8149b0d769e11E', symObjAddr: 0x2C0, symBinAddr: 0x411EC, symSize: 0x28 }
  - { offset: 0xCF1C6, size: 0x8, addend: 0x0, symName: '__ZN10env_logger3fmt24ConfigurableFormatWriter21write_source_location28_$u7b$$u7b$closure$u7d$$u7d$17h90d7b8b313151ad1E', symObjAddr: 0xF90, symBinAddr: 0x41DC8, symSize: 0x24 }
  - { offset: 0xCF50B, size: 0x8, addend: 0x0, symName: '__ZN61_$LT$env_logger..fmt..Formatter$u20$as$u20$std..io..Write$GT$5write17hc6f0abd4a32dbb10E', symObjAddr: 0x5774, symBinAddr: 0x45E84, symSize: 0xBC }
  - { offset: 0xCF59B, size: 0x8, addend: 0x0, symName: '__ZN67_$LT$env_logger..fmt..Builder$u20$as$u20$core..default..Default$GT$7default17h04418fbbbcb82cc3E', symObjAddr: 0x5E70, symBinAddr: 0x4620C, symSize: 0x60 }
  - { offset: 0xCF5D3, size: 0x8, addend: 0x0, symName: '__ZN76_$LT$env_logger..fmt..StyledValue$LT$T$GT$$u20$as$u20$core..fmt..Display$GT$3fmt17h3bfb110d2dbfb768E', symObjAddr: 0x6AC0, symBinAddr: 0x46DB8, symSize: 0x144 }
  - { offset: 0xCF70B, size: 0x8, addend: 0x0, symName: '__ZN76_$LT$env_logger..fmt..StyledValue$LT$T$GT$$u20$as$u20$core..fmt..Display$GT$3fmt17ha22eeb145566cae7E', symObjAddr: 0x6C04, symBinAddr: 0x46EFC, symSize: 0x144 }
  - { offset: 0xCF849, size: 0x8, addend: 0x0, symName: '__ZN78_$LT$env_logger..fmt..ConfigurableFormat$u20$as$u20$core..default..Default$GT$7default17h2a30626749acc516E', symObjAddr: 0x6D48, symBinAddr: 0x47040, symSize: 0x60 }
  - { offset: 0xCF86D, size: 0x8, addend: 0x0, symName: '__ZN78_$LT$env_logger..fmt..TimestampPrecision$u20$as$u20$core..default..Default$GT$7default17hcb342fefa379609fE', symObjAddr: 0x6DA8, symBinAddr: 0x470A0, symSize: 0x8 }
  - { offset: 0xCF890, size: 0x8, addend: 0x0, symName: '__ZN85_$LT$env_logger..fmt..ConfigurableFormat$u20$as$u20$env_logger..fmt..RecordFormat$GT$6format17hcde63730e6513ac6E', symObjAddr: 0x7210, symBinAddr: 0x47508, symSize: 0x34 }
  - { offset: 0xCF9A2, size: 0x8, addend: 0x0, symName: '__ZN55_$LT$env_logger..logger..Logger$u20$as$u20$log..Log$GT$3log9FORMATTER29_$u7b$$u7b$constant$u7d$$u7d$28_$u7b$$u7b$closure$u7d$$u7d$23__RUST_STD_INTERNAL_VAL17h1abccc2acb83dc8eE', symObjAddr: 0x9798, symBinAddr: 0x3D5048, symSize: 0x0 }
  - { offset: 0xCF9B1, size: 0x8, addend: 0x0, symName: '__ZN55_$LT$env_logger..logger..Logger$u20$as$u20$log..Log$GT$3log9FORMATTER29_$u7b$$u7b$constant$u7d$$u7d$28_$u7b$$u7b$closure$u7d$$u7d$17hcaf9206970133666E', symObjAddr: 0x555C, symBinAddr: 0x45D08, symSize: 0x34 }
  - { offset: 0xCF9EC, size: 0x8, addend: 0x0, symName: '__ZN55_$LT$env_logger..logger..Logger$u20$as$u20$log..Log$GT$3log28_$u7b$$u7b$closure$u7d$$u7d$17hef471ba50c52ad67E', symObjAddr: 0x519C, symBinAddr: 0x45948, symSize: 0x320 }
  - { offset: 0xCFA8D, size: 0x8, addend: 0x0, symName: '__ZN55_$LT$env_logger..logger..Logger$u20$as$u20$log..Log$GT$3log28_$u7b$$u7b$closure$u7d$$u7d$17hfd09edde4fc9c4e3E', symObjAddr: 0x54BC, symBinAddr: 0x45C68, symSize: 0x74 }
  - { offset: 0xCFADD, size: 0x8, addend: 0x0, symName: '__ZN55_$LT$env_logger..logger..Logger$u20$as$u20$log..Log$GT$3log28_$u7b$$u7b$closure$u7d$$u7d$28_$u7b$$u7b$closure$u7d$$u7d$17h4ee0b9ff5c6ff020E', symObjAddr: 0x5530, symBinAddr: 0x45CDC, symSize: 0x2C }
  - { offset: 0xCFB40, size: 0x8, addend: 0x0, symName: '__ZN55_$LT$env_logger..logger..Logger$u20$as$u20$log..Log$GT$3log17h5da7ec3dca028d3bE', symObjAddr: 0x50B8, symBinAddr: 0x45864, symSize: 0xE4 }
  - { offset: 0xCFBB5, size: 0x8, addend: 0x0, symName: '__ZN55_$LT$env_logger..logger..Logger$u20$as$u20$log..Log$GT$5flush17h2edc4f28aefd8874E', symObjAddr: 0x5590, symBinAddr: 0x45D3C, symSize: 0x10 }
  - { offset: 0xCFBDF, size: 0x8, addend: 0x0, symName: '__ZN55_$LT$env_logger..logger..Logger$u20$as$u20$log..Log$GT$7enabled17hf580d8381fdec33bE', symObjAddr: 0x55A0, symBinAddr: 0x45D4C, symSize: 0x2C }
  - { offset: 0xCFC1D, size: 0x8, addend: 0x0, symName: __ZN10env_logger6logger17try_init_from_env17h7b316cb883935bd0E, symObjAddr: 0x17BC, symBinAddr: 0x425C0, symSize: 0x8C }
  - { offset: 0xCFD30, size: 0x8, addend: 0x0, symName: '__ZN10env_logger6logger3Var3get28_$u7b$$u7b$closure$u7d$$u7d$17h2f7b0ff7bcc6366cE', symObjAddr: 0x18FC, symBinAddr: 0x426EC, symSize: 0x3C }
  - { offset: 0xCFD65, size: 0x8, addend: 0x0, symName: '__ZN10env_logger6logger3Var3get28_$u7b$$u7b$closure$u7d$$u7d$28_$u7b$$u7b$closure$u7d$$u7d$17h26fae3da3b7573a0E', symObjAddr: 0x1938, symBinAddr: 0x42728, symSize: 0x34 }
  - { offset: 0xD00D6, size: 0x8, addend: 0x0, symName: __ZN10env_logger6logger8try_init17hf4889e0f7f9b3798E, symObjAddr: 0x2534, symBinAddr: 0x42DA0, symSize: 0x2C }
  - { offset: 0xD00F9, size: 0x8, addend: 0x0, symName: '__ZN66_$LT$env_logger..logger..Env$u20$as$u20$core..default..Default$GT$7default17hc34dde36ed1f22beE', symObjAddr: 0x5DCC, symBinAddr: 0x46168, symSize: 0xA4 }
  - { offset: 0xD011D, size: 0x8, addend: 0x0, symName: '__ZN70_$LT$env_logger..logger..Builder$u20$as$u20$core..default..Default$GT$7default17h369f8cf808ce368eE', symObjAddr: 0x62FC, symBinAddr: 0x465F4, symSize: 0xC8 }
  - { offset: 0xD03CF, size: 0x8, addend: 0x0, symName: '__ZN102_$LT$env_logger..writer..WriteStyle$u20$as$u20$core..convert..From$LT$colorchoice..ColorChoice$GT$$GT$4from17hcbaf963eba8ec6f0E', symObjAddr: 0x0, symBinAddr: 0x40F58, symSize: 0x78 }
  - { offset: 0xD0401, size: 0x8, addend: 0x0, symName: '__ZN10env_logger6writer112_$LT$impl$u20$core..convert..From$LT$env_logger..writer..WriteStyle$GT$$u20$for$u20$colorchoice..ColorChoice$GT$4from17h41653f2a0f301c24E', symObjAddr: 0x2560, symBinAddr: 0x42DCC, symSize: 0x5C }
  - { offset: 0xD042E, size: 0x8, addend: 0x0, symName: __ZN10env_logger6writer17parse_write_style17hf3769420d0f0bff2E, symObjAddr: 0x25BC, symBinAddr: 0x42E28, symSize: 0xC0 }
  - { offset: 0xD045F, size: 0x8, addend: 0x0, symName: '__ZN70_$LT$env_logger..writer..Builder$u20$as$u20$core..default..Default$GT$7default17h548e6992369fc970E', symObjAddr: 0x63C4, symBinAddr: 0x466BC, symSize: 0x14 }
  - { offset: 0xD0482, size: 0x8, addend: 0x0, symName: '__ZN71_$LT$env_logger..writer..WriteStyle$u20$as$u20$core..cmp..PartialEq$GT$2eq17hbe593f0b9865e127E', symObjAddr: 0x6450, symBinAddr: 0x46748, symSize: 0x34 }
  - { offset: 0xD04FC, size: 0x8, addend: 0x0, symName: '__ZN73_$LT$env_logger..writer..WriteStyle$u20$as$u20$core..default..Default$GT$7default17h93567799af0d7b5fE', symObjAddr: 0x6728, symBinAddr: 0x46A20, symSize: 0x8 }
  - { offset: 0xD2A2A, size: 0x8, addend: 0x0, symName: '__ZN4core3num21_$LT$impl$u20$i64$GT$11checked_neg17hb2d49946646e6dabE', symObjAddr: 0x4A1C, symBinAddr: 0x451C8, symSize: 0x90 }
  - { offset: 0xD2AE7, size: 0x8, addend: 0x0, symName: '__ZN4core3num23_$LT$impl$u20$usize$GT$13unchecked_add18precondition_check17h6d149a97475b7492E', symObjAddr: 0x4AAC, symBinAddr: 0x45258, symSize: 0x64 }
  - { offset: 0xD31C1, size: 0x8, addend: 0x0, symName: '__ZN44_$LT$$RF$T$u20$as$u20$core..fmt..Display$GT$3fmt17h31d1004f091892a0E', symObjAddr: 0x4398, symBinAddr: 0x44B44, symSize: 0x30 }
  - { offset: 0xD3240, size: 0x8, addend: 0x0, symName: __ZN4core3fmt5Write10write_char17h470929033d4e4c6cE, symObjAddr: 0x43F8, symBinAddr: 0x44BA4, symSize: 0x70 }
  - { offset: 0xD32A8, size: 0x8, addend: 0x0, symName: __ZN4core3fmt5Write10write_char17h626a74949479d15eE, symObjAddr: 0x4468, symBinAddr: 0x44C14, symSize: 0x70 }
  - { offset: 0xD3310, size: 0x8, addend: 0x0, symName: __ZN4core3fmt5Write10write_char17ha8ecca3160a27c8fE, symObjAddr: 0x44D8, symBinAddr: 0x44C84, symSize: 0x70 }
  - { offset: 0xD3378, size: 0x8, addend: 0x0, symName: __ZN4core3fmt5Write10write_char17hb877a07da1ea8de4E, symObjAddr: 0x4548, symBinAddr: 0x44CF4, symSize: 0x70 }
  - { offset: 0xD33E0, size: 0x8, addend: 0x0, symName: __ZN4core3fmt5Write10write_char17hc400901ebaf38ebcE, symObjAddr: 0x45B8, symBinAddr: 0x44D64, symSize: 0x70 }
  - { offset: 0xD3448, size: 0x8, addend: 0x0, symName: __ZN4core3fmt5Write10write_char17hd00c1fab4f399297E, symObjAddr: 0x4628, symBinAddr: 0x44DD4, symSize: 0x70 }
  - { offset: 0xD34B0, size: 0x8, addend: 0x0, symName: __ZN4core3fmt5Write9write_fmt17h01a09eb5260e5d12E, symObjAddr: 0x4698, symBinAddr: 0x44E44, symSize: 0x34 }
  - { offset: 0xD34F3, size: 0x8, addend: 0x0, symName: __ZN4core3fmt5Write9write_fmt17h27a04b083814d9adE, symObjAddr: 0x46CC, symBinAddr: 0x44E78, symSize: 0x34 }
  - { offset: 0xD3536, size: 0x8, addend: 0x0, symName: __ZN4core3fmt5Write9write_fmt17h4e3e06088f0748e7E, symObjAddr: 0x4700, symBinAddr: 0x44EAC, symSize: 0x34 }
  - { offset: 0xD3579, size: 0x8, addend: 0x0, symName: __ZN4core3fmt5Write9write_fmt17h7ba6694225d67107E, symObjAddr: 0x4734, symBinAddr: 0x44EE0, symSize: 0x34 }
  - { offset: 0xD35BC, size: 0x8, addend: 0x0, symName: __ZN4core3fmt5Write9write_fmt17hf0bcf73900be0214E, symObjAddr: 0x4768, symBinAddr: 0x44F14, symSize: 0x34 }
  - { offset: 0xD35FF, size: 0x8, addend: 0x0, symName: __ZN4core3fmt5Write9write_fmt17hf7078459080cf198E, symObjAddr: 0x479C, symBinAddr: 0x44F48, symSize: 0x34 }
  - { offset: 0xD364C, size: 0x8, addend: 0x0, symName: '__ZN75_$LT$$RF$mut$u20$W$u20$as$u20$core..fmt..Write..write_fmt..SpecWriteFmt$GT$14spec_write_fmt17h0d1bb7744ad6b524E', symObjAddr: 0x6730, symBinAddr: 0x46A28, symSize: 0x98 }
  - { offset: 0xD36AC, size: 0x8, addend: 0x0, symName: '__ZN75_$LT$$RF$mut$u20$W$u20$as$u20$core..fmt..Write..write_fmt..SpecWriteFmt$GT$14spec_write_fmt17h48d1eda28b193fa5E', symObjAddr: 0x67C8, symBinAddr: 0x46AC0, symSize: 0x98 }
  - { offset: 0xD370C, size: 0x8, addend: 0x0, symName: '__ZN75_$LT$$RF$mut$u20$W$u20$as$u20$core..fmt..Write..write_fmt..SpecWriteFmt$GT$14spec_write_fmt17h6c41ac57423a0670E', symObjAddr: 0x6860, symBinAddr: 0x46B58, symSize: 0x98 }
  - { offset: 0xD376C, size: 0x8, addend: 0x0, symName: '__ZN75_$LT$$RF$mut$u20$W$u20$as$u20$core..fmt..Write..write_fmt..SpecWriteFmt$GT$14spec_write_fmt17h6d867aad72cb320bE', symObjAddr: 0x68F8, symBinAddr: 0x46BF0, symSize: 0x98 }
  - { offset: 0xD37CC, size: 0x8, addend: 0x0, symName: '__ZN75_$LT$$RF$mut$u20$W$u20$as$u20$core..fmt..Write..write_fmt..SpecWriteFmt$GT$14spec_write_fmt17h957083a4720a72f4E', symObjAddr: 0x6990, symBinAddr: 0x46C88, symSize: 0x98 }
  - { offset: 0xD382C, size: 0x8, addend: 0x0, symName: '__ZN75_$LT$$RF$mut$u20$W$u20$as$u20$core..fmt..Write..write_fmt..SpecWriteFmt$GT$14spec_write_fmt17hd2ca27e5a9ab5c35E', symObjAddr: 0x6A28, symBinAddr: 0x46D20, symSize: 0x98 }
  - { offset: 0xD3B8E, size: 0x8, addend: 0x0, symName: __ZN4core5slice3raw14from_raw_parts18precondition_check17haaa61d8cfe11a1b6E, symObjAddr: 0x4B80, symBinAddr: 0x4532C, symSize: 0x10C }
  - { offset: 0xD3CAA, size: 0x8, addend: 0x0, symName: __ZN4core5slice3raw18from_raw_parts_mut18precondition_check17hcbdbf2a98d0e8c04E, symObjAddr: 0x4C8C, symBinAddr: 0x45438, symSize: 0x10C }
  - { offset: 0xD3DCC, size: 0x8, addend: 0x0, symName: '__ZN91_$LT$core..slice..iter..Iter$LT$T$GT$$u20$as$u20$core..iter..traits..iterator..Iterator$GT$4fold17h27b4abe7bb6e932cE', symObjAddr: 0x786C, symBinAddr: 0x47B64, symSize: 0x1A4 }
  - { offset: 0xD3F55, size: 0x8, addend: 0x0, symName: '__ZN91_$LT$core..slice..iter..Iter$LT$T$GT$$u20$as$u20$core..iter..traits..iterator..Iterator$GT$8position17hb1fa6e5f101268f4E', symObjAddr: 0x7A10, symBinAddr: 0x47D08, symSize: 0x194 }
  - { offset: 0xD4162, size: 0x8, addend: 0x0, symName: '__ZN96_$LT$core..slice..iter..Split$LT$T$C$P$GT$$u20$as$u20$core..iter..traits..iterator..Iterator$GT$4next17h5934aa6e12e226bcE', symObjAddr: 0x7BA4, symBinAddr: 0x47E9C, symSize: 0x23C }
  - { offset: 0xD44D5, size: 0x8, addend: 0x0, symName: '__ZN96_$LT$core..slice..iter..Split$LT$T$C$P$GT$$u20$as$u20$core..iter..traits..iterator..Iterator$GT$4next28_$u7b$$u7b$closure$u7d$$u7d$17h0c53bdc08c98f179E', symObjAddr: 0x7DE0, symBinAddr: 0x480D8, symSize: 0x30 }
  - { offset: 0xD4706, size: 0x8, addend: 0x0, symName: __ZN4core3cmp9PartialEq2ne17hbf749548084f0370E, symObjAddr: 0x43C8, symBinAddr: 0x44B74, symSize: 0x30 }
  - { offset: 0xD489D, size: 0x8, addend: 0x0, symName: __ZN4core5alloc6layout6Layout25from_size_align_unchecked18precondition_check17hc82d55d80eb367e0E, symObjAddr: 0x4B10, symBinAddr: 0x452BC, symSize: 0x70 }
  - { offset: 0xD4B16, size: 0x8, addend: 0x0, symName: '__ZN50_$LT$T$u20$as$u20$core..convert..Into$LT$U$GT$$GT$4into17h387815e021401d56E', symObjAddr: 0x5048, symBinAddr: 0x457F4, symSize: 0x20 }
  - { offset: 0xD4B56, size: 0x8, addend: 0x0, symName: '__ZN50_$LT$T$u20$as$u20$core..convert..Into$LT$U$GT$$GT$4into17h50cd89b14f8daa11E', symObjAddr: 0x5068, symBinAddr: 0x45814, symSize: 0x30 }
  - { offset: 0xD4BB5, size: 0x8, addend: 0x0, symName: '__ZN50_$LT$T$u20$as$u20$core..convert..Into$LT$U$GT$$GT$4into17hbe70dfdcd729e4f3E', symObjAddr: 0x5098, symBinAddr: 0x45844, symSize: 0x20 }
  - { offset: 0xD4C6C, size: 0x8, addend: 0x0, symName: '__ZN63_$LT$I$u20$as$u20$core..iter..traits..collect..IntoIterator$GT$9into_iter17h27160b5ea5889d03E', symObjAddr: 0x58E0, symBinAddr: 0x45FF0, symSize: 0x18 }
  - { offset: 0xD5414, size: 0x8, addend: 0x0, symName: '__ZN81_$LT$std..io..default_write_fmt..Adapter$LT$T$GT$$u20$as$u20$core..fmt..Write$GT$9write_str17h17ef1bdfb61f435eE', symObjAddr: 0x6DD8, symBinAddr: 0x470D0, symSize: 0xB4 }
  - { offset: 0xD5470, size: 0x8, addend: 0x0, symName: '__ZN81_$LT$std..io..default_write_fmt..Adapter$LT$T$GT$$u20$as$u20$core..fmt..Write$GT$9write_str17h33ae9ecd3629fae5E', symObjAddr: 0x6E8C, symBinAddr: 0x47184, symSize: 0xB4 }
  - { offset: 0xD54CC, size: 0x8, addend: 0x0, symName: '__ZN81_$LT$std..io..default_write_fmt..Adapter$LT$T$GT$$u20$as$u20$core..fmt..Write$GT$9write_str17h42001524c6b2e0d6E', symObjAddr: 0x6F40, symBinAddr: 0x47238, symSize: 0xB4 }
  - { offset: 0xD5528, size: 0x8, addend: 0x0, symName: '__ZN81_$LT$std..io..default_write_fmt..Adapter$LT$T$GT$$u20$as$u20$core..fmt..Write$GT$9write_str17h8617397e8f03dbc9E', symObjAddr: 0x6FF4, symBinAddr: 0x472EC, symSize: 0xB4 }
  - { offset: 0xD5584, size: 0x8, addend: 0x0, symName: '__ZN81_$LT$std..io..default_write_fmt..Adapter$LT$T$GT$$u20$as$u20$core..fmt..Write$GT$9write_str17had9ef90cb2b6979cE', symObjAddr: 0x70A8, symBinAddr: 0x473A0, symSize: 0xB4 }
  - { offset: 0xD55E0, size: 0x8, addend: 0x0, symName: '__ZN81_$LT$std..io..default_write_fmt..Adapter$LT$T$GT$$u20$as$u20$core..fmt..Write$GT$9write_str17he81e578f4ee49038E', symObjAddr: 0x715C, symBinAddr: 0x47454, symSize: 0xB4 }
  - { offset: 0xD5697, size: 0x8, addend: 0x0, symName: __ZN3std2io5stdio6stderr17h87343935672f72eaE, symObjAddr: 0x4360, symBinAddr: 0x44B38, symSize: 0xC }
  - { offset: 0xD56BA, size: 0x8, addend: 0x0, symName: '__ZN61_$LT$std..io..stdio..StderrLock$u20$as$u20$std..io..Write$GT$17is_write_vectored17h7e5d33c5f3ebc398E', symObjAddr: 0x5830, symBinAddr: 0x45F40, symSize: 0x58 }
  - { offset: 0xD5754, size: 0x8, addend: 0x0, symName: '__ZN61_$LT$std..io..stdio..StdoutLock$u20$as$u20$std..io..Write$GT$17is_write_vectored17h87038efeabafa9b8E', symObjAddr: 0x5888, symBinAddr: 0x45F98, symSize: 0x58 }
  - { offset: 0xD595D, size: 0x8, addend: 0x0, symName: '__ZN3std2io5error14repr_bitpacked4Repr4data28_$u7b$$u7b$closure$u7d$$u7d$17hef2779332d3c90c3E', symObjAddr: 0x3E88, symBinAddr: 0x44660, symSize: 0x14 }
  - { offset: 0xD5995, size: 0x8, addend: 0x0, symName: __ZN3std2io5error14repr_bitpacked11decode_repr17h6d92e87fa3fb6acaE, symObjAddr: 0x37FC, symBinAddr: 0x43FD4, symSize: 0x1DC }
  - { offset: 0xD5BDA, size: 0x8, addend: 0x0, symName: __ZN3std2io5error14repr_bitpacked14kind_from_prim17hd2be924a7aca79e0E, symObjAddr: 0x39D8, symBinAddr: 0x441B0, symSize: 0x4B0 }
  - { offset: 0xD6644, size: 0x8, addend: 0x0, symName: __ZN3std2io17default_write_fmt17h04204e05b1b7a3a4E, symObjAddr: 0x2AD4, symBinAddr: 0x432AC, symSize: 0x100 }
  - { offset: 0xD66CB, size: 0x8, addend: 0x0, symName: __ZN3std2io17default_write_fmt17h66340dcce0e066c7E, symObjAddr: 0x2BD4, symBinAddr: 0x433AC, symSize: 0x100 }
  - { offset: 0xD6752, size: 0x8, addend: 0x0, symName: __ZN3std2io17default_write_fmt17h9c96d8f36b99e08aE, symObjAddr: 0x2CD4, symBinAddr: 0x434AC, symSize: 0x100 }
  - { offset: 0xD67D9, size: 0x8, addend: 0x0, symName: __ZN3std2io17default_write_fmt17ha422aa5691aa4679E, symObjAddr: 0x2DD4, symBinAddr: 0x435AC, symSize: 0x100 }
  - { offset: 0xD6860, size: 0x8, addend: 0x0, symName: __ZN3std2io17default_write_fmt17ha6c6cb666779c12eE, symObjAddr: 0x2ED4, symBinAddr: 0x436AC, symSize: 0x100 }
  - { offset: 0xD68E7, size: 0x8, addend: 0x0, symName: __ZN3std2io17default_write_fmt17hc020db4f9a034973E, symObjAddr: 0x2FD4, symBinAddr: 0x437AC, symSize: 0x100 }
  - { offset: 0xD6973, size: 0x8, addend: 0x0, symName: __ZN3std2io5Write9write_all17h57cad8051e83b267E, symObjAddr: 0x30D4, symBinAddr: 0x438AC, symSize: 0x27C }
  - { offset: 0xD6B63, size: 0x8, addend: 0x0, symName: __ZN3std2io5Write9write_all17h691f6663b2e452feE, symObjAddr: 0x3350, symBinAddr: 0x43B28, symSize: 0x27C }
  - { offset: 0xD6D53, size: 0x8, addend: 0x0, symName: __ZN3std2io5Write9write_fmt17h3be537413f12d2adE, symObjAddr: 0x35CC, symBinAddr: 0x43DA4, symSize: 0x8C }
  - { offset: 0xD6DB7, size: 0x8, addend: 0x0, symName: __ZN3std2io5Write9write_fmt17hbce4cd7596021435E, symObjAddr: 0x3658, symBinAddr: 0x43E30, symSize: 0x8C }
  - { offset: 0xD6E1B, size: 0x8, addend: 0x0, symName: __ZN3std2io5Write9write_fmt17hc6bdae65385594ccE, symObjAddr: 0x36E4, symBinAddr: 0x43EBC, symSize: 0x8C }
  - { offset: 0xD6E7F, size: 0x8, addend: 0x0, symName: __ZN3std2io5Write9write_fmt17he30e6bf4980426caE, symObjAddr: 0x3770, symBinAddr: 0x43F48, symSize: 0x8C }
  - { offset: 0xD6EEE, size: 0x8, addend: 0x0, symName: '__ZN3std2io5impls58_$LT$impl$u20$std..io..Write$u20$for$u20$$RF$mut$u20$W$GT$14write_vectored17h568a15b35ecc7bbdE', symObjAddr: 0x3E9C, symBinAddr: 0x44674, symSize: 0x34 }
  - { offset: 0xD6F31, size: 0x8, addend: 0x0, symName: '__ZN3std2io5impls58_$LT$impl$u20$std..io..Write$u20$for$u20$$RF$mut$u20$W$GT$14write_vectored17hfa77c32eb518523dE', symObjAddr: 0x3ED0, symBinAddr: 0x446A8, symSize: 0x34 }
  - { offset: 0xD6F74, size: 0x8, addend: 0x0, symName: '__ZN3std2io5impls58_$LT$impl$u20$std..io..Write$u20$for$u20$$RF$mut$u20$W$GT$17is_write_vectored17h69272d5223242c04E', symObjAddr: 0x3F04, symBinAddr: 0x446DC, symSize: 0x28 }
  - { offset: 0xD6FA9, size: 0x8, addend: 0x0, symName: '__ZN3std2io5impls58_$LT$impl$u20$std..io..Write$u20$for$u20$$RF$mut$u20$W$GT$17is_write_vectored17hb631f1bd103d2618E', symObjAddr: 0x3F2C, symBinAddr: 0x44704, symSize: 0x28 }
  - { offset: 0xD6FDE, size: 0x8, addend: 0x0, symName: '__ZN3std2io5impls58_$LT$impl$u20$std..io..Write$u20$for$u20$$RF$mut$u20$W$GT$18write_all_vectored17h78d40b43f0d67ef1E', symObjAddr: 0x3F54, symBinAddr: 0x4472C, symSize: 0x34 }
  - { offset: 0xD7021, size: 0x8, addend: 0x0, symName: '__ZN3std2io5impls58_$LT$impl$u20$std..io..Write$u20$for$u20$$RF$mut$u20$W$GT$18write_all_vectored17h7ef4d309ee6c6294E', symObjAddr: 0x3F88, symBinAddr: 0x44760, symSize: 0x34 }
  - { offset: 0xD7064, size: 0x8, addend: 0x0, symName: '__ZN3std2io5impls58_$LT$impl$u20$std..io..Write$u20$for$u20$$RF$mut$u20$W$GT$5flush17h16c10b427c2b4540E', symObjAddr: 0x3FBC, symBinAddr: 0x44794, symSize: 0x28 }
  - { offset: 0xD7099, size: 0x8, addend: 0x0, symName: '__ZN3std2io5impls58_$LT$impl$u20$std..io..Write$u20$for$u20$$RF$mut$u20$W$GT$5flush17h9c1ccc8f4ad83b5dE', symObjAddr: 0x3FE4, symBinAddr: 0x447BC, symSize: 0x28 }
  - { offset: 0xD70CE, size: 0x8, addend: 0x0, symName: '__ZN3std2io5impls58_$LT$impl$u20$std..io..Write$u20$for$u20$$RF$mut$u20$W$GT$5write17h2f19464469943244E', symObjAddr: 0x400C, symBinAddr: 0x447E4, symSize: 0x34 }
  - { offset: 0xD7111, size: 0x8, addend: 0x0, symName: '__ZN3std2io5impls58_$LT$impl$u20$std..io..Write$u20$for$u20$$RF$mut$u20$W$GT$5write17hd69bb9da204d2bf8E', symObjAddr: 0x4040, symBinAddr: 0x44818, symSize: 0x34 }
  - { offset: 0xD7154, size: 0x8, addend: 0x0, symName: '__ZN3std2io5impls58_$LT$impl$u20$std..io..Write$u20$for$u20$$RF$mut$u20$W$GT$9write_all17hcf4b8c9c47c66a4aE', symObjAddr: 0x4074, symBinAddr: 0x4484C, symSize: 0x34 }
  - { offset: 0xD7197, size: 0x8, addend: 0x0, symName: '__ZN3std2io5impls58_$LT$impl$u20$std..io..Write$u20$for$u20$$RF$mut$u20$W$GT$9write_all17hcfe60375c32ca759E', symObjAddr: 0x40A8, symBinAddr: 0x44880, symSize: 0x34 }
  - { offset: 0xD71DA, size: 0x8, addend: 0x0, symName: '__ZN3std2io5impls58_$LT$impl$u20$std..io..Write$u20$for$u20$$RF$mut$u20$W$GT$9write_fmt17h9714729ae09cd5d2E', symObjAddr: 0x40DC, symBinAddr: 0x448B4, symSize: 0x38 }
  - { offset: 0xD721D, size: 0x8, addend: 0x0, symName: '__ZN3std2io5impls58_$LT$impl$u20$std..io..Write$u20$for$u20$$RF$mut$u20$W$GT$9write_fmt17haee9979de2ea4b2fE', symObjAddr: 0x4114, symBinAddr: 0x448EC, symSize: 0x38 }
  - { offset: 0xD7266, size: 0x8, addend: 0x0, symName: '__ZN3std2io5impls71_$LT$impl$u20$std..io..Write$u20$for$u20$alloc..boxed..Box$LT$W$GT$$GT$14write_vectored17h9432a787ffd6b4c8E', symObjAddr: 0x414C, symBinAddr: 0x44924, symSize: 0x40 }
  - { offset: 0xD72A9, size: 0x8, addend: 0x0, symName: '__ZN3std2io5impls71_$LT$impl$u20$std..io..Write$u20$for$u20$alloc..boxed..Box$LT$W$GT$$GT$17is_write_vectored17had163c66253ec8f7E', symObjAddr: 0x418C, symBinAddr: 0x44964, symSize: 0x34 }
  - { offset: 0xD72DE, size: 0x8, addend: 0x0, symName: '__ZN3std2io5impls71_$LT$impl$u20$std..io..Write$u20$for$u20$alloc..boxed..Box$LT$W$GT$$GT$18write_all_vectored17h1620c93e779a5d39E', symObjAddr: 0x41C0, symBinAddr: 0x44998, symSize: 0x40 }
  - { offset: 0xD7321, size: 0x8, addend: 0x0, symName: '__ZN3std2io5impls71_$LT$impl$u20$std..io..Write$u20$for$u20$alloc..boxed..Box$LT$W$GT$$GT$5flush17ha824f80ceeb89260E', symObjAddr: 0x4200, symBinAddr: 0x449D8, symSize: 0x34 }
  - { offset: 0xD7356, size: 0x8, addend: 0x0, symName: '__ZN3std2io5impls71_$LT$impl$u20$std..io..Write$u20$for$u20$alloc..boxed..Box$LT$W$GT$$GT$5write17he3b846b321836e6eE', symObjAddr: 0x4234, symBinAddr: 0x44A0C, symSize: 0x40 }
  - { offset: 0xD7399, size: 0x8, addend: 0x0, symName: '__ZN3std2io5impls71_$LT$impl$u20$std..io..Write$u20$for$u20$alloc..boxed..Box$LT$W$GT$$GT$9write_all17hfc3f55c79761094dE', symObjAddr: 0x4274, symBinAddr: 0x44A4C, symSize: 0x40 }
  - { offset: 0xD73DC, size: 0x8, addend: 0x0, symName: '__ZN3std2io5impls71_$LT$impl$u20$std..io..Write$u20$for$u20$alloc..boxed..Box$LT$W$GT$$GT$9write_fmt17h5bf21257fd635554E', symObjAddr: 0x42B4, symBinAddr: 0x44A8C, symSize: 0x44 }
  - { offset: 0xD742A, size: 0x8, addend: 0x0, symName: '__ZN3std2io5impls74_$LT$impl$u20$std..io..Write$u20$for$u20$alloc..vec..Vec$LT$u8$C$A$GT$$GT$14write_vectored28_$u7b$$u7b$closure$u7d$$u7d$17h05ef453353917d36E', symObjAddr: 0x42F8, symBinAddr: 0x44AD0, symSize: 0x68 }
  - { offset: 0xD7A43, size: 0x8, addend: 0x0, symName: '__ZN5alloc6string94_$LT$impl$u20$core..convert..From$LT$$RF$str$GT$$u20$for$u20$alloc..borrow..Cow$LT$str$GT$$GT$4from17hb01fa427f6fe0650E', symObjAddr: 0x5690, symBinAddr: 0x45E3C, symSize: 0x2C }
  - { offset: 0xD82F9, size: 0x8, addend: 0x0, symName: '__ZN72_$LT$alloc..boxed..Box$LT$T$C$A$GT$$u20$as$u20$core..ops..drop..Drop$GT$4drop17h184ee45a8ee44664E', symObjAddr: 0x6484, symBinAddr: 0x4677C, symSize: 0x11C }
  - { offset: 0xD8432, size: 0x8, addend: 0x0, symName: '__ZN72_$LT$alloc..boxed..Box$LT$T$C$A$GT$$u20$as$u20$core..ops..drop..Drop$GT$4drop17h8fd8bf21da8991fcE', symObjAddr: 0x65A0, symBinAddr: 0x46898, symSize: 0xC4 }
  - { offset: 0xD856B, size: 0x8, addend: 0x0, symName: '__ZN72_$LT$alloc..boxed..Box$LT$T$C$A$GT$$u20$as$u20$core..ops..drop..Drop$GT$4drop17hd69906e8e07f2d88E', symObjAddr: 0x6664, symBinAddr: 0x4695C, symSize: 0xC4 }
  - { offset: 0xD8743, size: 0x8, addend: 0x0, symName: '__ZN66_$LT$alloc..borrow..Cow$LT$B$GT$$u20$as$u20$core..clone..Clone$GT$5clone17h9aaf1b0a5d423855E', symObjAddr: 0x5CA0, symBinAddr: 0x4603C, symSize: 0xA8 }
  - { offset: 0xD87D5, size: 0x8, addend: 0x0, symName: '__ZN66_$LT$alloc..borrow..Cow$LT$B$GT$$u20$as$u20$core..fmt..Display$GT$3fmt17h8e9de35be5a72794E', symObjAddr: 0x5D48, symBinAddr: 0x460E4, symSize: 0x84 }
  - { offset: 0xD888D, size: 0x8, addend: 0x0, symName: '__ZN71_$LT$alloc..borrow..Cow$LT$B$GT$$u20$as$u20$core..ops..deref..Deref$GT$5deref17h5912816d0941a5f5E', symObjAddr: 0x63D8, symBinAddr: 0x466D0, symSize: 0x78 }
  - { offset: 0xD898B, size: 0x8, addend: 0x0, symName: '__ZN5alloc3str56_$LT$impl$u20$alloc..borrow..ToOwned$u20$for$u20$str$GT$8to_owned17h01bf47f659d5c3e6E', symObjAddr: 0x55CC, symBinAddr: 0x45D78, symSize: 0x50 }
  - { offset: 0xD9962, size: 0x8, addend: 0x0, symName: '__ZN65_$LT$colorchoice..ColorChoice$u20$as$u20$core..cmp..PartialEq$GT$2eq17h69512155d27df16fE', symObjAddr: 0x5C6C, symBinAddr: 0x46008, symSize: 0x34 }
  - { offset: 0xDE812, size: 0x8, addend: 0x0, symName: '__ZN60_$LT$utf8parse..Parser$u20$as$u20$core..default..Default$GT$7default17h3df64f0423beae62E', symObjAddr: 0x56BC, symBinAddr: 0x45E68, symSize: 0x1C }
  - { offset: 0xDE963, size: 0x8, addend: 0x0, symName: __ZN10env_logger3fmt18ConfigurableFormat6format17hd71817c00a26a5e4E, symObjAddr: 0x358, symBinAddr: 0x41214, symSize: 0x5C }
  - { offset: 0xDE9C2, size: 0x8, addend: 0x0, symName: __ZN10env_logger3fmt24ConfigurableFormatWriter10write_args17h2d4d9f6a7a65f205E, symObjAddr: 0x438, symBinAddr: 0x41270, symSize: 0x15C }
  - { offset: 0xDEAB9, size: 0x8, addend: 0x0, symName: __ZN10env_logger3fmt24ConfigurableFormatWriter11write_level17hfa3b1ea61fbb927bE, symObjAddr: 0x594, symBinAddr: 0x413CC, symSize: 0xD8 }
  - { offset: 0xDEB70, size: 0x8, addend: 0x0, symName: __ZN10env_logger3fmt24ConfigurableFormatWriter12subtle_style17ha73c230a1b9d475cE, symObjAddr: 0x66C, symBinAddr: 0x414A4, symSize: 0x94 }
  - { offset: 0xDEBA2, size: 0x8, addend: 0x0, symName: __ZN10env_logger3fmt24ConfigurableFormatWriter12write_target17h2dee1fc898c14eedE, symObjAddr: 0x700, symBinAddr: 0x41538, symSize: 0x9C }
  - { offset: 0xDEBF2, size: 0x8, addend: 0x0, symName: __ZN10env_logger3fmt24ConfigurableFormatWriter13finish_header17h21c5a0b5a95e248fE, symObjAddr: 0x79C, symBinAddr: 0x415D4, symSize: 0xB4 }
  - { offset: 0xDEC6F, size: 0x8, addend: 0x0, symName: __ZN10env_logger3fmt24ConfigurableFormatWriter15write_timestamp17ha63f33a2e5d7560aE, symObjAddr: 0x850, symBinAddr: 0x41688, symSize: 0xF8 }
  - { offset: 0xDECB0, size: 0x8, addend: 0x0, symName: __ZN10env_logger3fmt24ConfigurableFormatWriter17write_module_path17hcf19d451981c42cbE, symObjAddr: 0x948, symBinAddr: 0x41780, symSize: 0x94 }
  - { offset: 0xDECF8, size: 0x8, addend: 0x0, symName: __ZN10env_logger3fmt24ConfigurableFormatWriter18write_header_value17h771bbaea34dede4dE, symObjAddr: 0x9DC, symBinAddr: 0x41814, symSize: 0x174 }
  - { offset: 0xDEDC5, size: 0x8, addend: 0x0, symName: __ZN10env_logger3fmt24ConfigurableFormatWriter18write_header_value17hc7d445765e52eabdE, symObjAddr: 0xB50, symBinAddr: 0x41988, symSize: 0x17C }
  - { offset: 0xDEE92, size: 0x8, addend: 0x0, symName: __ZN10env_logger3fmt24ConfigurableFormatWriter18write_header_value17hce2e1ac3b5e10f2cE, symObjAddr: 0xCCC, symBinAddr: 0x41B04, symSize: 0x17C }
  - { offset: 0xDEF5F, size: 0x8, addend: 0x0, symName: __ZN10env_logger3fmt24ConfigurableFormatWriter21write_source_location17he832aef69197a5f1E, symObjAddr: 0xE48, symBinAddr: 0x41C80, symSize: 0x148 }
  - { offset: 0xDF01B, size: 0x8, addend: 0x0, symName: __ZN10env_logger3fmt24ConfigurableFormatWriter5write17hece21de8824250dfE, symObjAddr: 0xFB4, symBinAddr: 0x41DEC, symSize: 0x254 }
  - { offset: 0xDF178, size: 0x8, addend: 0x0, symName: __ZN10env_logger3fmt7Builder5build17h65627df3a24241ecE, symObjAddr: 0x1208, symBinAddr: 0x42040, symSize: 0x1C8 }
  - { offset: 0xDF1F1, size: 0x8, addend: 0x0, symName: __ZN10env_logger3fmt9Formatter11write_style17h8f360069830f37f1E, symObjAddr: 0x13D0, symBinAddr: 0x42208, symSize: 0x18 }
  - { offset: 0xDF213, size: 0x8, addend: 0x0, symName: __ZN10env_logger3fmt9Formatter19default_level_style17h3a38ff9ca8ecbbb6E, symObjAddr: 0x13E8, symBinAddr: 0x42220, symSize: 0xF8 }
  - { offset: 0xDF250, size: 0x8, addend: 0x0, symName: __ZN10env_logger3fmt9Formatter3new17h4c477ec502d1a591E, symObjAddr: 0x14E0, symBinAddr: 0x42318, symSize: 0x90 }
  - { offset: 0xDF2DB, size: 0x8, addend: 0x0, symName: __ZN10env_logger3fmt9Formatter5clear17h4b82d12fba1a772aE, symObjAddr: 0x1570, symBinAddr: 0x423A8, symSize: 0x94 }
  - { offset: 0xDF34D, size: 0x8, addend: 0x0, symName: __ZN10env_logger3fmt9Formatter5print17h82ef79a2c4bda041E, symObjAddr: 0x1604, symBinAddr: 0x4243C, symSize: 0xA8 }
  - { offset: 0xDF3CD, size: 0x8, addend: 0x0, symName: '__ZN10env_logger3fmt9humantime44_$LT$impl$u20$env_logger..fmt..Formatter$GT$15timestamp_nanos17h4ac639e0580f3872E', symObjAddr: 0x16AC, symBinAddr: 0x424E4, symSize: 0x38 }
  - { offset: 0xDF3EF, size: 0x8, addend: 0x0, symName: '__ZN10env_logger3fmt9humantime44_$LT$impl$u20$env_logger..fmt..Formatter$GT$16timestamp_micros17h9303529ce5cc727aE', symObjAddr: 0x16E4, symBinAddr: 0x4251C, symSize: 0x38 }
  - { offset: 0xDF411, size: 0x8, addend: 0x0, symName: '__ZN10env_logger3fmt9humantime44_$LT$impl$u20$env_logger..fmt..Formatter$GT$16timestamp_millis17hdd561d46cfb4cd86E', symObjAddr: 0x171C, symBinAddr: 0x42554, symSize: 0x38 }
  - { offset: 0xDF433, size: 0x8, addend: 0x0, symName: '__ZN10env_logger3fmt9humantime44_$LT$impl$u20$env_logger..fmt..Formatter$GT$17timestamp_seconds17he411236bf06020b8E', symObjAddr: 0x1754, symBinAddr: 0x4258C, symSize: 0x34 }
  - { offset: 0xDF462, size: 0x8, addend: 0x0, symName: __ZN10env_logger6logger3Env10get_filter17h5eb72f211ac7f296E, symObjAddr: 0x1848, symBinAddr: 0x4264C, symSize: 0x24 }
  - { offset: 0xDF485, size: 0x8, addend: 0x0, symName: __ZN10env_logger6logger3Env15get_write_style17h326f0f3f74a06e64E, symObjAddr: 0x186C, symBinAddr: 0x42670, symSize: 0x24 }
  - { offset: 0xDF4B5, size: 0x8, addend: 0x0, symName: __ZN10env_logger6logger3Var3get17h62b9c3c8d129ecffE, symObjAddr: 0x18A4, symBinAddr: 0x42694, symSize: 0x58 }
  - { offset: 0xDF4D8, size: 0x8, addend: 0x0, symName: __ZN10env_logger6logger3Var3new17hd4e50b53817475c0E, symObjAddr: 0x196C, symBinAddr: 0x4275C, symSize: 0x64 }
  - { offset: 0xDF511, size: 0x8, addend: 0x0, symName: __ZN10env_logger6logger6Logger6filter17hda259b30206c3ff7E, symObjAddr: 0x1A68, symBinAddr: 0x427C0, symSize: 0x24 }
  - { offset: 0xDF534, size: 0x8, addend: 0x0, symName: __ZN10env_logger6logger6Logger7matches17hc55fbb3096485330E, symObjAddr: 0x1A8C, symBinAddr: 0x427E4, symSize: 0x2C }
  - { offset: 0xDF573, size: 0x8, addend: 0x0, symName: __ZN10env_logger6logger7Builder13parse_filters17hd530da916343519eE, symObjAddr: 0x1C50, symBinAddr: 0x42810, symSize: 0x38 }
  - { offset: 0xDF5A5, size: 0x8, addend: 0x0, symName: __ZN10env_logger6logger7Builder17parse_write_style17h2c974a1664585322E, symObjAddr: 0x1D9C, symBinAddr: 0x42848, symSize: 0x38 }
  - { offset: 0xDF5D7, size: 0x8, addend: 0x0, symName: __ZN10env_logger6logger7Builder3new17hf87c22686bb8664bE, symObjAddr: 0x1F10, symBinAddr: 0x42880, symSize: 0x14 }
  - { offset: 0xDF5EA, size: 0x8, addend: 0x0, symName: __ZN10env_logger6logger7Builder5build17hca8baf0a4618b3ceE, symObjAddr: 0x1F64, symBinAddr: 0x42894, symSize: 0x114 }
  - { offset: 0xDF60D, size: 0x8, addend: 0x0, symName: __ZN10env_logger6logger7Builder8from_env17hcffe140e67107553E, symObjAddr: 0x2128, symBinAddr: 0x429A8, symSize: 0xD0 }
  - { offset: 0xDF65B, size: 0x8, addend: 0x0, symName: __ZN10env_logger6logger7Builder8try_init17h9ca75e992d1964b9E, symObjAddr: 0x21F8, symBinAddr: 0x42A78, symSize: 0x190 }
  - { offset: 0xDF6E1, size: 0x8, addend: 0x0, symName: __ZN10env_logger6logger7Builder9parse_env17hf09c5c5217a3ec88E, symObjAddr: 0x2388, symBinAddr: 0x42C08, symSize: 0x198 }
  - { offset: 0xDF75D, size: 0x8, addend: 0x0, symName: __ZN10env_logger6writer6Writer11write_style17hddad8b82071e5240E, symObjAddr: 0x267C, symBinAddr: 0x42EE8, symSize: 0x24 }
  - { offset: 0xDF78C, size: 0x8, addend: 0x0, symName: __ZN10env_logger6writer6Writer5print17haae3a56435104d75E, symObjAddr: 0x26A0, symBinAddr: 0x42F0C, symSize: 0x2C }
  - { offset: 0xDF7BC, size: 0x8, addend: 0x0, symName: __ZN10env_logger6writer6Writer6buffer17hcaef7f4d4759291dE, symObjAddr: 0x26CC, symBinAddr: 0x42F38, symSize: 0x24 }
  - { offset: 0xDF7EB, size: 0x8, addend: 0x0, symName: __ZN10env_logger6writer7Builder11write_style17h9a750716fade8f0aE, symObjAddr: 0x26F0, symBinAddr: 0x42F5C, symSize: 0x1C }
  - { offset: 0xDF81B, size: 0x8, addend: 0x0, symName: __ZN10env_logger6writer7Builder17parse_write_style17h9103e5cda96a64b0E, symObjAddr: 0x270C, symBinAddr: 0x42F78, symSize: 0x48 }
  - { offset: 0xDF84B, size: 0x8, addend: 0x0, symName: __ZN10env_logger6writer7Builder3new17h0d560022347d0810E, symObjAddr: 0x2754, symBinAddr: 0x42FC0, symSize: 0x7C }
  - { offset: 0xDF86B, size: 0x8, addend: 0x0, symName: __ZN10env_logger6writer7Builder5build17hf248b8431d8e5f5cE, symObjAddr: 0x27D0, symBinAddr: 0x4303C, symSize: 0x270 }
  - { offset: 0xDFDE2, size: 0x8, addend: 0x0, symName: __ZN4core3fmt9Arguments23as_statically_known_str17hb40b5425ef8a5602E, symObjAddr: 0x47D0, symBinAddr: 0x44F7C, symSize: 0x104 }
  - { offset: 0xDFEA4, size: 0x8, addend: 0x0, symName: __ZN4core3fmt9Arguments8from_str17he1f9d79777a9b022E, symObjAddr: 0x48D4, symBinAddr: 0x45080, symSize: 0x20 }
  - { offset: 0xDFED4, size: 0x8, addend: 0x0, symName: __ZN4core3fmt9Formatter9alternate17h390304dcf90e54b0E, symObjAddr: 0x48F4, symBinAddr: 0x450A0, symSize: 0x20 }
  - { offset: 0xDFEF7, size: 0x8, addend: 0x0, symName: __ZN4core3fmt9Formatter9precision17he181442ec475a41fE, symObjAddr: 0x4914, symBinAddr: 0x450C0, symSize: 0x64 }
  - { offset: 0xDFF1A, size: 0x8, addend: 0x0, symName: __ZN4core3fmt9Formatter9write_fmt17h30a139a6bffac9e5E, symObjAddr: 0x4978, symBinAddr: 0x45124, symSize: 0xA4 }
  - { offset: 0xDFFA6, size: 0x8, addend: 0x0, symName: __ZN4jiff15signed_duration14SignedDuration11checked_neg17ha3ca3336153e4f44E, symObjAddr: 0x4D98, symBinAddr: 0x45544, symSize: 0xA4 }
  - { offset: 0xDFFEC, size: 0x8, addend: 0x0, symName: __ZN4jiff15signed_duration14SignedDuration12subsec_nanos17hdb19ba7bb0881f74E, symObjAddr: 0x4E3C, symBinAddr: 0x455E8, symSize: 0x18 }
  - { offset: 0xE00B4, size: 0x8, addend: 0x0, symName: __ZN4jiff15signed_duration14SignedDuration12system_until17h1dc0790ccecf3a96E, symObjAddr: 0x4E54, symBinAddr: 0x45600, symSize: 0x148 }
  - { offset: 0xE0170, size: 0x8, addend: 0x0, symName: __ZN4jiff15signed_duration14SignedDuration13new_unchecked17h660ff27e5efbd3d7E, symObjAddr: 0x4F9C, symBinAddr: 0x45748, symSize: 0x94 }
  - { offset: 0xE01A2, size: 0x8, addend: 0x0, symName: __ZN4jiff15signed_duration14SignedDuration7as_secs17h41dd88057e38dfb8E, symObjAddr: 0x5030, symBinAddr: 0x457DC, symSize: 0x18 }
  - { offset: 0xE01D8, size: 0x8, addend: 0x0, symName: '__ZN5alloc6borrow12Cow$LT$B$GT$10into_owned17h41d66d6884450e1cE', symObjAddr: 0x561C, symBinAddr: 0x45DC8, symSize: 0x74 }
  - { offset: 0xE0315, size: 0x8, addend: 0x0, symName: '__ZN70_$LT$anstream..auto..AutoStream$LT$S$GT$$u20$as$u20$std..io..Write$GT$5flush17h55a41e6dd4802b5eE', symObjAddr: 0x5F74, symBinAddr: 0x4626C, symSize: 0xA0 }
  - { offset: 0xE0380, size: 0x8, addend: 0x0, symName: '__ZN70_$LT$anstream..auto..AutoStream$LT$S$GT$$u20$as$u20$std..io..Write$GT$5flush17hb2f18f59d5f21b00E', symObjAddr: 0x6014, symBinAddr: 0x4630C, symSize: 0xA0 }
  - { offset: 0xE03EB, size: 0x8, addend: 0x0, symName: '__ZN70_$LT$anstream..auto..AutoStream$LT$S$GT$$u20$as$u20$std..io..Write$GT$9write_all17hc891016d51dae5b5E', symObjAddr: 0x60B4, symBinAddr: 0x463AC, symSize: 0xC8 }
  - { offset: 0xE0465, size: 0x8, addend: 0x0, symName: '__ZN70_$LT$anstream..auto..AutoStream$LT$S$GT$$u20$as$u20$std..io..Write$GT$9write_all17hcfcb7c4996c214f2E', symObjAddr: 0x617C, symBinAddr: 0x46474, symSize: 0xC0 }
  - { offset: 0xE04DF, size: 0x8, addend: 0x0, symName: '__ZN70_$LT$anstream..auto..AutoStream$LT$S$GT$$u20$as$u20$std..io..Write$GT$9write_all17hd55af71600bbdc8aE', symObjAddr: 0x623C, symBinAddr: 0x46534, symSize: 0xC0 }
  - { offset: 0xE0942, size: 0x8, addend: 0x0, symName: '__ZN78_$LT$std..io..stdio..StderrLock$u20$as$u20$anstream..stream..AsLockedWrite$GT$15as_locked_write17h4d745c7faa7f1164E', symObjAddr: 0x6DB0, symBinAddr: 0x470A8, symSize: 0x14 }
  - { offset: 0xE0974, size: 0x8, addend: 0x0, symName: '__ZN78_$LT$std..io..stdio..StdoutLock$u20$as$u20$anstream..stream..AsLockedWrite$GT$15as_locked_write17h91fa91d7a0eef680E', symObjAddr: 0x6DC4, symBinAddr: 0x470BC, symSize: 0x14 }
  - { offset: 0xE0CC7, size: 0x8, addend: 0x0, symName: '__ZN8anstream4auto19AutoStream$LT$S$GT$10into_inner17hb45e30b1cdc90c74E', symObjAddr: 0x7244, symBinAddr: 0x4753C, symSize: 0xA4 }
  - { offset: 0xE0D2E, size: 0x8, addend: 0x0, symName: '__ZN8anstream4auto19AutoStream$LT$S$GT$11always_ansi17hb37631564fab61d9E', symObjAddr: 0x72E8, symBinAddr: 0x475E0, symSize: 0xAC }
  - { offset: 0xE0D5A, size: 0x8, addend: 0x0, symName: '__ZN8anstream4auto19AutoStream$LT$S$GT$12always_ansi_17h5b1894275e5da398E', symObjAddr: 0x7394, symBinAddr: 0x4768C, symSize: 0x4C }
  - { offset: 0xE0DA3, size: 0x8, addend: 0x0, symName: '__ZN8anstream4auto19AutoStream$LT$S$GT$3new17h1443c769d8bdfc51E', symObjAddr: 0x73E0, symBinAddr: 0x476D8, symSize: 0xEC }
  - { offset: 0xE0DDD, size: 0x8, addend: 0x0, symName: '__ZN8anstream4auto19AutoStream$LT$S$GT$4auto17ha5be3636c2c47a63E', symObjAddr: 0x74CC, symBinAddr: 0x477C4, symSize: 0x108 }
  - { offset: 0xE0E67, size: 0x8, addend: 0x0, symName: '__ZN8anstream4auto19AutoStream$LT$S$GT$5never17h2a9a23d52ec51183E', symObjAddr: 0x75D4, symBinAddr: 0x478CC, symSize: 0x6C }
  - { offset: 0xE0EB0, size: 0x8, addend: 0x0, symName: '__ZN8anstream4auto19AutoStream$LT$S$GT$6always17h013a131a94605f5aE', symObjAddr: 0x7640, symBinAddr: 0x47938, symSize: 0x80 }
  - { offset: 0xE0EE9, size: 0x8, addend: 0x0, symName: '__ZN8anstream4auto19AutoStream$LT$S$GT$6choice17hc3733fa35625ed98E', symObjAddr: 0x76C0, symBinAddr: 0x479B8, symSize: 0x2C }
  - { offset: 0xE0F14, size: 0x8, addend: 0x0, symName: '__ZN8anstream4auto40AutoStream$LT$std..io..stdio..Stderr$GT$4lock17hc02ee2774810b33aE', symObjAddr: 0x76EC, symBinAddr: 0x479E4, symSize: 0xC0 }
  - { offset: 0xE0F8E, size: 0x8, addend: 0x0, symName: '__ZN8anstream4auto40AutoStream$LT$std..io..stdio..Stdout$GT$4lock17h0cb55e1941d239e8E', symObjAddr: 0x77AC, symBinAddr: 0x47AA4, symSize: 0xC0 }
  - { offset: 0xE14F5, size: 0x8, addend: 0x0, symName: '__ZN103_$LT$std..sys..thread_local..abort_on_dtor_unwind..DtorUnwindGuard$u20$as$u20$core..ops..drop..Drop$GT$4drop17h2d1a8155dda42319E', symObjAddr: 0x0, symBinAddr: 0x48108, symSize: 0x4C }
  - { offset: 0xE1591, size: 0x8, addend: 0x0, symName: __ZN3log13set_max_level17h8346aa0b98ccee16E, symObjAddr: 0xD30, symBinAddr: 0x48DF8, symSize: 0x30 }
  - { offset: 0xE174D, size: 0x8, addend: 0x0, symName: '__ZN3log6Record11module_path28_$u7b$$u7b$closure$u7d$$u7d$17h44d6c6083ab3e73cE', symObjAddr: 0xE08, symBinAddr: 0x48ED0, symSize: 0x1C }
  - { offset: 0xE1794, size: 0x8, addend: 0x0, symName: '__ZN3log6Record4file28_$u7b$$u7b$closure$u7d$$u7d$17hb70ecc0a0d9f87c8E', symObjAddr: 0xE74, symBinAddr: 0x48F3C, symSize: 0x1C }
  - { offset: 0xE1926, size: 0x8, addend: 0x0, symName: '__ZN3std4sync6poison5mutex19MutexGuard$LT$T$GT$3new28_$u7b$$u7b$closure$u7d$$u7d$17h235ffc16f50701cdE', symObjAddr: 0x1B1C, symBinAddr: 0x49B90, symSize: 0x2C }
  - { offset: 0xE19BE, size: 0x8, addend: 0x0, symName: '__ZN87_$LT$std..sync..poison..mutex..MutexGuard$LT$T$GT$$u20$as$u20$core..ops..drop..Drop$GT$4drop17h5c901145d5086d95E', symObjAddr: 0x4EF8, symBinAddr: 0x4CA78, symSize: 0x58 }
  - { offset: 0xE1A42, size: 0x8, addend: 0x0, symName: '__ZN92_$LT$std..sync..poison..mutex..MutexGuard$LT$T$GT$$u20$as$u20$core..ops..deref..DerefMut$GT$9deref_mut17h8e0185b8e2f8c34bE', symObjAddr: 0x508C, symBinAddr: 0x4CC0C, symSize: 0x40 }
  - { offset: 0xE1B09, size: 0x8, addend: 0x0, symName: __ZN3std4sync6poison10map_result17h830fa5d49b618c22E, symObjAddr: 0x1848, symBinAddr: 0x498BC, symSize: 0xD4 }
  - { offset: 0xE1BDE, size: 0x8, addend: 0x0, symName: '__ZN76_$LT$std..sync..poison..PoisonError$LT$T$GT$$u20$as$u20$core..fmt..Debug$GT$3fmt17h8b9c08a3645d8571E', symObjAddr: 0x4B0C, symBinAddr: 0x4C7B4, symSize: 0x50 }
  - { offset: 0xE1F00, size: 0x8, addend: 0x0, symName: __ZN3std3sys12thread_local6native5eager7destroy17haab69cccbb8ac30aE, symObjAddr: 0x17D8, symBinAddr: 0x4984C, symSize: 0x30 }
  - { offset: 0xE1F36, size: 0x8, addend: 0x0, symName: '__ZN3std3sys12thread_local6native5eager7destroy28_$u7b$$u7b$closure$u7d$$u7d$17h69ecda2fa312d895E', symObjAddr: 0x1808, symBinAddr: 0x4987C, symSize: 0x40 }
  - { offset: 0xE1FF0, size: 0x8, addend: 0x0, symName: '__ZN103_$LT$std..sys..thread_local..abort_on_dtor_unwind..DtorUnwindGuard$u20$as$u20$core..ops..drop..Drop$GT$4drop17h2d1a8155dda42319E', symObjAddr: 0x0, symBinAddr: 0x48108, symSize: 0x4C }
  - { offset: 0xE203F, size: 0x8, addend: 0x0, symName: __ZN3std3sys12thread_local20abort_on_dtor_unwind17h6db3501927fb9aeeE, symObjAddr: 0x16C4, symBinAddr: 0x4978C, symSize: 0x50 }
  - { offset: 0xE2572, size: 0x8, addend: 0x0, symName: __ZN3std2io5Write9write_all17h9c18afed1675ffd8E, symObjAddr: 0xF30, symBinAddr: 0x48FF8, symSize: 0x27C }
  - { offset: 0xE2762, size: 0x8, addend: 0x0, symName: __ZN3std2io5Write9write_fmt17h07061a6a123d0966E, symObjAddr: 0x11AC, symBinAddr: 0x49274, symSize: 0x8C }
  - { offset: 0xE27C6, size: 0x8, addend: 0x0, symName: __ZN3std2io5Write9write_fmt17he21b94c1cc83f797E, symObjAddr: 0x1238, symBinAddr: 0x49300, symSize: 0x8C }
  - { offset: 0xE2835, size: 0x8, addend: 0x0, symName: '__ZN3std2io5impls58_$LT$impl$u20$std..io..Write$u20$for$u20$$RF$mut$u20$W$GT$14write_vectored17h6ee7b0589ab58c32E', symObjAddr: 0x12C4, symBinAddr: 0x4938C, symSize: 0x34 }
  - { offset: 0xE2878, size: 0x8, addend: 0x0, symName: '__ZN3std2io5impls58_$LT$impl$u20$std..io..Write$u20$for$u20$$RF$mut$u20$W$GT$17is_write_vectored17h78995c9ff04e3133E', symObjAddr: 0x12F8, symBinAddr: 0x493C0, symSize: 0x28 }
  - { offset: 0xE28AD, size: 0x8, addend: 0x0, symName: '__ZN3std2io5impls58_$LT$impl$u20$std..io..Write$u20$for$u20$$RF$mut$u20$W$GT$18write_all_vectored17hc55b930c6d8061cdE', symObjAddr: 0x1320, symBinAddr: 0x493E8, symSize: 0x34 }
  - { offset: 0xE28F0, size: 0x8, addend: 0x0, symName: '__ZN3std2io5impls58_$LT$impl$u20$std..io..Write$u20$for$u20$$RF$mut$u20$W$GT$5flush17h6cc0275a4cb07253E', symObjAddr: 0x1354, symBinAddr: 0x4941C, symSize: 0x28 }
  - { offset: 0xE2925, size: 0x8, addend: 0x0, symName: '__ZN3std2io5impls58_$LT$impl$u20$std..io..Write$u20$for$u20$$RF$mut$u20$W$GT$5write17h0c9a144475523370E', symObjAddr: 0x137C, symBinAddr: 0x49444, symSize: 0x34 }
  - { offset: 0xE2968, size: 0x8, addend: 0x0, symName: '__ZN3std2io5impls58_$LT$impl$u20$std..io..Write$u20$for$u20$$RF$mut$u20$W$GT$9write_all17h092b2cebac0d8c26E', symObjAddr: 0x13B0, symBinAddr: 0x49478, symSize: 0x34 }
  - { offset: 0xE29AB, size: 0x8, addend: 0x0, symName: '__ZN3std2io5impls58_$LT$impl$u20$std..io..Write$u20$for$u20$$RF$mut$u20$W$GT$9write_fmt17h3a6278bb2fa5cca9E', symObjAddr: 0x13E4, symBinAddr: 0x494AC, symSize: 0x38 }
  - { offset: 0xE2A01, size: 0x8, addend: 0x0, symName: '__ZN3std2io5impls74_$LT$impl$u20$std..io..Write$u20$for$u20$alloc..vec..Vec$LT$u8$C$A$GT$$GT$14write_vectored17haafc56628ec39b1dE', symObjAddr: 0x141C, symBinAddr: 0x494E4, symSize: 0x16C }
  - { offset: 0xE2F04, size: 0x8, addend: 0x0, symName: '__ZN3std2io5impls74_$LT$impl$u20$std..io..Write$u20$for$u20$alloc..vec..Vec$LT$u8$C$A$GT$$GT$17is_write_vectored17h742542c640870697E', symObjAddr: 0x1588, symBinAddr: 0x49650, symSize: 0x18 }
  - { offset: 0xE2F3B, size: 0x8, addend: 0x0, symName: '__ZN3std2io5impls74_$LT$impl$u20$std..io..Write$u20$for$u20$alloc..vec..Vec$LT$u8$C$A$GT$$GT$18write_all_vectored17h06d4e613cc7692f5E', symObjAddr: 0x15A0, symBinAddr: 0x49668, symSize: 0x90 }
  - { offset: 0xE3022, size: 0x8, addend: 0x0, symName: '__ZN3std2io5impls74_$LT$impl$u20$std..io..Write$u20$for$u20$alloc..vec..Vec$LT$u8$C$A$GT$$GT$5flush17h8495bd005db3c54eE', symObjAddr: 0x1630, symBinAddr: 0x496F8, symSize: 0x14 }
  - { offset: 0xE3059, size: 0x8, addend: 0x0, symName: '__ZN3std2io5impls74_$LT$impl$u20$std..io..Write$u20$for$u20$alloc..vec..Vec$LT$u8$C$A$GT$$GT$5write17h5eb1cfe438b54ac8E', symObjAddr: 0x1644, symBinAddr: 0x4970C, symSize: 0x4C }
  - { offset: 0xE3194, size: 0x8, addend: 0x0, symName: '__ZN3std2io5impls74_$LT$impl$u20$std..io..Write$u20$for$u20$alloc..vec..Vec$LT$u8$C$A$GT$$GT$9write_all17h31300dc72308ca20E', symObjAddr: 0x1690, symBinAddr: 0x49758, symSize: 0x34 }
  - { offset: 0xE3C2A, size: 0x8, addend: 0x0, symName: '__ZN68_$LT$core..cell..Ref$LT$T$GT$$u20$as$u20$core..ops..deref..Deref$GT$5deref17hdc63f329f7d966ebE', symObjAddr: 0x42FC, symBinAddr: 0x4C168, symSize: 0x18 }
  - { offset: 0xE3C7C, size: 0x8, addend: 0x0, symName: '__ZN74_$LT$core..cell..RefMut$LT$T$GT$$u20$as$u20$core..ops..deref..DerefMut$GT$9deref_mut17h83ffbd7e4810e70dE', symObjAddr: 0x4864, symBinAddr: 0x4C578, symSize: 0x18 }
  - { offset: 0xE3CC8, size: 0x8, addend: 0x0, symName: '__ZN74_$LT$core..cell..RefMut$LT$T$GT$$u20$as$u20$core..ops..deref..DerefMut$GT$9deref_mut17hb6a2c4f640088be1E', symObjAddr: 0x487C, symBinAddr: 0x4C590, symSize: 0x18 }
  - { offset: 0xE426F, size: 0x8, addend: 0x0, symName: '__ZN4core3ptr8non_null16NonNull$LT$T$GT$13new_unchecked18precondition_check17h077dfb504bcf337eE', symObjAddr: 0x2AB0, symBinAddr: 0x4AA18, symSize: 0x58 }
  - { offset: 0xE49A1, size: 0x8, addend: 0x0, symName: '__ZN4core3ptr9const_ptr33_$LT$impl$u20$$BP$const$u20$T$GT$20offset_from_unsigned18precondition_check17h70df0f9dbb9fcf9cE', symObjAddr: 0x2D1C, symBinAddr: 0x4AC84, symSize: 0x60 }
  - { offset: 0xE4A5D, size: 0x8, addend: 0x0, symName: '__ZN4core3ptr101drop_in_place$LT$core..cell..RefMut$LT$core..option..Option$LT$env_logger..fmt..Formatter$GT$$GT$$GT$17ha4d980084236ea6eE', symObjAddr: 0x1F5C, symBinAddr: 0x49F9C, symSize: 0x24 }
  - { offset: 0xE4A8C, size: 0x8, addend: 0x0, symName: '__ZN4core3ptr102drop_in_place$LT$core..cell..RefCell$LT$core..option..Option$LT$env_logger..fmt..Formatter$GT$$GT$$GT$17hc3ed58c8591ace3bE', symObjAddr: 0x1F80, symBinAddr: 0x49FC0, symSize: 0x24 }
  - { offset: 0xE4ABB, size: 0x8, addend: 0x0, symName: '__ZN4core3ptr103drop_in_place$LT$alloc..rc..Rc$LT$core..cell..RefCell$LT$env_logger..writer..buffer..Buffer$GT$$GT$$GT$17h0eb07ab0af32c893E', symObjAddr: 0x1FA4, symBinAddr: 0x49FE4, symSize: 0x24 }
  - { offset: 0xE4AEA, size: 0x8, addend: 0x0, symName: '__ZN4core3ptr105drop_in_place$LT$core..cell..UnsafeCell$LT$core..option..Option$LT$env_logger..fmt..Formatter$GT$$GT$$GT$17hbb32ba925f62ea7bE', symObjAddr: 0x2010, symBinAddr: 0x4A008, symSize: 0x24 }
  - { offset: 0xE4B19, size: 0x8, addend: 0x0, symName: '__ZN4core3ptr105drop_in_place$LT$std..sync..poison..mutex..Mutex$LT$dyn$u20$std..io..Write$u2b$core..marker..Send$GT$$GT$17h86b632747a2cadfaE', symObjAddr: 0x2034, symBinAddr: 0x4A02C, symSize: 0xB0 }
  - { offset: 0xE4B48, size: 0x8, addend: 0x0, symName: '__ZN4core3ptr108drop_in_place$LT$alloc..rc..RcInner$LT$core..cell..RefCell$LT$env_logger..writer..buffer..Buffer$GT$$GT$$GT$17h616be1ff1c121af2E', symObjAddr: 0x20E4, symBinAddr: 0x4A0DC, symSize: 0x24 }
  - { offset: 0xE4B77, size: 0x8, addend: 0x0, symName: '__ZN4core3ptr110drop_in_place$LT$std..sync..poison..mutex..MutexGuard$LT$dyn$u20$std..io..Write$u2b$core..marker..Send$GT$$GT$17h0a1e23b20970a093E', symObjAddr: 0x2108, symBinAddr: 0x4A100, symSize: 0x24 }
  - { offset: 0xE4BA6, size: 0x8, addend: 0x0, symName: '__ZN4core3ptr121drop_in_place$LT$core..cell..UnsafeCell$LT$alloc..boxed..Box$LT$dyn$u20$std..io..Write$u2b$core..marker..Send$GT$$GT$$GT$17ha3873cc2ef88d43eE', symObjAddr: 0x212C, symBinAddr: 0x4A124, symSize: 0x24 }
  - { offset: 0xE4BD5, size: 0x8, addend: 0x0, symName: '__ZN4core3ptr129drop_in_place$LT$alloc..boxed..Box$LT$dyn$u20$env_logger..fmt..RecordFormat$u2b$core..marker..Send$u2b$core..marker..Sync$GT$$GT$17h69d55aea7ff801f0E', symObjAddr: 0x2150, symBinAddr: 0x4A148, symSize: 0x80 }
  - { offset: 0xE4C04, size: 0x8, addend: 0x0, symName: '__ZN4core3ptr130drop_in_place$LT$alloc..boxed..Box$LT$std..sync..poison..mutex..Mutex$LT$dyn$u20$std..io..Write$u2b$core..marker..Send$GT$$GT$$GT$17hcd5488f80c6966a4E', symObjAddr: 0x21D0, symBinAddr: 0x4A1C8, symSize: 0x68 }
  - { offset: 0xE4C33, size: 0x8, addend: 0x0, symName: '__ZN4core3ptr130drop_in_place$LT$std..sync..poison..mutex..Mutex$LT$alloc..boxed..Box$LT$dyn$u20$std..io..Write$u2b$core..marker..Send$GT$$GT$$GT$17h19760bd1dcc52d86E', symObjAddr: 0x2238, symBinAddr: 0x4A230, symSize: 0x60 }
  - { offset: 0xE4C62, size: 0x8, addend: 0x0, symName: '__ZN4core3ptr132drop_in_place$LT$alloc..rc..Weak$LT$core..cell..RefCell$LT$env_logger..writer..buffer..Buffer$GT$$C$$RF$alloc..alloc..Global$GT$$GT$17he0737ac9bf327522E', symObjAddr: 0x2298, symBinAddr: 0x4A290, symSize: 0x24 }
  - { offset: 0xE4C91, size: 0x8, addend: 0x0, symName: '__ZN4core3ptr132drop_in_place$LT$std..io..default_write_fmt..Adapter$LT$env_logger..fmt..ConfigurableFormatWriter..write_args..IndentWrapper$GT$$GT$17hda48c7e5ba180577E', symObjAddr: 0x22E0, symBinAddr: 0x4A2B4, symSize: 0x24 }
  - { offset: 0xE4CC0, size: 0x8, addend: 0x0, symName: '__ZN4core3ptr148drop_in_place$LT$std..sync..poison..PoisonError$LT$std..sync..poison..mutex..MutexGuard$LT$dyn$u20$std..io..Write$u2b$core..marker..Send$GT$$GT$$GT$17hc5443aa209b8a92cE', symObjAddr: 0x2304, symBinAddr: 0x4A2D8, symSize: 0x24 }
  - { offset: 0xE4CEF, size: 0x8, addend: 0x0, symName: '__ZN4core3ptr157drop_in_place$LT$core..option..Option$LT$alloc..boxed..Box$LT$dyn$u20$env_logger..fmt..RecordFormat$u2b$core..marker..Send$u2b$core..marker..Sync$GT$$GT$$GT$17h330223b1cef95183E', symObjAddr: 0x234C, symBinAddr: 0x4A2FC, symSize: 0x44 }
  - { offset: 0xE4D1E, size: 0x8, addend: 0x0, symName: '__ZN4core3ptr44drop_in_place$LT$env_logger..logger..Env$GT$17ha2bd00d8d51767f4E', symObjAddr: 0x2390, symBinAddr: 0x4A340, symSize: 0x60 }
  - { offset: 0xE4D4D, size: 0x8, addend: 0x0, symName: '__ZN4core3ptr44drop_in_place$LT$env_logger..logger..Var$GT$17hbcbd8b449daf9c8cE', symObjAddr: 0x23F0, symBinAddr: 0x4A3A0, symSize: 0x60 }
  - { offset: 0xE4D7C, size: 0x8, addend: 0x0, symName: '__ZN4core3ptr45drop_in_place$LT$env_logger..fmt..Builder$GT$17h96e826fa6f1dfe98E', symObjAddr: 0x2450, symBinAddr: 0x4A400, symSize: 0x24 }
  - { offset: 0xE4DAB, size: 0x8, addend: 0x0, symName: '__ZN4core3ptr47drop_in_place$LT$env_filter..filter..Filter$GT$17hd673723772efb94dE', symObjAddr: 0x2474, symBinAddr: 0x4A424, symSize: 0x60 }
  - { offset: 0xE4DDA, size: 0x8, addend: 0x0, symName: '__ZN4core3ptr47drop_in_place$LT$env_logger..fmt..Formatter$GT$17hf2305ece6daa67c7E', symObjAddr: 0x24D4, symBinAddr: 0x4A484, symSize: 0x24 }
  - { offset: 0xE4E09, size: 0x8, addend: 0x0, symName: '__ZN4core3ptr47drop_in_place$LT$env_logger..logger..Logger$GT$17h2ccdde047e120c50E', symObjAddr: 0x24F8, symBinAddr: 0x4A4A8, symSize: 0x90 }
  - { offset: 0xE4E38, size: 0x8, addend: 0x0, symName: '__ZN4core3ptr47drop_in_place$LT$env_logger..writer..Writer$GT$17h0077e6faba7ed186E', symObjAddr: 0x2588, symBinAddr: 0x4A538, symSize: 0x24 }
  - { offset: 0xE4E67, size: 0x8, addend: 0x0, symName: '__ZN4core3ptr48drop_in_place$LT$env_logger..logger..Builder$GT$17h7f220c0d20311dbdE', symObjAddr: 0x25AC, symBinAddr: 0x4A55C, symSize: 0x8C }
  - { offset: 0xE4E96, size: 0x8, addend: 0x0, symName: '__ZN4core3ptr48drop_in_place$LT$env_logger..writer..Builder$GT$17h0821030a9015941bE', symObjAddr: 0x2638, symBinAddr: 0x4A5E8, symSize: 0x24 }
  - { offset: 0xE4EC5, size: 0x8, addend: 0x0, symName: '__ZN4core3ptr55drop_in_place$LT$env_logger..writer..buffer..Buffer$GT$17h256c544012348a79E', symObjAddr: 0x265C, symBinAddr: 0x4A60C, symSize: 0x24 }
  - { offset: 0xE4EF4, size: 0x8, addend: 0x0, symName: '__ZN4core3ptr55drop_in_place$LT$env_logger..writer..target..Target$GT$17h966ff6cadb619b10E', symObjAddr: 0x2680, symBinAddr: 0x4A630, symSize: 0x48 }
  - { offset: 0xE4F23, size: 0x8, addend: 0x0, symName: '__ZN4core3ptr61drop_in_place$LT$env_logger..writer..buffer..BufferWriter$GT$17hbeefeab8dd45812aE', symObjAddr: 0x26C8, symBinAddr: 0x4A678, symSize: 0x24 }
  - { offset: 0xE4F52, size: 0x8, addend: 0x0, symName: '__ZN4core3ptr63drop_in_place$LT$env_logger..writer..buffer..WritableTarget$GT$17hac6a5d84e9526d59E', symObjAddr: 0x26EC, symBinAddr: 0x4A69C, symSize: 0x48 }
  - { offset: 0xE4F81, size: 0x8, addend: 0x0, symName: '__ZN4core3ptr75drop_in_place$LT$core..option..Option$LT$env_logger..fmt..Formatter$GT$$GT$17h517a58c6f5248acbE', symObjAddr: 0x277C, symBinAddr: 0x4A6E4, symSize: 0x44 }
  - { offset: 0xE4FB0, size: 0x8, addend: 0x0, symName: '__ZN4core3ptr78drop_in_place$LT$core..cell..Ref$LT$env_logger..writer..buffer..Buffer$GT$$GT$17hb966e8c030be6d33E', symObjAddr: 0x27C0, symBinAddr: 0x4A728, symSize: 0x24 }
  - { offset: 0xE4FDF, size: 0x8, addend: 0x0, symName: '__ZN4core3ptr78drop_in_place$LT$core..option..Option$LT$alloc..borrow..Cow$LT$str$GT$$GT$$GT$17h6b1df24bed2aeaf3E', symObjAddr: 0x27E4, symBinAddr: 0x4A74C, symSize: 0x48 }
  - { offset: 0xE500E, size: 0x8, addend: 0x0, symName: '__ZN4core3ptr80drop_in_place$LT$anstream..auto..AutoStream$LT$alloc..vec..Vec$LT$u8$GT$$GT$$GT$17ha6d59f5702514ed6E', symObjAddr: 0x282C, symBinAddr: 0x4A794, symSize: 0x24 }
  - { offset: 0xE503D, size: 0x8, addend: 0x0, symName: '__ZN4core3ptr81drop_in_place$LT$anstream..auto..AutoStream$LT$std..io..stdio..StderrLock$GT$$GT$17h00d81d8eacb03146E', symObjAddr: 0x2850, symBinAddr: 0x4A7B8, symSize: 0x24 }
  - { offset: 0xE506C, size: 0x8, addend: 0x0, symName: '__ZN4core3ptr81drop_in_place$LT$anstream..auto..AutoStream$LT$std..io..stdio..StdoutLock$GT$$GT$17hbc3208e291590867E', symObjAddr: 0x2874, symBinAddr: 0x4A7DC, symSize: 0x24 }
  - { offset: 0xE509B, size: 0x8, addend: 0x0, symName: '__ZN4core3ptr81drop_in_place$LT$anstream..auto..StreamInner$LT$alloc..vec..Vec$LT$u8$GT$$GT$$GT$17h29ee12bc38966c1bE', symObjAddr: 0x2898, symBinAddr: 0x4A800, symSize: 0x58 }
  - { offset: 0xE50CA, size: 0x8, addend: 0x0, symName: '__ZN4core3ptr81drop_in_place$LT$core..cell..RefMut$LT$env_logger..writer..buffer..Buffer$GT$$GT$17hfcff194ff7486a47E', symObjAddr: 0x28F0, symBinAddr: 0x4A858, symSize: 0x24 }
  - { offset: 0xE50F9, size: 0x8, addend: 0x0, symName: '__ZN4core3ptr82drop_in_place$LT$anstream..auto..StreamInner$LT$std..io..stdio..StderrLock$GT$$GT$17h3df778abf62ec7e1E', symObjAddr: 0x2914, symBinAddr: 0x4A87C, symSize: 0x50 }
  - { offset: 0xE5128, size: 0x8, addend: 0x0, symName: '__ZN4core3ptr82drop_in_place$LT$anstream..auto..StreamInner$LT$std..io..stdio..StdoutLock$GT$$GT$17h9fb2269154c8b2a9E', symObjAddr: 0x2964, symBinAddr: 0x4A8CC, symSize: 0x50 }
  - { offset: 0xE5157, size: 0x8, addend: 0x0, symName: '__ZN4core3ptr82drop_in_place$LT$anstream..strip..StripStream$LT$alloc..vec..Vec$LT$u8$GT$$GT$$GT$17h6087aeb42b153c00E', symObjAddr: 0x29B4, symBinAddr: 0x4A91C, symSize: 0x24 }
  - { offset: 0xE5186, size: 0x8, addend: 0x0, symName: '__ZN4core3ptr82drop_in_place$LT$core..cell..RefCell$LT$env_logger..writer..buffer..Buffer$GT$$GT$17ha6afee6c0b78abe6E', symObjAddr: 0x29D8, symBinAddr: 0x4A940, symSize: 0x24 }
  - { offset: 0xE51B5, size: 0x8, addend: 0x0, symName: '__ZN4core3ptr82drop_in_place$LT$std..sys..thread_local..abort_on_dtor_unwind..DtorUnwindGuard$GT$17h68474c571baf838bE', symObjAddr: 0x29FC, symBinAddr: 0x4A964, symSize: 0x24 }
  - { offset: 0xE51E4, size: 0x8, addend: 0x0, symName: '__ZN4core3ptr83drop_in_place$LT$anstream..strip..StripStream$LT$std..io..stdio..StderrLock$GT$$GT$17h233ee722487f8370E', symObjAddr: 0x2A20, symBinAddr: 0x4A988, symSize: 0x24 }
  - { offset: 0xE5213, size: 0x8, addend: 0x0, symName: '__ZN4core3ptr83drop_in_place$LT$anstream..strip..StripStream$LT$std..io..stdio..StdoutLock$GT$$GT$17hccb16fe9cbd18b24E', symObjAddr: 0x2A44, symBinAddr: 0x4A9AC, symSize: 0x24 }
  - { offset: 0xE5242, size: 0x8, addend: 0x0, symName: '__ZN4core3ptr85drop_in_place$LT$core..cell..UnsafeCell$LT$env_logger..writer..buffer..Buffer$GT$$GT$17h95aa257c8b969ad2E', symObjAddr: 0x2A68, symBinAddr: 0x4A9D0, symSize: 0x24 }
  - { offset: 0xE5271, size: 0x8, addend: 0x0, symName: '__ZN4core3ptr89drop_in_place$LT$std..io..default_write_fmt..Adapter$LT$alloc..vec..Vec$LT$u8$GT$$GT$$GT$17hcecace5e3b1d4eecE', symObjAddr: 0x2A8C, symBinAddr: 0x4A9F4, symSize: 0x24 }
  - { offset: 0xE52A0, size: 0x8, addend: 0x0, symName: '__ZN4core3ptr90drop_in_place$LT$std..io..default_write_fmt..Adapter$LT$env_logger..fmt..Formatter$GT$$GT$17hd948ccfdf7bb08bcE', symObjAddr: 0x2B84, symBinAddr: 0x4AAEC, symSize: 0x24 }
  - { offset: 0xE52CF, size: 0x8, addend: 0x0, symName: '__ZN4core3ptr90drop_in_place$LT$std..io..default_write_fmt..Adapter$LT$std..io..stdio..StderrLock$GT$$GT$17ha5a59e865dfd4a1cE', symObjAddr: 0x2BA8, symBinAddr: 0x4AB10, symSize: 0x24 }
  - { offset: 0xE52FE, size: 0x8, addend: 0x0, symName: '__ZN4core3ptr90drop_in_place$LT$std..io..default_write_fmt..Adapter$LT$std..io..stdio..StdoutLock$GT$$GT$17hb5b533f7cd85aeb6E', symObjAddr: 0x2BCC, symBinAddr: 0x4AB34, symSize: 0x24 }
  - { offset: 0xE532D, size: 0x8, addend: 0x0, symName: '__ZN4core3ptr91drop_in_place$LT$alloc..boxed..Box$LT$dyn$u20$std..io..Write$u2b$core..marker..Send$GT$$GT$17hf5f256bd26438c88E', symObjAddr: 0x2BF0, symBinAddr: 0x4AB58, symSize: 0x80 }
  - { offset: 0xE535C, size: 0x8, addend: 0x0, symName: '__ZN4core3ptr93drop_in_place$LT$std..io..default_write_fmt..Adapter$LT$std..sys..stdio..unix..Stderr$GT$$GT$17he06e25b2d401739dE', symObjAddr: 0x2C70, symBinAddr: 0x4ABD8, symSize: 0x24 }
  - { offset: 0xE538B, size: 0x8, addend: 0x0, symName: '__ZN4core3ptr96drop_in_place$LT$core..cell..UnsafeCell$LT$dyn$u20$std..io..Write$u2b$core..marker..Send$GT$$GT$17hb26d053fc34aa624E', symObjAddr: 0x2C94, symBinAddr: 0x4ABFC, symSize: 0x48 }
  - { offset: 0xE53BA, size: 0x8, addend: 0x0, symName: '__ZN4core3ptr96drop_in_place$LT$core..result..Result$LT$jiff..timestamp..Timestamp$C$jiff..error..Error$GT$$GT$17h32edfc37d6b08b46E', symObjAddr: 0x2CDC, symBinAddr: 0x4AC44, symSize: 0x40 }
  - { offset: 0xE5C05, size: 0x8, addend: 0x0, symName: '__ZN106_$LT$core..ops..range..Range$LT$usize$GT$$u20$as$u20$core..slice..index..SliceIndex$LT$$u5b$T$u5d$$GT$$GT$13get_unchecked18precondition_check17hc2b80df588b3390aE', symObjAddr: 0x4C, symBinAddr: 0x48154, symSize: 0x80 }
  - { offset: 0xE5F68, size: 0x8, addend: 0x0, symName: '__ZN4core5slice29_$LT$impl$u20$$u5b$T$u5d$$GT$5split17hd5aa80fb750c48e9E', symObjAddr: 0x3500, symBinAddr: 0x4B468, symSize: 0x24 }
  - { offset: 0xE6277, size: 0x8, addend: 0x0, symName: '__ZN153_$LT$core..result..Result$LT$T$C$F$GT$$u20$as$u20$core..ops..try_trait..FromResidual$LT$core..result..Result$LT$core..convert..Infallible$C$E$GT$$GT$$GT$13from_residual17h78f1621ed656c27cE', symObjAddr: 0xCFC, symBinAddr: 0x48DC4, symSize: 0x34 }
  - { offset: 0xE6528, size: 0x8, addend: 0x0, symName: '__ZN79_$LT$core..result..Result$LT$T$C$E$GT$$u20$as$u20$core..ops..try_trait..Try$GT$6branch17h5fa86e0576b4e2bcE', symObjAddr: 0x4BD0, symBinAddr: 0x4C878, symSize: 0x7C }
  - { offset: 0xE807C, size: 0x8, addend: 0x0, symName: '__ZN68_$LT$core..option..Option$LT$T$GT$$u20$as$u20$core..clone..Clone$GT$5clone17he66d9e4a0d0a54e0E', symObjAddr: 0x4314, symBinAddr: 0x4C180, symSize: 0x7C }
  - { offset: 0xE8138, size: 0x8, addend: 0x0, symName: '__ZN72_$LT$core..option..Option$LT$T$GT$$u20$as$u20$core..default..Default$GT$7default17he6d691e53a2fa84dE', symObjAddr: 0x4844, symBinAddr: 0x4C558, symSize: 0x8 }
  - { offset: 0xE8461, size: 0x8, addend: 0x0, symName: __ZN4core3ops8function6FnOnce9call_once17ha88e0ee87bad461aE, symObjAddr: 0x1F10, symBinAddr: 0x49F50, symSize: 0x4C }
  - { offset: 0xE8557, size: 0x8, addend: 0x0, symName: '__ZN4core4iter8adapters3map8map_fold28_$u7b$$u7b$closure$u7d$$u7d$17hfb40fdf284ff5653E', symObjAddr: 0x3440, symBinAddr: 0x4B3A8, symSize: 0x98 }
  - { offset: 0xE85FC, size: 0x8, addend: 0x0, symName: '__ZN56_$LT$usize$u20$as$u20$core..iter..traits..accum..Sum$GT$3sum28_$u7b$$u7b$closure$u7d$$u7d$17heb825a8cc10bf8c3E', symObjAddr: 0x3BDC, symBinAddr: 0x4BA78, symSize: 0x48 }
  - { offset: 0xE86C5, size: 0x8, addend: 0x0, symName: '__ZN50_$LT$T$u20$as$u20$core..convert..Into$LT$U$GT$$GT$4into17ha8ab236c0da019dfE', symObjAddr: 0x3B60, symBinAddr: 0x4BA50, symSize: 0x28 }
  - { offset: 0xE87A5, size: 0x8, addend: 0x0, symName: __ZN4core3mem4take17haaa6a85fdd793871E, symObjAddr: 0x1E60, symBinAddr: 0x49EA0, symSize: 0x54 }
  - { offset: 0xE8802, size: 0x8, addend: 0x0, symName: __ZN4core3mem7replace17h85bc6122e8b83dcbE, symObjAddr: 0x1EB4, symBinAddr: 0x49EF4, symSize: 0x5C }
  - { offset: 0xE8A24, size: 0x8, addend: 0x0, symName: '__ZN4core3str6traits54_$LT$impl$u20$core..cmp..PartialEq$u20$for$u20$str$GT$2eq17h5ba5f2d208acc753E', symObjAddr: 0x2D7C, symBinAddr: 0x4ACE4, symSize: 0xA0 }
  - { offset: 0xE8B8A, size: 0x8, addend: 0x0, symName: '__ZN4core4bool22_$LT$impl$u20$bool$GT$4then17h7f3ec3376b45f83dE', symObjAddr: 0x2E1C, symBinAddr: 0x4AD84, symSize: 0x54 }
  - { offset: 0xE8C34, size: 0x8, addend: 0x0, symName: __ZN4core4char7methods15encode_utf8_raw17h75a2a65af00149caE, symObjAddr: 0x3124, symBinAddr: 0x4B08C, symSize: 0x100 }
  - { offset: 0xE8D6E, size: 0x8, addend: 0x0, symName: __ZN4core4char7methods25encode_utf8_raw_unchecked17hdf0a3019db047b2dE, symObjAddr: 0x3224, symBinAddr: 0x4B18C, symSize: 0x188 }
  - { offset: 0xE8F24, size: 0x8, addend: 0x0, symName: __ZN4core4hint16assert_unchecked18precondition_check17h097bfab289769350E, symObjAddr: 0x33AC, symBinAddr: 0x4B314, symSize: 0x58 }
  - { offset: 0xE8F6F, size: 0x8, addend: 0x0, symName: __ZN4core4hint21unreachable_unchecked18precondition_check17hfc54c6575dfbffafE, symObjAddr: 0x3404, symBinAddr: 0x4B36C, symSize: 0x3C }
  - { offset: 0xE94F0, size: 0x8, addend: 0x0, symName: '__ZN97_$LT$alloc..vec..Vec$LT$T$C$A$GT$$u20$as$u20$core..iter..traits..collect..Extend$LT$$RF$T$GT$$GT$6extend17hf449954e3cf7c8a8E', symObjAddr: 0x50CC, symBinAddr: 0x4CC4C, symSize: 0x54 }
  - { offset: 0xE95A0, size: 0x8, addend: 0x0, symName: '__ZN63_$LT$alloc..alloc..Global$u20$as$u20$core..alloc..Allocator$GT$10deallocate17h851aab69d21963efE', symObjAddr: 0x4170, symBinAddr: 0x4BFDC, symSize: 0x58 }
  - { offset: 0xE962D, size: 0x8, addend: 0x0, symName: __ZN5alloc5alloc15exchange_malloc17h9cc602100260e24fE, symObjAddr: 0x3D70, symBinAddr: 0x4BC0C, symSize: 0xAC }
  - { offset: 0xE9C88, size: 0x8, addend: 0x0, symName: '__ZN68_$LT$alloc..rc..Rc$LT$T$C$A$GT$$u20$as$u20$core..ops..drop..Drop$GT$4drop17hec35e428b2646d0eE', symObjAddr: 0x4294, symBinAddr: 0x4C100, symSize: 0x68 }
  - { offset: 0xE9EF2, size: 0x8, addend: 0x0, symName: '__ZN70_$LT$alloc..rc..Weak$LT$T$C$A$GT$$u20$as$u20$core..ops..drop..Drop$GT$4drop17h3adf0eb43ec4c73fE', symObjAddr: 0x4390, symBinAddr: 0x4C1FC, symSize: 0x12C }
  - { offset: 0xEA193, size: 0x8, addend: 0x0, symName: '__ZN65_$LT$alloc..string..String$u20$as$u20$core..ops..deref..Deref$GT$5deref17hd54b2b73dc25cc7eE', symObjAddr: 0x41C8, symBinAddr: 0x4C034, symSize: 0x24 }
  - { offset: 0xEA1C7, size: 0x8, addend: 0x0, symName: '__ZN60_$LT$alloc..string..String$u20$as$u20$core..fmt..Display$GT$3fmt17h1f1bb9ac8da80d20E', symObjAddr: 0x4024, symBinAddr: 0x4BEC0, symSize: 0x80 }
  - { offset: 0xEA7E7, size: 0x8, addend: 0x0, symName: '__ZN5alloc3str83_$LT$impl$u20$core..borrow..Borrow$LT$str$GT$$u20$for$u20$alloc..string..String$GT$6borrow17hce1bdd0dffaeb544E', symObjAddr: 0x3D44, symBinAddr: 0x4BBE0, symSize: 0x2C }
  - { offset: 0xEA872, size: 0x8, addend: 0x0, symName: '__ZN76_$LT$env_logger..fmt..humantime..Timestamp$u20$as$u20$core..fmt..Display$GT$3fmt17h5497f8460dfad4fbE', symObjAddr: 0x4900, symBinAddr: 0x4C5A8, symSize: 0x20C }
  - { offset: 0xEAD44, size: 0x8, addend: 0x0, symName: __ZN10env_logger6writer6buffer5adapt17h5e247e2db60071bbE, symObjAddr: 0xA7C, symBinAddr: 0x48B84, symSize: 0x1BC }
  - { offset: 0xEAE6A, size: 0x8, addend: 0x0, symName: '__ZN77_$LT$env_logger..writer..target..Target$u20$as$u20$core..default..Default$GT$7default17h4f36aa763396afd7E', symObjAddr: 0x4B70, symBinAddr: 0x4C818, symSize: 0x10 }
  - { offset: 0xEB0AA, size: 0x8, addend: 0x0, symName: '__ZN83_$LT$anstyle_parse..state..definitions..State$u20$as$u20$core..default..Default$GT$7default17h24cf3bfc0e47a62bE', symObjAddr: 0x4EF0, symBinAddr: 0x4CA70, symSize: 0x8 }
  - { offset: 0xEB116, size: 0x8, addend: 0x0, symName: '__ZN66_$LT$utf8parse..types..State$u20$as$u20$core..default..Default$GT$7default17heb132293c84e54f9E', symObjAddr: 0x428C, symBinAddr: 0x4C0F8, symSize: 0x8 }
  - { offset: 0xEBB4F, size: 0x8, addend: 0x0, symName: '__ZN60_$LT$anstyle..style..Style$u20$as$u20$core..fmt..Display$GT$3fmt17h98dd0e095fb72610E', symObjAddr: 0x40A4, symBinAddr: 0x4BF40, symSize: 0x9C }
  - { offset: 0xF0752, size: 0x8, addend: 0x0, symName: '__ZN65_$LT$jiff..timestamp..Timestamp$u20$as$u20$core..fmt..Display$GT$3fmt17hc02a8ba4bbb46a26E', symObjAddr: 0x41EC, symBinAddr: 0x4C058, symSize: 0xA0 }
  - { offset: 0xF07B3, size: 0x8, addend: 0x0, symName: '__ZN98_$LT$jiff..timestamp..Timestamp$u20$as$u20$core..convert..TryFrom$LT$std..time..SystemTime$GT$$GT$8try_from17h66fc71e9214ae898E', symObjAddr: 0x5120, symBinAddr: 0x4CCA0, symSize: 0x98 }
  - { offset: 0xF0956, size: 0x8, addend: 0x0, symName: __ZN10env_logger6writer6buffer12BufferWriter11write_style17h79973791b9b6f3d7E, symObjAddr: 0xCC, symBinAddr: 0x481D4, symSize: 0x18 }
  - { offset: 0xF0978, size: 0x8, addend: 0x0, symName: __ZN10env_logger6writer6buffer12BufferWriter4pipe17hc4b02e05fb8e627fE, symObjAddr: 0xE4, symBinAddr: 0x481EC, symSize: 0x44 }
  - { offset: 0xF0A2B, size: 0x8, addend: 0x0, symName: __ZN10env_logger6writer6buffer12BufferWriter5print17h84d713aa5cea1e93E, symObjAddr: 0x128, symBinAddr: 0x48230, symSize: 0x86C }
  - { offset: 0xF0D6D, size: 0x8, addend: 0x0, symName: __ZN10env_logger6writer6buffer12BufferWriter6buffer17h69d5b27006d211a3E, symObjAddr: 0x994, symBinAddr: 0x48A9C, symSize: 0x3C }
  - { offset: 0xF0D8F, size: 0x8, addend: 0x0, symName: __ZN10env_logger6writer6buffer12BufferWriter6stderr17h057d445759b7a3deE, symObjAddr: 0x9D0, symBinAddr: 0x48AD8, symSize: 0x58 }
  - { offset: 0xF0DBF, size: 0x8, addend: 0x0, symName: __ZN10env_logger6writer6buffer12BufferWriter6stdout17h3ab41928afc7e39dE, symObjAddr: 0xA28, symBinAddr: 0x48B30, symSize: 0x54 }
  - { offset: 0xF0DFC, size: 0x8, addend: 0x0, symName: __ZN10env_logger6writer6buffer6Buffer5clear17h43fc00e115a923fbE, symObjAddr: 0xC38, symBinAddr: 0x48D40, symSize: 0x24 }
  - { offset: 0xF0E3C, size: 0x8, addend: 0x0, symName: __ZN10env_logger6writer6buffer6Buffer5write17h5dd53e1fda254665E, symObjAddr: 0xC70, symBinAddr: 0x48D64, symSize: 0x3C }
  - { offset: 0xF0E6C, size: 0x8, addend: 0x0, symName: __ZN10env_logger6writer6buffer6Buffer8as_bytes17h435509b2bcba84ceE, symObjAddr: 0xCAC, symBinAddr: 0x48DA0, symSize: 0x24 }
  - { offset: 0xF0E9B, size: 0x8, addend: 0x0, symName: __ZN3log14MaybeStaticStr3get17h7be9370c6bc56188E, symObjAddr: 0xD60, symBinAddr: 0x48E28, symSize: 0x6C }
  - { offset: 0xF0F8D, size: 0x8, addend: 0x0, symName: __ZN3log6Record11module_path17h7d7c57c1bf37ee98E, symObjAddr: 0xDCC, symBinAddr: 0x48E94, symSize: 0x3C }
  - { offset: 0xF0FBD, size: 0x8, addend: 0x0, symName: __ZN3log6Record4args17ha222a69efdfcf8b6E, symObjAddr: 0xE24, symBinAddr: 0x48EEC, symSize: 0x14 }
  - { offset: 0xF0FE0, size: 0x8, addend: 0x0, symName: __ZN3log6Record4file17h7aa9ddceea9507beE, symObjAddr: 0xE38, symBinAddr: 0x48F00, symSize: 0x3C }
  - { offset: 0xF1003, size: 0x8, addend: 0x0, symName: __ZN3log6Record4line17h92e1952b829b8dccE, symObjAddr: 0xE90, symBinAddr: 0x48F58, symSize: 0x20 }
  - { offset: 0xF1026, size: 0x8, addend: 0x0, symName: __ZN3log6Record5level17hff8b2679f5b5e5ddE, symObjAddr: 0xEB0, symBinAddr: 0x48F78, symSize: 0x24 }
  - { offset: 0xF1049, size: 0x8, addend: 0x0, symName: __ZN3log6Record6target17h120a081147b91596E, symObjAddr: 0xED4, symBinAddr: 0x48F9C, symSize: 0x24 }
  - { offset: 0xF1079, size: 0x8, addend: 0x0, symName: __ZN3log8Metadata5level17ha47e9ba129683fbfE, symObjAddr: 0xEF8, symBinAddr: 0x48FC0, symSize: 0x18 }
  - { offset: 0xF109C, size: 0x8, addend: 0x0, symName: __ZN3log8Metadata6target17hfdb3ae940fdcbd8eE, symObjAddr: 0xF10, symBinAddr: 0x48FD8, symSize: 0x20 }
  - { offset: 0xF152A, size: 0x8, addend: 0x0, symName: '__ZN3std3sys12thread_local6native5eager16Storage$LT$T$GT$10initialize17h777816e896c8c894E', symObjAddr: 0x1714, symBinAddr: 0x2A691C, symSize: 0x54 }
  - { offset: 0xF15E0, size: 0x8, addend: 0x0, symName: '__ZN3std3sys12thread_local6native5eager16Storage$LT$T$GT$3get17he1a1c96214481a36E', symObjAddr: 0x1768, symBinAddr: 0x497DC, symSize: 0x70 }
  - { offset: 0xF1742, size: 0x8, addend: 0x0, symName: __ZN3std4sync6poison4Flag4done17h01d9f6b1c1d1dc85E, symObjAddr: 0x191C, symBinAddr: 0x49990, symSize: 0x8C }
  - { offset: 0xF1830, size: 0x8, addend: 0x0, symName: __ZN3std4sync6poison4Flag5guard17h541973508d079619E, symObjAddr: 0x19A8, symBinAddr: 0x49A1C, symSize: 0xCC }
  - { offset: 0xF1939, size: 0x8, addend: 0x0, symName: '__ZN3std4sync6poison5mutex14Mutex$LT$T$GT$3new17h6dc9aae44137deccE', symObjAddr: 0x1A74, symBinAddr: 0x49AE8, symSize: 0x54 }
  - { offset: 0xF1A28, size: 0x8, addend: 0x0, symName: '__ZN3std4sync6poison5mutex14Mutex$LT$T$GT$4lock17hc7478519327d3e3aE', symObjAddr: 0x1AC8, symBinAddr: 0x49B3C, symSize: 0x54 }
  - { offset: 0xF1ABA, size: 0x8, addend: 0x0, symName: __ZN3std4time15SystemTimeError8duration17h3fc516bac11fe56eE, symObjAddr: 0x1B48, symBinAddr: 0x49BBC, symSize: 0x20 }
  - { offset: 0xF2064, size: 0x8, addend: 0x0, symName: '__ZN3std6thread5local17LocalKey$LT$T$GT$8try_with17hc843cfcc9ff726e2E', symObjAddr: 0x1B68, symBinAddr: 0x49BDC, symSize: 0xE8 }
  - { offset: 0xF21DD, size: 0x8, addend: 0x0, symName: __ZN4core3fmt2rt8Argument10from_usize17h732425b769c958ceE, symObjAddr: 0x1C84, symBinAddr: 0x49CC4, symSize: 0x7C }
  - { offset: 0xF220C, size: 0x8, addend: 0x0, symName: __ZN4core3fmt2rt8Argument11new_display17h567127c80192e33eE, symObjAddr: 0x1D00, symBinAddr: 0x49D40, symSize: 0x2C }
  - { offset: 0xF2244, size: 0x8, addend: 0x0, symName: __ZN4core3fmt2rt8Argument11new_display17h84deec793ef2fef1E, symObjAddr: 0x1D2C, symBinAddr: 0x49D6C, symSize: 0x2C }
  - { offset: 0xF226F, size: 0x8, addend: 0x0, symName: __ZN4core3fmt2rt8Argument11new_display17h8a2b38f9e0effae4E, symObjAddr: 0x1D58, symBinAddr: 0x49D98, symSize: 0x2C }
  - { offset: 0xF22A7, size: 0x8, addend: 0x0, symName: __ZN4core3fmt2rt8Argument11new_display17h93061e5a19eadd4cE, symObjAddr: 0x1D84, symBinAddr: 0x49DC4, symSize: 0x2C }
  - { offset: 0xF22DF, size: 0x8, addend: 0x0, symName: __ZN4core3fmt2rt8Argument11new_display17hb7650b7d08571459E, symObjAddr: 0x1DB0, symBinAddr: 0x49DF0, symSize: 0x2C }
  - { offset: 0xF230A, size: 0x8, addend: 0x0, symName: __ZN4core3fmt2rt8Argument11new_display17hb9536ca615325505E, symObjAddr: 0x1DDC, symBinAddr: 0x49E1C, symSize: 0x2C }
  - { offset: 0xF2342, size: 0x8, addend: 0x0, symName: __ZN4core3fmt2rt8Argument11new_display17hc3038c2aab67c1e9E, symObjAddr: 0x1E08, symBinAddr: 0x49E48, symSize: 0x2C }
  - { offset: 0xF237A, size: 0x8, addend: 0x0, symName: __ZN4core3fmt2rt8Argument11new_display17hdfad9749d2b83ae4E, symObjAddr: 0x1E34, symBinAddr: 0x49E74, symSize: 0x2C }
  - { offset: 0xF23CE, size: 0x8, addend: 0x0, symName: '__ZN4core3ptr8non_null16NonNull$LT$T$GT$20offset_from_unsigned17hbfd9356fd4829d38E', symObjAddr: 0x2B08, symBinAddr: 0x4AA70, symSize: 0x7C }
  - { offset: 0xF25B9, size: 0x8, addend: 0x0, symName: '__ZN4core4cell16RefCell$LT$T$GT$10borrow_mut17h2924be8d5e8b5515E', symObjAddr: 0x2E70, symBinAddr: 0x4ADD8, symSize: 0xAC }
  - { offset: 0xF2782, size: 0x8, addend: 0x0, symName: '__ZN4core4cell16RefCell$LT$T$GT$10try_borrow17hc2b4e2e04c6b8383E', symObjAddr: 0x2F1C, symBinAddr: 0x4AE84, symSize: 0xC4 }
  - { offset: 0xF297E, size: 0x8, addend: 0x0, symName: '__ZN4core4cell16RefCell$LT$T$GT$14try_borrow_mut17hb7c728c7cf8db570E', symObjAddr: 0x2FE0, symBinAddr: 0x4AF48, symSize: 0xB0 }
  - { offset: 0xF2A8E, size: 0x8, addend: 0x0, symName: '__ZN4core4cell16RefCell$LT$T$GT$3new17hfbb5d1be9f48db6fE', symObjAddr: 0x3090, symBinAddr: 0x4AFF8, symSize: 0x34 }
  - { offset: 0xF2ACF, size: 0x8, addend: 0x0, symName: '__ZN4core4cell16RefCell$LT$T$GT$6borrow17h7bb143d1272a8cafE', symObjAddr: 0x30C4, symBinAddr: 0x4B02C, symSize: 0x60 }
  - { offset: 0xF2B55, size: 0x8, addend: 0x0, symName: __ZN4core4sync6atomic11AtomicUsize5store17h9aac57dbb6f003a4E, symObjAddr: 0x34D8, symBinAddr: 0x4B440, symSize: 0x28 }
  - { offset: 0xF2BBB, size: 0x8, addend: 0x0, symName: '__ZN4core6option15Option$LT$T$GT$3map17h7309ec404bef0705E', symObjAddr: 0x3524, symBinAddr: 0x4B48C, symSize: 0x90 }
  - { offset: 0xF2C27, size: 0x8, addend: 0x0, symName: '__ZN4core6option15Option$LT$T$GT$3map17h9014e27347fd9dcbE', symObjAddr: 0x35B4, symBinAddr: 0x4B51C, symSize: 0x78 }
  - { offset: 0xF2C93, size: 0x8, addend: 0x0, symName: '__ZN4core6option15Option$LT$T$GT$3map17ha2aa7d28393d28d1E', symObjAddr: 0x362C, symBinAddr: 0x4B594, symSize: 0x78 }
  - { offset: 0xF2D0C, size: 0x8, addend: 0x0, symName: '__ZN4core6option15Option$LT$T$GT$7or_else17h26f505be3b1d7775E', symObjAddr: 0x36A4, symBinAddr: 0x4B60C, symSize: 0xB8 }
  - { offset: 0xF2D51, size: 0x8, addend: 0x0, symName: '__ZN4core6option43Option$LT$core..option..Option$LT$T$GT$$GT$7flatten17ha2bae698500076b5E', symObjAddr: 0x375C, symBinAddr: 0x4B6C4, symSize: 0x4C }
  - { offset: 0xF2D7D, size: 0x8, addend: 0x0, symName: '__ZN4core6result19Result$LT$T$C$E$GT$2ok17h6ebffb2620ecc531E', symObjAddr: 0x37A8, symBinAddr: 0x4B710, symSize: 0x84 }
  - { offset: 0xF2DDE, size: 0x8, addend: 0x0, symName: '__ZN4core6result19Result$LT$T$C$E$GT$5is_ok17h6288bce8b51a1dd3E', symObjAddr: 0x382C, symBinAddr: 0x4B794, symSize: 0x20 }
  - { offset: 0xF2E20, size: 0x8, addend: 0x0, symName: '__ZN4core6result19Result$LT$T$C$E$GT$5is_ok17h6451fc6aa7778e02E', symObjAddr: 0x384C, symBinAddr: 0x4B7B4, symSize: 0x20 }
  - { offset: 0xF2E55, size: 0x8, addend: 0x0, symName: '__ZN4core6result19Result$LT$T$C$E$GT$6expect17h7b33eb1dc1b93994E', symObjAddr: 0x38E4, symBinAddr: 0x4B7D4, symSize: 0xB8 }
  - { offset: 0xF2EC5, size: 0x8, addend: 0x0, symName: '__ZN4core6result19Result$LT$T$C$E$GT$8and_then17h93e7164fab0b88dfE', symObjAddr: 0x399C, symBinAddr: 0x4B88C, symSize: 0x68 }
  - { offset: 0xF2F57, size: 0x8, addend: 0x0, symName: __ZN4jiff3fmt8temporal15DateTimePrinter9precision17h295e0ada307908d1E, symObjAddr: 0x3A04, symBinAddr: 0x4B8F4, symSize: 0x64 }
  - { offset: 0xF302E, size: 0x8, addend: 0x0, symName: __ZN4jiff9timestamp9Timestamp13from_duration17h7633ad50a94cf383E, symObjAddr: 0x3A68, symBinAddr: 0x4B958, symSize: 0xF8 }
  - { offset: 0xF3103, size: 0x8, addend: 0x0, symName: '__ZN5alloc2rc11Rc$LT$T$GT$3new17hd0ab8ea3695b237eE', symObjAddr: 0x3C24, symBinAddr: 0x4BAC0, symSize: 0xAC }
  - { offset: 0xF3224, size: 0x8, addend: 0x0, symName: '__ZN5alloc2rc15Rc$LT$T$C$A$GT$9drop_slow17h415576dd531854c2E', symObjAddr: 0x3CD0, symBinAddr: 0x4BB6C, symSize: 0x74 }
  - { offset: 0xF33C6, size: 0x8, addend: 0x0, symName: __ZN5alloc5alloc6Global10alloc_impl17h664db7aff60692d7E, symObjAddr: 0x3E1C, symBinAddr: 0x4BCB8, symSize: 0x198 }
  - { offset: 0xF3829, size: 0x8, addend: 0x0, symName: __ZN5alloc6string6String6as_str17h000e6558696acb90E, symObjAddr: 0x3FB4, symBinAddr: 0x4BE50, symSize: 0x70 }
  - { offset: 0xF3C39, size: 0x8, addend: 0x0, symName: '__ZN72_$LT$anstream..strip..StripStream$LT$S$GT$$u20$as$u20$std..io..Write$GT$5flush17h7803ac1be7ee0026E', symObjAddr: 0x4614, symBinAddr: 0x4C328, symSize: 0x58 }
  - { offset: 0xF3C6E, size: 0x8, addend: 0x0, symName: '__ZN72_$LT$anstream..strip..StripStream$LT$S$GT$$u20$as$u20$std..io..Write$GT$5flush17hdb8b9581d996ded6E', symObjAddr: 0x466C, symBinAddr: 0x4C380, symSize: 0x58 }
  - { offset: 0xF3CA3, size: 0x8, addend: 0x0, symName: '__ZN72_$LT$anstream..strip..StripStream$LT$S$GT$$u20$as$u20$std..io..Write$GT$9write_all17h1f14d103b2854d5eE', symObjAddr: 0x46C4, symBinAddr: 0x4C3D8, symSize: 0x80 }
  - { offset: 0xF3CE6, size: 0x8, addend: 0x0, symName: '__ZN72_$LT$anstream..strip..StripStream$LT$S$GT$$u20$as$u20$std..io..Write$GT$9write_all17h50cd4a11e1d612a5E', symObjAddr: 0x4744, symBinAddr: 0x4C458, symSize: 0x80 }
  - { offset: 0xF3D29, size: 0x8, addend: 0x0, symName: '__ZN72_$LT$anstream..strip..StripStream$LT$S$GT$$u20$as$u20$std..io..Write$GT$9write_all17hcc5ee6382e0dec9aE', symObjAddr: 0x47C4, symBinAddr: 0x4C4D8, symSize: 0x80 }
  - { offset: 0xF3EB0, size: 0x8, addend: 0x0, symName: '__ZN74_$LT$alloc..vec..Vec$LT$u8$GT$$u20$as$u20$anstream..stream..IsTerminal$GT$11is_terminal17hd8e1641c46a93d46E', symObjAddr: 0x484C, symBinAddr: 0x4C560, symSize: 0x18 }
  - { offset: 0xF3EE2, size: 0x8, addend: 0x0, symName: '__ZN77_$LT$alloc..vec..Vec$LT$u8$GT$$u20$as$u20$anstream..stream..AsLockedWrite$GT$15as_locked_write17h10995675c3f3b112E', symObjAddr: 0x4B5C, symBinAddr: 0x4C804, symSize: 0x14 }
  - { offset: 0xF3F1F, size: 0x8, addend: 0x0, symName: '__ZN79_$LT$anstream..adapter..strip..StripBytes$u20$as$u20$core..default..Default$GT$7default17habe5062972f5d9abE', symObjAddr: 0x4B80, symBinAddr: 0x4C828, symSize: 0x3C }
  - { offset: 0xF3F42, size: 0x8, addend: 0x0, symName: '__ZN79_$LT$anstream..adapter..strip..Utf8Parser$u20$as$u20$core..default..Default$GT$7default17h96e428084b7de4ccE', symObjAddr: 0x4BBC, symBinAddr: 0x4C864, symSize: 0x14 }
  - { offset: 0xF4298, size: 0x8, addend: 0x0, symName: __ZN7anstyle5color9AnsiColor10on_default17h72d3bdbe67c9f2b5E, symObjAddr: 0x4D74, symBinAddr: 0x4C8F4, symSize: 0x5C }
  - { offset: 0xF42BA, size: 0x8, addend: 0x0, symName: __ZN7anstyle5style5Style12render_reset17h7f550d718b622209E, symObjAddr: 0x4DD0, symBinAddr: 0x4C950, symSize: 0x6C }
  - { offset: 0xF42DD, size: 0x8, addend: 0x0, symName: __ZN7anstyle5style5Style3new17h4404223ba49fea81E, symObjAddr: 0x4E3C, symBinAddr: 0x4C9BC, symSize: 0x50 }
  - { offset: 0xF42F0, size: 0x8, addend: 0x0, symName: __ZN7anstyle5style5Style7effects17h997b7daccf2d72e9E, symObjAddr: 0x4E8C, symBinAddr: 0x4CA0C, symSize: 0x28 }
  - { offset: 0xF4320, size: 0x8, addend: 0x0, symName: __ZN7anstyle5style5Style8fg_color17hb646ad04e04f86d0E, symObjAddr: 0x4EB4, symBinAddr: 0x4CA34, symSize: 0x34 }
  - { offset: 0xF4350, size: 0x8, addend: 0x0, symName: __ZN7anstyle6effect7Effects3new17hb8bfe0d3a27a8366E, symObjAddr: 0x4EE8, symBinAddr: 0x4CA68, symSize: 0x8 }
  - { offset: 0xF43D3, size: 0x8, addend: 0x0, symName: '__ZN8anstream5strip20StripStream$LT$S$GT$10into_inner17h49d25af0a27cb766E', symObjAddr: 0x4F50, symBinAddr: 0x4CAD0, symSize: 0x18 }
  - { offset: 0xF43FE, size: 0x8, addend: 0x0, symName: '__ZN8anstream5strip20StripStream$LT$S$GT$3new17h5b477637331f8604E', symObjAddr: 0x4F68, symBinAddr: 0x4CAE8, symSize: 0x84 }
  - { offset: 0xF442A, size: 0x8, addend: 0x0, symName: '__ZN8anstream5strip41StripStream$LT$std..io..stdio..Stderr$GT$4lock17h2fc6ba42b78f5498E', symObjAddr: 0x4FEC, symBinAddr: 0x4CB6C, symSize: 0x50 }
  - { offset: 0xF444D, size: 0x8, addend: 0x0, symName: '__ZN8anstream5strip41StripStream$LT$std..io..stdio..Stdout$GT$4lock17h248802af88122de1E', symObjAddr: 0x503C, symBinAddr: 0x4CBBC, symSize: 0x50 }
  - { offset: 0xF4F5B, size: 0x8, addend: 0x0, symName: '__ZN153_$LT$core..result..Result$LT$T$C$F$GT$$u20$as$u20$core..ops..try_trait..FromResidual$LT$core..result..Result$LT$core..convert..Infallible$C$E$GT$$GT$$GT$13from_residual17h2e95ce51ff73079cE', symObjAddr: 0x88C, symBinAddr: 0x4CD38, symSize: 0x34 }
  - { offset: 0xF4FC2, size: 0x8, addend: 0x0, symName: '__ZN153_$LT$core..result..Result$LT$T$C$F$GT$$u20$as$u20$core..ops..try_trait..FromResidual$LT$core..result..Result$LT$core..convert..Infallible$C$E$GT$$GT$$GT$13from_residual17h57525063bc158d29E', symObjAddr: 0x1020, symBinAddr: 0x4CD6C, symSize: 0x30 }
  - { offset: 0xF500B, size: 0x8, addend: 0x0, symName: '__ZN153_$LT$core..result..Result$LT$T$C$F$GT$$u20$as$u20$core..ops..try_trait..FromResidual$LT$core..result..Result$LT$core..convert..Infallible$C$E$GT$$GT$$GT$13from_residual17h5c8a316934cf730eE', symObjAddr: 0x1150, symBinAddr: 0x4CD9C, symSize: 0x34 }
  - { offset: 0xF5072, size: 0x8, addend: 0x0, symName: '__ZN153_$LT$core..result..Result$LT$T$C$F$GT$$u20$as$u20$core..ops..try_trait..FromResidual$LT$core..result..Result$LT$core..convert..Infallible$C$E$GT$$GT$$GT$13from_residual17ha32f5da5fac82337E', symObjAddr: 0x207C, symBinAddr: 0x4CDD0, symSize: 0x14 }
  - { offset: 0xF50BB, size: 0x8, addend: 0x0, symName: '__ZN153_$LT$core..result..Result$LT$T$C$F$GT$$u20$as$u20$core..ops..try_trait..FromResidual$LT$core..result..Result$LT$core..convert..Infallible$C$E$GT$$GT$$GT$13from_residual17hb7e835bd9600fa64E', symObjAddr: 0x2304, symBinAddr: 0x4CDE4, symSize: 0x38 }
  - { offset: 0xF5122, size: 0x8, addend: 0x0, symName: '__ZN153_$LT$core..result..Result$LT$T$C$F$GT$$u20$as$u20$core..ops..try_trait..FromResidual$LT$core..result..Result$LT$core..convert..Infallible$C$E$GT$$GT$$GT$13from_residual17hebf30d1bfb787d15E', symObjAddr: 0x2A08, symBinAddr: 0x4CE1C, symSize: 0x38 }
  - { offset: 0xF6506, size: 0x8, addend: 0x0, symName: '__ZN79_$LT$core..result..Result$LT$T$C$E$GT$$u20$as$u20$core..ops..try_trait..Try$GT$6branch17h146e28b0208cdf84E', symObjAddr: 0x8E80, symBinAddr: 0x4D0B0, symSize: 0x38 }
  - { offset: 0xF6582, size: 0x8, addend: 0x0, symName: '__ZN79_$LT$core..result..Result$LT$T$C$E$GT$$u20$as$u20$core..ops..try_trait..Try$GT$6branch17h1689d2f5c14644adE', symObjAddr: 0x8F24, symBinAddr: 0x4D0E8, symSize: 0x68 }
  - { offset: 0xF65FF, size: 0x8, addend: 0x0, symName: '__ZN79_$LT$core..result..Result$LT$T$C$E$GT$$u20$as$u20$core..ops..try_trait..Try$GT$6branch17h16c0c2d6c10a189aE', symObjAddr: 0x8F8C, symBinAddr: 0x4D150, symSize: 0x5C }
  - { offset: 0xF667C, size: 0x8, addend: 0x0, symName: '__ZN79_$LT$core..result..Result$LT$T$C$E$GT$$u20$as$u20$core..ops..try_trait..Try$GT$6branch17hf0d0d493f56967bbE', symObjAddr: 0xD354, symBinAddr: 0x4D1AC, symSize: 0x48 }
  - { offset: 0xFA56A, size: 0x8, addend: 0x0, symName: '__ZN92_$LT$core..result..Result$LT$T$C$E$GT$$u20$as$u20$jiff..error..ErrorContext$LT$T$C$E$GT$$GT$7context17he69ee195a3483b5bE', symObjAddr: 0xEB10, symBinAddr: 0x4D1F4, symSize: 0x38 }
  - { offset: 0xFA5C3, size: 0x8, addend: 0x0, symName: '__ZN92_$LT$core..result..Result$LT$T$C$E$GT$$u20$as$u20$jiff..error..ErrorContext$LT$T$C$E$GT$$GT$7context17hfa65303a75fb6712E', symObjAddr: 0xEBC0, symBinAddr: 0x4D22C, symSize: 0x38 }
  - { offset: 0xFC3DB, size: 0x8, addend: 0x0, symName: '__ZN4core6result19Result$LT$T$C$E$GT$7map_err17h41a9f9534ec3d6f8E', symObjAddr: 0x4570, symBinAddr: 0x4CE54, symSize: 0x84 }
  - { offset: 0xFC47B, size: 0x8, addend: 0x0, symName: '__ZN4core6result19Result$LT$T$C$E$GT$7map_err17h9e77f74f2f7e47eeE', symObjAddr: 0x6420, symBinAddr: 0x4CED8, symSize: 0x84 }
  - { offset: 0xFC50E, size: 0x8, addend: 0x0, symName: '__ZN4core6result19Result$LT$T$C$E$GT$7map_err17ha04861bd7f9c702dE', symObjAddr: 0x659C, symBinAddr: 0x4CF5C, symSize: 0x60 }
  - { offset: 0xFC5A0, size: 0x8, addend: 0x0, symName: '__ZN4core6result19Result$LT$T$C$E$GT$7map_err17ha3302c21612b35a0E', symObjAddr: 0x68BC, symBinAddr: 0x4CFBC, symSize: 0x54 }
  - { offset: 0xFC63F, size: 0x8, addend: 0x0, symName: '__ZN4core6result19Result$LT$T$C$E$GT$7map_err17he64f632b33e0bd30E', symObjAddr: 0x7D9C, symBinAddr: 0x4D010, symSize: 0x4C }
  - { offset: 0xFC6D1, size: 0x8, addend: 0x0, symName: '__ZN4core6result19Result$LT$T$C$E$GT$9unwrap_or17hef872ba103c3004cE', symObjAddr: 0x8850, symBinAddr: 0x4D05C, symSize: 0x54 }
  - { offset: 0xFE091, size: 0x8, addend: 0x0, symName: '__ZN48_$LT$i64$u20$as$u20$jiff..util..b..Primitive$GT$6as_i6417h330e7dc5ea53e4c4E', symObjAddr: 0xED0, symBinAddr: 0x4D264, symSize: 0x10 }
  - { offset: 0xFE0BF, size: 0x8, addend: 0x0, symName: '__ZN48_$LT$i64$u20$as$u20$jiff..util..b..Primitive$GT$7as_i12817h6fefec7bbb724a76E', symObjAddr: 0xEE0, symBinAddr: 0x4D274, symSize: 0x14 }
  - { offset: 0xFE0ED, size: 0x8, addend: 0x0, symName: '__ZN48_$LT$i64$u20$as$u20$jiff..util..b..Primitive$GT$8from_i6417h50be9b967b37fe2cE', symObjAddr: 0xF3C, symBinAddr: 0x4D288, symSize: 0x10 }
  - { offset: 0xFE853, size: 0x8, addend: 0x0, symName: __ZN4jiff4util1b6Bounds5check17h81863c2ec3e8a7f7E, symObjAddr: 0x74E8, symBinAddr: 0x4D2C0, symSize: 0x260 }
  - { offset: 0xFE928, size: 0x8, addend: 0x0, symName: '__ZN68_$LT$jiff..util..b..UnixSeconds$u20$as$u20$jiff..util..b..Bounds$GT$5error17h27e30a6840a016d9E', symObjAddr: 0xDA50, symBinAddr: 0x2A69A0, symSize: 0x18 }
  - { offset: 0xFE94B, size: 0x8, addend: 0x0, symName: '__ZN69_$LT$jiff..util..b..BoundsError$u20$as$u20$jiff..error..IntoError$GT$10into_error17h99293e94bbb149c0E', symObjAddr: 0xDA68, symBinAddr: 0x4D540, symSize: 0x28 }
  - { offset: 0x102C5B, size: 0x8, addend: 0x0, symName: '__ZN50_$LT$T$u20$as$u20$core..convert..Into$LT$U$GT$$GT$4into17heace9a0a7d8b7481E', symObjAddr: 0xC1E4, symBinAddr: 0x4D520, symSize: 0x20 }
  - { offset: 0x103243, size: 0x8, addend: 0x0, symName: __ZN4jiff4util1b11UnixSeconds5check17haee6348fd90f337aE, symObjAddr: 0x13FC, symBinAddr: 0x4D298, symSize: 0x20 }
  - { offset: 0x10326E, size: 0x8, addend: 0x0, symName: __ZN4jiff4util1b11UnixSeconds5error17h5835cfb37def4cd0E, symObjAddr: 0x141C, symBinAddr: 0x2A6970, symSize: 0x18 }
  - { offset: 0x103281, size: 0x8, addend: 0x0, symName: __ZN4jiff4util1b21SignedDurationSeconds5error17h7fe979eece6ec40cE, symObjAddr: 0x1B14, symBinAddr: 0x2A6988, symSize: 0x18 }
  - { offset: 0x103294, size: 0x8, addend: 0x0, symName: '__ZN4jiff4util1b23RawBoundsError$LT$B$GT$3new17h00d2f28e89e84c2dE', symObjAddr: 0x1BC4, symBinAddr: 0x4D2B8, symSize: 0x4 }
  - { offset: 0x1032B1, size: 0x8, addend: 0x0, symName: '__ZN4jiff4util1b23RawBoundsError$LT$B$GT$3new17hc3c735ef23207dd2E', symObjAddr: 0x1C60, symBinAddr: 0x4D2BC, symSize: 0x4 }
  - { offset: 0x103437, size: 0x8, addend: 0x0, symName: '__ZN4core3str21_$LT$impl$u20$str$GT$3len17h16f72f3fe1511a7bE', symObjAddr: 0xAB0, symBinAddr: 0x4D568, symSize: 0x1C }
  - { offset: 0x108979, size: 0x8, addend: 0x0, symName: '__ZN65_$LT$jiff..timestamp..Timestamp$u20$as$u20$core..fmt..Display$GT$3fmt28_$u7b$$u7b$closure$u7d$$u7d$17hae4294f472adf58fE', symObjAddr: 0xDB58, symBinAddr: 0x4D5F0, symSize: 0x2C }
  - { offset: 0x1089B2, size: 0x8, addend: 0x0, symName: '__ZN65_$LT$jiff..timestamp..Timestamp$u20$as$u20$core..fmt..Display$GT$3fmt28_$u7b$$u7b$closure$u7d$$u7d$17hffc14d7d5c9b1fbbE', symObjAddr: 0xDB84, symBinAddr: 0x4D61C, symSize: 0x28 }
  - { offset: 0x1092C5, size: 0x8, addend: 0x0, symName: __ZN4jiff9timestamp9Timestamp17subsec_nanosecond17hbd29dcde1222ca6cE, symObjAddr: 0xD0FC, symBinAddr: 0x4D584, symSize: 0x2C }
  - { offset: 0x1092F5, size: 0x8, addend: 0x0, symName: __ZN4jiff9timestamp9Timestamp19to_itimestamp_const17ha38e3193ed0b0d33E, symObjAddr: 0xD128, symBinAddr: 0x4D5B0, symSize: 0x40 }
  - { offset: 0x10B50C, size: 0x8, addend: 0x0, symName: '__ZN75_$LT$core..option..Option$LT$T$GT$$u20$as$u20$core..ops..try_trait..Try$GT$6branch17hc56e32cac793d9a0E', symObjAddr: 0x8E24, symBinAddr: 0x4DBA0, symSize: 0x48 }
  - { offset: 0x10CF37, size: 0x8, addend: 0x0, symName: __ZN4jiff3fmt5Write10as_mut_vec17h3bd9d217e609ed59E, symObjAddr: 0x7C84, symBinAddr: 0x4DAD8, symSize: 0x14 }
  - { offset: 0x10CF6E, size: 0x8, addend: 0x0, symName: __ZN4jiff3fmt5Write10write_char17he066e0cd575aeb6eE, symObjAddr: 0x7C98, symBinAddr: 0x4DAEC, symSize: 0x58 }
  - { offset: 0x10CFBA, size: 0x8, addend: 0x0, symName: '__ZN68_$LT$jiff..fmt..StdFmtWrite$LT$W$GT$$u20$as$u20$jiff..fmt..Write$GT$9write_str17heec2d25b1480a5ccE', symObjAddr: 0x85C0, symBinAddr: 0x4DB44, symSize: 0x34 }
  - { offset: 0x10D005, size: 0x8, addend: 0x0, symName: '__ZN68_$LT$jiff..fmt..StdFmtWrite$LT$W$GT$$u20$as$u20$jiff..fmt..Write$GT$9write_str28_$u7b$$u7b$closure$u7d$$u7d$17h651f0553f5606a0cE', symObjAddr: 0x85F4, symBinAddr: 0x4DB78, symSize: 0x28 }
  - { offset: 0x11134B, size: 0x8, addend: 0x0, symName: '__ZN4core6option15Option$LT$T$GT$10ok_or_else17hab1e626fa276a015E', symObjAddr: 0xAF4, symBinAddr: 0x4D644, symSize: 0x6C }
  - { offset: 0x1113E9, size: 0x8, addend: 0x0, symName: '__ZN4core6option15Option$LT$T$GT$11map_or_else17hfc7bd0bdbeb2f2adE', symObjAddr: 0xE38, symBinAddr: 0x4D6B0, symSize: 0xC0 }
  - { offset: 0x1114D8, size: 0x8, addend: 0x0, symName: '__ZN4core6option15Option$LT$T$GT$14unwrap_or_else17hb01698e53f689013E', symObjAddr: 0x1158, symBinAddr: 0x4D770, symSize: 0x54 }
  - { offset: 0x11155D, size: 0x8, addend: 0x0, symName: '__ZN4core6option15Option$LT$T$GT$3map17h5380e7b6f0eb3d13E', symObjAddr: 0x1B68, symBinAddr: 0x4D7C4, symSize: 0x5C }
  - { offset: 0x1115E0, size: 0x8, addend: 0x0, symName: '__ZN4core6option15Option$LT$T$GT$3map17h806bcfb396754cf5E', symObjAddr: 0x1EE8, symBinAddr: 0x4D820, symSize: 0x5C }
  - { offset: 0x111665, size: 0x8, addend: 0x0, symName: '__ZN4core6option15Option$LT$T$GT$6as_mut17h76746dffd8b39144E', symObjAddr: 0x393C, symBinAddr: 0x4D87C, symSize: 0x4C }
  - { offset: 0x11170A, size: 0x8, addend: 0x0, symName: '__ZN4core6option15Option$LT$T$GT$6expect17hcd387182c42540d6E', symObjAddr: 0x3E8C, symBinAddr: 0x4D8C8, symSize: 0x68 }
  - { offset: 0x111752, size: 0x8, addend: 0x0, symName: '__ZN4core6option15Option$LT$T$GT$6expect17hec1b2ea66470dc59E', symObjAddr: 0x3F5C, symBinAddr: 0x4D930, symSize: 0x5C }
  - { offset: 0x11178D, size: 0x8, addend: 0x0, symName: '__ZN4core6option15Option$LT$T$GT$6map_or17h9999eb62e4ad419eE', symObjAddr: 0x4CE0, symBinAddr: 0x4D98C, symSize: 0x9C }
  - { offset: 0x11181B, size: 0x8, addend: 0x0, symName: '__ZN4core6option15Option$LT$T$GT$7is_none17ha2f816c803e2b9ebE', symObjAddr: 0x55DC, symBinAddr: 0x4DA28, symSize: 0x24 }
  - { offset: 0x111881, size: 0x8, addend: 0x0, symName: '__ZN4core6option15Option$LT$T$GT$7is_none17hafbc574331ad39b3E', symObjAddr: 0x5600, symBinAddr: 0x4DA4C, symSize: 0x20 }
  - { offset: 0x1118F4, size: 0x8, addend: 0x0, symName: '__ZN4core6option15Option$LT$T$GT$7is_none17hc3a9febae9a3cdd1E', symObjAddr: 0x5668, symBinAddr: 0x4DA6C, symSize: 0x28 }
  - { offset: 0x111995, size: 0x8, addend: 0x0, symName: '__ZN4core6option15Option$LT$T$GT$9unwrap_or17h6556367562e4dd60E', symObjAddr: 0x7030, symBinAddr: 0x4DA94, symSize: 0x44 }
  - { offset: 0x1126B0, size: 0x8, addend: 0x0, symName: '__ZN4core3cmp5impls69_$LT$impl$u20$core..cmp..PartialEq$LT$$RF$B$GT$$u20$for$u20$$RF$A$GT$2eq17hee8123ea990c97baE', symObjAddr: 0xE94, symBinAddr: 0x4E274, symSize: 0x44 }
  - { offset: 0x112D8E, size: 0x8, addend: 0x0, symName: '__ZN4core5slice4iter87_$LT$impl$u20$core..iter..traits..collect..IntoIterator$u20$for$u20$$RF$$u5b$T$u5d$$GT$9into_iter17h06659b27c22dad1aE', symObjAddr: 0x12B0, symBinAddr: 0x4E2B8, symSize: 0x50 }
  - { offset: 0x112F0A, size: 0x8, addend: 0x0, symName: '__ZN4core7convert3num67_$LT$impl$u20$core..convert..TryFrom$LT$u32$GT$$u20$for$u20$i32$GT$8try_from17h94e12f52eecd9068E', symObjAddr: 0x1664, symBinAddr: 0x4E308, symSize: 0x5C }
  - { offset: 0x112F3E, size: 0x8, addend: 0x0, symName: '__ZN4core7convert3num67_$LT$impl$u20$core..convert..TryFrom$LT$u64$GT$$u20$for$u20$i64$GT$8try_from17hfc2fd8524aab5071E', symObjAddr: 0x16C0, symBinAddr: 0x4E364, symSize: 0x5C }
  - { offset: 0x1186B0, size: 0x8, addend: 0x0, symName: '__ZN5alloc3fmt6format28_$u7b$$u7b$closure$u7d$$u7d$17hd6c6b41200e4e4e2E', symObjAddr: 0x8940, symBinAddr: 0x4EB74, symSize: 0x30 }
  - { offset: 0x1188F1, size: 0x8, addend: 0x0, symName: '__ZN78_$LT$std..io..error..repr_bitpacked..Repr$u20$as$u20$core..ops..drop..Drop$GT$4drop28_$u7b$$u7b$closure$u7d$$u7d$17h43e3881c7804468aE', symObjAddr: 0x94A8, symBinAddr: 0x4EBDC, symSize: 0x3C }
  - { offset: 0x1189A6, size: 0x8, addend: 0x0, symName: '__ZN78_$LT$std..io..error..repr_bitpacked..Repr$u20$as$u20$core..ops..drop..Drop$GT$4drop17hcbc2dcaed718e28bE', symObjAddr: 0x9470, symBinAddr: 0x4EBA4, symSize: 0x38 }
  - { offset: 0x1189CF, size: 0x8, addend: 0x0, symName: __ZN3std2io5error14repr_bitpacked11decode_repr17hbdcf207c2b1b72b8E, symObjAddr: 0x258, symBinAddr: 0x4DBE8, symSize: 0x1DC }
  - { offset: 0x118C14, size: 0x8, addend: 0x0, symName: __ZN3std2io5error14repr_bitpacked14kind_from_prim17hebdbce555dd2febeE, symObjAddr: 0x434, symBinAddr: 0x4DDC4, symSize: 0x4B0 }
  - { offset: 0x119936, size: 0x8, addend: 0x0, symName: __ZN4jiff5civil4date4Date16from_idate_const17h5ef5dcb57019a92fE, symObjAddr: 0x4A88, symBinAddr: 0x4E3C0, symSize: 0x34 }
  - { offset: 0x119959, size: 0x8, addend: 0x0, symName: __ZN4jiff5civil4date4Date3day17h3ba923ae1f85c7dfE, symObjAddr: 0x4FE8, symBinAddr: 0x4E3F4, symSize: 0x1C }
  - { offset: 0x11997C, size: 0x8, addend: 0x0, symName: __ZN4jiff5civil4date4Date4year17h2becef1dd62dd48dE, symObjAddr: 0x51E0, symBinAddr: 0x4E410, symSize: 0x1C }
  - { offset: 0x11999F, size: 0x8, addend: 0x0, symName: __ZN4jiff5civil4date4Date5month17h5cf04bd44aeb1306E, symObjAddr: 0x51FC, symBinAddr: 0x4E42C, symSize: 0x1C }
  - { offset: 0x1199ED, size: 0x8, addend: 0x0, symName: __ZN4jiff6shared4util5itime10ITimestamp11to_datetime17h8c39ee268d81ff6dE, symObjAddr: 0x5F60, symBinAddr: 0x4E448, symSize: 0x260 }
  - { offset: 0x119AB5, size: 0x8, addend: 0x0, symName: __ZN4jiff6shared4util5itime11ITimeSecond7to_time17hd9c8353d83189431E, symObjAddr: 0x61C0, symBinAddr: 0x4E6A8, symSize: 0x180 }
  - { offset: 0x119B45, size: 0x8, addend: 0x0, symName: __ZN4jiff6shared4util5itime9IEpochDay7to_date17hfb3047ff742e47f8E, symObjAddr: 0x83EC, symBinAddr: 0x4E828, symSize: 0x34C }
  - { offset: 0x11B99D, size: 0x8, addend: 0x0, symName: __ZN4core4char7methods15encode_utf8_raw17h913e993ad2b31864E, symObjAddr: 0x1644, symBinAddr: 0x4EDD8, symSize: 0x100 }
  - { offset: 0x11BABE, size: 0x8, addend: 0x0, symName: '__ZN4core4char7methods22_$LT$impl$u20$char$GT$11encode_utf817ha60214c48dccc994E', symObjAddr: 0x1744, symBinAddr: 0x4EED8, symSize: 0x38 }
  - { offset: 0x11BB1A, size: 0x8, addend: 0x0, symName: __ZN4core4char7methods25encode_utf8_raw_unchecked17h904c33bdb3e7c60eE, symObjAddr: 0x1C10, symBinAddr: 0x4EF10, symSize: 0x188 }
  - { offset: 0x11BCD0, size: 0x8, addend: 0x0, symName: __ZN4core4hint16assert_unchecked18precondition_check17h6a3dcbefd67f37b4E, symObjAddr: 0x1E0C, symBinAddr: 0x4F098, symSize: 0x58 }
  - { offset: 0x11BD1B, size: 0x8, addend: 0x0, symName: __ZN4core4hint21unreachable_unchecked18precondition_check17h2f9d766e5d71e738E, symObjAddr: 0x1E64, symBinAddr: 0x4F0F0, symSize: 0x3C }
  - { offset: 0x11C320, size: 0x8, addend: 0x0, symName: '__ZN4jiff3fmt8temporal7printer15DateTimePrinter14print_time_buf28_$u7b$$u7b$closure$u7d$$u7d$17hde55df6bc617afd3E', symObjAddr: 0x6C20, symBinAddr: 0x4F47C, symSize: 0x1C }
  - { offset: 0x11C366, size: 0x8, addend: 0x0, symName: '__ZN4jiff3fmt8temporal7printer15DateTimePrinter15print_timestamp28_$u7b$$u7b$closure$u7d$$u7d$17h3748483389b112eaE', symObjAddr: 0x711C, symBinAddr: 0x4F5A4, symSize: 0x44 }
  - { offset: 0x1214FC, size: 0x8, addend: 0x0, symName: '__ZN108_$LT$jiff..signed_duration..SignedDuration$u20$as$u20$core..convert..TryFrom$LT$core..time..Duration$GT$$GT$8try_from17hc6754b507d292464E', symObjAddr: 0xFC, symBinAddr: 0x4EC18, symSize: 0x114 }
  - { offset: 0x1215C1, size: 0x8, addend: 0x0, symName: '__ZN108_$LT$jiff..signed_duration..SignedDuration$u20$as$u20$core..convert..TryFrom$LT$core..time..Duration$GT$$GT$8try_from28_$u7b$$u7b$closure$u7d$$u7d$17h0ddeef9ef2aed554E', symObjAddr: 0x210, symBinAddr: 0x4ED2C, symSize: 0x1C }
  - { offset: 0x12230F, size: 0x8, addend: 0x0, symName: __ZN4core3fmt9Arguments3new17h4689b3e4c7152abeE, symObjAddr: 0xD58, symBinAddr: 0x4ED48, symSize: 0x1C }
  - { offset: 0x122516, size: 0x8, addend: 0x0, symName: __ZN4core3fmt9Arguments3new17h9209c9509024a34eE, symObjAddr: 0xFA4, symBinAddr: 0x4ED64, symSize: 0x1C }
  - { offset: 0x122750, size: 0x8, addend: 0x0, symName: __ZN4core3fmt9Arguments3new17hcb44fe0024b71475E, symObjAddr: 0x1228, symBinAddr: 0x4ED80, symSize: 0x1C }
  - { offset: 0x1228EE, size: 0x8, addend: 0x0, symName: __ZN4core3fmt9Arguments3new17hfcd76f68d2ef6d18E, symObjAddr: 0x1404, symBinAddr: 0x4ED9C, symSize: 0x1C }
  - { offset: 0x12293A, size: 0x8, addend: 0x0, symName: __ZN4core3fmt9Arguments8from_str17he5365b9945530ff7E, symObjAddr: 0x143C, symBinAddr: 0x4EDB8, symSize: 0x20 }
  - { offset: 0x1229BA, size: 0x8, addend: 0x0, symName: __ZN4core4time8Duration12subsec_nanos17hafa56f198ab1b507E, symObjAddr: 0x20B0, symBinAddr: 0x4F12C, symSize: 0x18 }
  - { offset: 0x1229DD, size: 0x8, addend: 0x0, symName: __ZN4core4time8Duration7as_secs17hef05cc42f3b3bbf3E, symObjAddr: 0x21EC, symBinAddr: 0x4F144, symSize: 0x18 }
  - { offset: 0x122A28, size: 0x8, addend: 0x0, symName: __ZN4jiff15signed_duration14SignedDuration12subsec_nanos17h21f23e0040a8063dE, symObjAddr: 0x32B4, symBinAddr: 0x4F15C, symSize: 0x18 }
  - { offset: 0x122B14, size: 0x8, addend: 0x0, symName: __ZN4jiff15signed_duration14SignedDuration13new_unchecked17hca0ab020b89db128E, symObjAddr: 0x3538, symBinAddr: 0x4F174, symSize: 0x94 }
  - { offset: 0x122B89, size: 0x8, addend: 0x0, symName: __ZN4jiff15signed_duration14SignedDuration7as_secs17hd524862ed6295dfdE, symObjAddr: 0x4CA4, symBinAddr: 0x4F208, symSize: 0x18 }
  - { offset: 0x122C4F, size: 0x8, addend: 0x0, symName: __ZN4jiff3fmt8temporal7printer15DateTimePrinter14print_date_buf17h725839aaa612223aE, symObjAddr: 0x6660, symBinAddr: 0x4F220, symSize: 0x100 }
  - { offset: 0x122CC0, size: 0x8, addend: 0x0, symName: __ZN4jiff3fmt8temporal7printer15DateTimePrinter14print_time_buf17h592731ba122f9953E, symObjAddr: 0x6AC4, symBinAddr: 0x4F320, symSize: 0x15C }
  - { offset: 0x122D17, size: 0x8, addend: 0x0, symName: __ZN4jiff3fmt8temporal7printer15DateTimePrinter14print_zulu_buf17h2cb14346665ecafcE, symObjAddr: 0x6F4C, symBinAddr: 0x4F498, symSize: 0x58 }
  - { offset: 0x122D63, size: 0x8, addend: 0x0, symName: __ZN4jiff3fmt8temporal7printer15DateTimePrinter15print_timestamp17h10ff5ac2e1dab756E, symObjAddr: 0x7068, symBinAddr: 0x4F4F0, symSize: 0xB4 }
  - { offset: 0x122DB6, size: 0x8, addend: 0x0, symName: __ZN4jiff3fmt8temporal7printer15DateTimePrinter18print_datetime_buf17hcd4ba41425c073c6E, symObjAddr: 0x78D8, symBinAddr: 0x4F5E8, symSize: 0xE8 }
  - { offset: 0x122E11, size: 0x8, addend: 0x0, symName: __ZN4jiff3fmt8temporal7printer15DateTimePrinter19print_timestamp_buf17hc8609b20666a4bf9E, symObjAddr: 0x7F7C, symBinAddr: 0x4F6D0, symSize: 0x68 }
  - { offset: 0x122E7D, size: 0x8, addend: 0x0, symName: __ZN4jiff3fmt8temporal7printer15DateTimePrinter3new17hfad40635ccf865f8E, symObjAddr: 0x8838, symBinAddr: 0x4F738, symSize: 0x24 }
  - { offset: 0x122E90, size: 0x8, addend: 0x0, symName: __ZN4jiff3fmt8temporal7printer15DateTimePrinter9precision17he5cc558828d67eb4E, symObjAddr: 0x889C, symBinAddr: 0x4F75C, symSize: 0x40 }
  - { offset: 0x122EDE, size: 0x8, addend: 0x0, symName: __ZN4jiff5civil4time4Time16from_itime_const17h22c7e19d8ffdb902E, symObjAddr: 0x8D68, symBinAddr: 0x4F79C, symSize: 0x3C }
  - { offset: 0x122F01, size: 0x8, addend: 0x0, symName: __ZN4jiff5civil4time4Time17subsec_nanosecond17hb1e08300a46126f6E, symObjAddr: 0x8DA4, symBinAddr: 0x4F7D8, symSize: 0x1C }
  - { offset: 0x122F42, size: 0x8, addend: 0x0, symName: __ZN4jiff5civil4time4Time4hour17hb97aeb5a7b044ec2E, symObjAddr: 0x95AC, symBinAddr: 0x4F7F4, symSize: 0x1C }
  - { offset: 0x122F65, size: 0x8, addend: 0x0, symName: __ZN4jiff5civil4time4Time6minute17h1317859ae9bab2caE, symObjAddr: 0x95C8, symBinAddr: 0x4F810, symSize: 0x1C }
  - { offset: 0x122F88, size: 0x8, addend: 0x0, symName: __ZN4jiff5civil4time4Time6second17h8d4ce04440131a17E, symObjAddr: 0x95E4, symBinAddr: 0x4F82C, symSize: 0x1C }
  - { offset: 0x123785, size: 0x8, addend: 0x0, symName: '__ZN4core3ptr9const_ptr33_$LT$impl$u20$$BP$const$u20$T$GT$13is_aligned_to17hd9263d9703af2e3eE', symObjAddr: 0x2308, symBinAddr: 0x50068, symSize: 0x88 }
  - { offset: 0x12380C, size: 0x8, addend: 0x0, symName: '__ZN4core3ptr9const_ptr33_$LT$impl$u20$$BP$const$u20$T$GT$20offset_from_unsigned18precondition_check17h49fa95cc2dbf494cE', symObjAddr: 0x2390, symBinAddr: 0x500F0, symSize: 0x60 }
  - { offset: 0x12394E, size: 0x8, addend: 0x0, symName: '__ZN4core3ptr9const_ptr33_$LT$impl$u20$$BP$const$u20$T$GT$8map_addr17h08b7c66ececf6ef7E', symObjAddr: 0x23F0, symBinAddr: 0x50150, symSize: 0x54 }
  - { offset: 0x123B89, size: 0x8, addend: 0x0, symName: '__ZN4core3ptr9const_ptr33_$LT$impl$u20$$BP$const$u20$T$GT$8map_addr17h1091b1eadceeb14dE', symObjAddr: 0x2498, symBinAddr: 0x501A4, symSize: 0x54 }
  - { offset: 0x123D84, size: 0x8, addend: 0x0, symName: '__ZN100_$LT$core..ops..range..RangeInclusive$LT$T$GT$$u20$as$u20$core..ops..range..RangeBounds$LT$T$GT$$GT$11start_bound17he1d5a97f5de1946dE', symObjAddr: 0x38, symBinAddr: 0x4F848, symSize: 0x1C }
  - { offset: 0x123DBB, size: 0x8, addend: 0x0, symName: '__ZN100_$LT$core..ops..range..RangeInclusive$LT$T$GT$$u20$as$u20$core..ops..range..RangeBounds$LT$T$GT$$GT$9end_bound17h558f5f5443fb1a2fE', symObjAddr: 0x104, symBinAddr: 0x4F864, symSize: 0x58 }
  - { offset: 0x123E22, size: 0x8, addend: 0x0, symName: __ZN4core3ops5range11RangeBounds8contains17h7bc8f8dd76ccd8c5E, symObjAddr: 0x1E0C, symBinAddr: 0x4FD70, symSize: 0x29C }
  - { offset: 0x12418E, size: 0x8, addend: 0x0, symName: '__ZN106_$LT$core..ops..range..Range$LT$usize$GT$$u20$as$u20$core..slice..index..SliceIndex$LT$$u5b$T$u5d$$GT$$GT$13get_unchecked17h6d0546c62aa524b9E', symObjAddr: 0x82C, symBinAddr: 0x4F8BC, symSize: 0x74 }
  - { offset: 0x124220, size: 0x8, addend: 0x0, symName: '__ZN106_$LT$core..ops..range..Range$LT$usize$GT$$u20$as$u20$core..slice..index..SliceIndex$LT$$u5b$T$u5d$$GT$$GT$7get_mut17ha9b6aa62545dafdfE', symObjAddr: 0x8A0, symBinAddr: 0x4F930, symSize: 0xCC }
  - { offset: 0x1242D2, size: 0x8, addend: 0x0, symName: '__ZN106_$LT$core..ops..range..Range$LT$usize$GT$$u20$as$u20$core..slice..index..SliceIndex$LT$$u5b$T$u5d$$GT$$GT$9index_mut17h5163c0912979debdE', symObjAddr: 0x96C, symBinAddr: 0x4F9FC, symSize: 0xBC }
  - { offset: 0x12443C, size: 0x8, addend: 0x0, symName: '__ZN108_$LT$core..ops..range..RangeTo$LT$usize$GT$$u20$as$u20$core..slice..index..SliceIndex$LT$$u5b$T$u5d$$GT$$GT$13get_unchecked17h660801974361abcaE', symObjAddr: 0xAE4, symBinAddr: 0x4FAB8, symSize: 0x50 }
  - { offset: 0x124482, size: 0x8, addend: 0x0, symName: '__ZN108_$LT$core..ops..range..RangeTo$LT$usize$GT$$u20$as$u20$core..slice..index..SliceIndex$LT$$u5b$T$u5d$$GT$$GT$7get_mut17h3648c3f67e3f5aeeE', symObjAddr: 0xB34, symBinAddr: 0x4FB08, symSize: 0x48 }
  - { offset: 0x1244C8, size: 0x8, addend: 0x0, symName: '__ZN108_$LT$core..ops..range..RangeTo$LT$usize$GT$$u20$as$u20$core..slice..index..SliceIndex$LT$$u5b$T$u5d$$GT$$GT$9index_mut17h23b6ac98f9ece1a2E', symObjAddr: 0xB7C, symBinAddr: 0x4FB50, symSize: 0x54 }
  - { offset: 0x12454F, size: 0x8, addend: 0x0, symName: '__ZN110_$LT$core..ops..range..RangeFrom$LT$usize$GT$$u20$as$u20$core..slice..index..SliceIndex$LT$$u5b$T$u5d$$GT$$GT$17get_unchecked_mut17h15115ec4af98abc6E', symObjAddr: 0xEA0, symBinAddr: 0x4FBA4, symSize: 0x70 }
  - { offset: 0x124642, size: 0x8, addend: 0x0, symName: '__ZN97_$LT$core..ops..range..RangeFull$u20$as$u20$core..slice..index..SliceIndex$LT$$u5b$T$u5d$$GT$$GT$9index_mut17hb9f05e48e296eb09E', symObjAddr: 0xC60C, symBinAddr: 0x50480, symSize: 0x18 }
  - { offset: 0x1247CF, size: 0x8, addend: 0x0, symName: __ZN4core3cmp3Ord3max17h2ffc4d1dad35ca53E, symObjAddr: 0x16A4, symBinAddr: 0x4FC14, symSize: 0x74 }
  - { offset: 0x12483D, size: 0x8, addend: 0x0, symName: __ZN4core3cmp3Ord3min17h9712f6af65525b88E, symObjAddr: 0x1804, symBinAddr: 0x4FC88, symSize: 0x74 }
  - { offset: 0x1248A9, size: 0x8, addend: 0x0, symName: __ZN4core3cmp3Ord3min17hdb0e39c4d7a1f012E, symObjAddr: 0x1878, symBinAddr: 0x4FCFC, symSize: 0x74 }
  - { offset: 0x124928, size: 0x8, addend: 0x0, symName: '__ZN4core4iter5range101_$LT$impl$u20$core..iter..traits..iterator..Iterator$u20$for$u20$core..ops..range..Range$LT$A$GT$$GT$4next17hca759853cf4fc4e9E', symObjAddr: 0x2AF4, symBinAddr: 0x501F8, symSize: 0x24 }
  - { offset: 0x124965, size: 0x8, addend: 0x0, symName: '__ZN4core4iter5range116_$LT$impl$u20$core..iter..traits..double_ended..DoubleEndedIterator$u20$for$u20$core..ops..range..Range$LT$A$GT$$GT$9next_back17ha6d819c8df290501E', symObjAddr: 0x2B70, symBinAddr: 0x5021C, symSize: 0x24 }
  - { offset: 0x1249A2, size: 0x8, addend: 0x0, symName: '__ZN89_$LT$core..ops..range..Range$LT$T$GT$$u20$as$u20$core..iter..range..RangeIteratorImpl$GT$14spec_next_back17h8084055cdfdd15d2E', symObjAddr: 0xC2D8, symBinAddr: 0x50360, symSize: 0x8C }
  - { offset: 0x1249FF, size: 0x8, addend: 0x0, symName: '__ZN89_$LT$core..ops..range..Range$LT$T$GT$$u20$as$u20$core..iter..range..RangeIteratorImpl$GT$9spec_next17h04ba49c9c11fbf72E', symObjAddr: 0xC364, symBinAddr: 0x503EC, symSize: 0x94 }
  - { offset: 0x124A8B, size: 0x8, addend: 0x0, symName: __ZN4core4iter6traits8iterator8Iterator3rev17h7173a39f336bf244E, symObjAddr: 0x2B94, symBinAddr: 0x50240, symSize: 0x14 }
  - { offset: 0x124ACE, size: 0x8, addend: 0x0, symName: '__ZN63_$LT$I$u20$as$u20$core..iter..traits..collect..IntoIterator$GT$9into_iter17he221b4ae6fa03407E', symObjAddr: 0xA704, symBinAddr: 0x5034C, symSize: 0x14 }
  - { offset: 0x12A551, size: 0x8, addend: 0x0, symName: '__ZN4core3ops5range25RangeInclusive$LT$Idx$GT$3new17hcc6967a3808cbb8aE', symObjAddr: 0x2254, symBinAddr: 0x5000C, symSize: 0x30 }
  - { offset: 0x12A599, size: 0x8, addend: 0x0, symName: '__ZN4core3ops5range25RangeInclusive$LT$Idx$GT$8contains17hddd64ee50ac344cfE', symObjAddr: 0x22DC, symBinAddr: 0x5003C, symSize: 0x2C }
  - { offset: 0x12A5E4, size: 0x8, addend: 0x0, symName: __ZN4jiff5civil8datetime8DateTime10from_parts17h4d445c0ed44627fcE, symObjAddr: 0x87B4, symBinAddr: 0x50254, symSize: 0x38 }
  - { offset: 0x12A630, size: 0x8, addend: 0x0, symName: __ZN4jiff5civil8datetime8DateTime20from_idatetime_const17h27aa7324f780b92fE, symObjAddr: 0x9114, symBinAddr: 0x5028C, symSize: 0x90 }
  - { offset: 0x12A654, size: 0x8, addend: 0x0, symName: __ZN4jiff5civil8datetime8DateTime4date17h97ffbf1ec61a0f77E, symObjAddr: 0x955C, symBinAddr: 0x5031C, symSize: 0x18 }
  - { offset: 0x12A678, size: 0x8, addend: 0x0, symName: __ZN4jiff5civil8datetime8DateTime4time17h7725fb12d61d4fefE, symObjAddr: 0x95C4, symBinAddr: 0x50334, symSize: 0x18 }
  - { offset: 0x12B1F2, size: 0x8, addend: 0x0, symName: '__ZN48_$LT$$RF$A$u20$as$u20$core..alloc..Allocator$GT$10deallocate17hfe39f8c43700c1faE', symObjAddr: 0xC58, symBinAddr: 0x5055C, symSize: 0x38 }
  - { offset: 0x12B2D1, size: 0x8, addend: 0x0, symName: '__ZN4core7convert3num18ptr_try_from_impls68_$LT$impl$u20$core..convert..TryFrom$LT$usize$GT$$u20$for$u20$u8$GT$8try_from17he716eee008d7a252E', symObjAddr: 0xD58, symBinAddr: 0x50594, symSize: 0x60 }
  - { offset: 0x12B329, size: 0x8, addend: 0x0, symName: '__ZN50_$LT$T$u20$as$u20$core..convert..Into$LT$U$GT$$GT$4into17h56581d0e58167f89E', symObjAddr: 0xA290, symBinAddr: 0x515E0, symSize: 0x20 }
  - { offset: 0x12F679, size: 0x8, addend: 0x0, symName: '__ZN78_$LT$jiff..error..signed_duration..Error$u20$as$u20$jiff..error..IntoError$GT$10into_error17h9c3519d5f9af73e8E', symObjAddr: 0xC978, symBinAddr: 0x5189C, symSize: 0x28 }
  - { offset: 0x130B90, size: 0x8, addend: 0x0, symName: '__ZN149_$LT$jiff..fmt..buffer..BorrowedBuffer$u20$as$u20$core..convert..From$LT$$RF$mut$u20$$u5b$core..mem..maybe_uninit..MaybeUninit$LT$u8$GT$$u5d$$GT$$GT$4from17h3eee5b4b36b3dda0E', symObjAddr: 0x6F4, symBinAddr: 0x50498, symSize: 0x8C }
  - { offset: 0x130C00, size: 0x8, addend: 0x0, symName: '__ZN160_$LT$jiff..fmt..buffer..BorrowedBuffer$u20$as$u20$core..convert..From$LT$$RF$mut$u20$$u5b$core..mem..maybe_uninit..MaybeUninit$LT$u8$GT$$u3b$$u20$N$u5d$$GT$$GT$4from17hf80c0fed9cf04b71E', symObjAddr: 0xB00, symBinAddr: 0x50524, symSize: 0x38 }
  - { offset: 0x13124A, size: 0x8, addend: 0x0, symName: '__ZN4jiff3fmt6buffer14BorrowedBuffer14write_fraction28_$u7b$$u7b$closure$u7d$$u7d$17h09c18643a74539b3E', symObjAddr: 0x7060, symBinAddr: 0x50ADC, symSize: 0x24 }
  - { offset: 0x131283, size: 0x8, addend: 0x0, symName: '__ZN4jiff3fmt6buffer14BorrowedBuffer14write_fraction28_$u7b$$u7b$closure$u7d$$u7d$17hc6b699e2eaba6e1fE', symObjAddr: 0x7084, symBinAddr: 0x50B00, symSize: 0x108 }
  - { offset: 0x131356, size: 0x8, addend: 0x0, symName: '__ZN82_$LT$jiff..fmt..buffer..ArrayBuffer$LT$_$GT$$u20$as$u20$core..default..Default$GT$7default17h3255aa66fd295491E', symObjAddr: 0xC9EC, symBinAddr: 0x518C4, symSize: 0x2C }
  - { offset: 0x131373, size: 0x8, addend: 0x0, symName: '__ZN82_$LT$jiff..fmt..buffer..ArrayBuffer$LT$_$GT$$u20$as$u20$core..default..Default$GT$7default17h9de2c77f3f131f37E', symObjAddr: 0xCB8C, symBinAddr: 0x518F0, symSize: 0x20 }
  - { offset: 0x1319BC, size: 0x8, addend: 0x0, symName: '__ZN63_$LT$alloc..alloc..Global$u20$as$u20$core..alloc..Allocator$GT$10deallocate17hfcab3e1903272535E', symObjAddr: 0xA828, symBinAddr: 0x51844, symSize: 0x58 }
  - { offset: 0x131A49, size: 0x8, addend: 0x0, symName: __ZN5alloc5alloc15exchange_malloc17haf9c533fc559ee83E, symObjAddr: 0xA338, symBinAddr: 0x51600, symSize: 0xAC }
  - { offset: 0x131DD2, size: 0x8, addend: 0x0, symName: __ZN4jiff2tz6offset6Offset11to_datetime17h453b3fe9251e8f2bE, symObjAddr: 0x4664, symBinAddr: 0x505F4, symSize: 0x74 }
  - { offset: 0x131E11, size: 0x8, addend: 0x0, symName: __ZN4jiff2tz6offset6Offset7seconds17h80ccfd490571255cE, symObjAddr: 0x4D48, symBinAddr: 0x50668, symSize: 0x10 }
  - { offset: 0x131F0C, size: 0x8, addend: 0x0, symName: __ZN4jiff3fmt6buffer14BorrowedBuffer11with_writer17h65d5d808fc445bf9E, symObjAddr: 0x5B2C, symBinAddr: 0x50678, symSize: 0x250 }
  - { offset: 0x13201D, size: 0x8, addend: 0x0, symName: __ZN4jiff3fmt6buffer14BorrowedBuffer14write_fraction17h4dff90d11af9a01aE, symObjAddr: 0x6E4C, symBinAddr: 0x508C8, symSize: 0x214 }
  - { offset: 0x132113, size: 0x8, addend: 0x0, symName: __ZN4jiff3fmt6buffer14BorrowedBuffer14write_int_pad217he1429667d699049aE, symObjAddr: 0x7554, symBinAddr: 0x50C08, symSize: 0x1FC }
  - { offset: 0x1321DE, size: 0x8, addend: 0x0, symName: __ZN4jiff3fmt6buffer14BorrowedBuffer14write_int_pad417h655bbc8681fa1786E, symObjAddr: 0x7750, symBinAddr: 0x50E04, symSize: 0x32C }
  - { offset: 0x13230F, size: 0x8, addend: 0x0, symName: __ZN4jiff3fmt6buffer14BorrowedBuffer16write_ascii_char17h7cbf887e457c1da8E, symObjAddr: 0x7DA8, symBinAddr: 0x51130, symSize: 0xCC }
  - { offset: 0x13237E, size: 0x8, addend: 0x0, symName: __ZN4jiff3fmt6buffer14BorrowedBuffer23from_vec_spare_capacity17h5766a9eb907e5789E, symObjAddr: 0x80D4, symBinAddr: 0x511FC, symSize: 0x7C }
  - { offset: 0x1323FF, size: 0x8, addend: 0x0, symName: __ZN4jiff3fmt6buffer14BorrowedBuffer23with_vec_spare_capacity17h0477a5591b79a633E, symObjAddr: 0x8150, symBinAddr: 0x51278, symSize: 0xC4 }
  - { offset: 0x132490, size: 0x8, addend: 0x0, symName: __ZN4jiff3fmt6buffer14BorrowedBuffer3len17h3e088d270b97da97E, symObjAddr: 0x88F4, symBinAddr: 0x5133C, symSize: 0x24 }
  - { offset: 0x1324B3, size: 0x8, addend: 0x0, symName: __ZN4jiff3fmt6buffer14BorrowedBuffer6filled17hbf440cdf0dd60bfcE, symObjAddr: 0x8930, symBinAddr: 0x51360, symSize: 0x94 }
  - { offset: 0x1324F4, size: 0x8, addend: 0x0, symName: __ZN4jiff3fmt6buffer14BorrowedBuffer9available17hd10192aa8a42a848E, symObjAddr: 0x89DC, symBinAddr: 0x513F4, symSize: 0x4C }
  - { offset: 0x132517, size: 0x8, addend: 0x0, symName: __ZN4jiff3fmt6buffer14BorrowedBuffer9write_str17h7d4f69942b8c01f7E, symObjAddr: 0x90A8, symBinAddr: 0x51440, symSize: 0x128 }
  - { offset: 0x132577, size: 0x8, addend: 0x0, symName: '__ZN4jiff3fmt6buffer20ArrayBuffer$LT$_$GT$11as_borrowed17h20386db236a6ca0aE', symObjAddr: 0x9E94, symBinAddr: 0x51568, symSize: 0x24 }
  - { offset: 0x1325B3, size: 0x8, addend: 0x0, symName: '__ZN4jiff3fmt6buffer20ArrayBuffer$LT$_$GT$11assume_init17h2aaf32f19654af8aE', symObjAddr: 0xA0F8, symBinAddr: 0x5158C, symSize: 0x54 }
  - { offset: 0x13276E, size: 0x8, addend: 0x0, symName: __ZN5alloc5alloc6Global10alloc_impl17h5d6cd66629368cf8E, symObjAddr: 0xA3E4, symBinAddr: 0x516AC, symSize: 0x198 }
  - { offset: 0x132FAD, size: 0x8, addend: 0x0, symName: __ZN4core3ptr19copy_nonoverlapping18precondition_check17h2f10c8842f2bba7aE, symObjAddr: 0x1D4, symBinAddr: 0x51910, symSize: 0x168 }
  - { offset: 0x13352D, size: 0x8, addend: 0x0, symName: '__ZN4core5slice29_$LT$impl$u20$$u5b$T$u5d$$GT$13get_unchecked17hd8785feaf8d67f44E', symObjAddr: 0x820, symBinAddr: 0x51B24, symSize: 0x44 }
  - { offset: 0x1335A4, size: 0x8, addend: 0x0, symName: __ZN4core5slice20copy_from_slice_impl17ha48c03656c25964aE, symObjAddr: 0x33C, symBinAddr: 0x51A78, symSize: 0xAC }
  - { offset: 0x133F8F, size: 0x8, addend: 0x0, symName: '__ZN77_$LT$alloc..raw_vec..RawVec$LT$T$C$A$GT$$u20$as$u20$core..ops..drop..Drop$GT$4drop17h596002a36b01b7c5E', symObjAddr: 0xA7F8, symBinAddr: 0x51C58, symSize: 0x34 }
  - { offset: 0x133FCB, size: 0x8, addend: 0x0, symName: '__ZN77_$LT$alloc..raw_vec..RawVec$LT$T$C$A$GT$$u20$as$u20$core..ops..drop..Drop$GT$4drop17hbb312140f95acd66E', symObjAddr: 0xA82C, symBinAddr: 0x51C8C, symSize: 0x30 }
  - { offset: 0x134007, size: 0x8, addend: 0x0, symName: '__ZN77_$LT$alloc..raw_vec..RawVec$LT$T$C$A$GT$$u20$as$u20$core..ops..drop..Drop$GT$4drop17hdd9a3bd36acc9946E', symObjAddr: 0xA85C, symBinAddr: 0x51CBC, symSize: 0x34 }
  - { offset: 0x134043, size: 0x8, addend: 0x0, symName: '__ZN77_$LT$alloc..raw_vec..RawVec$LT$T$C$A$GT$$u20$as$u20$core..ops..drop..Drop$GT$4drop17hf1b0a4df49c5b5abE', symObjAddr: 0xA890, symBinAddr: 0x51CF0, symSize: 0x30 }
  - { offset: 0x134095, size: 0x8, addend: 0x0, symName: '__ZN87_$LT$T$u20$as$u20$alloc..slice..$LT$impl$u20$$u5b$T$u5d$$GT$..to_vec_in..ConvertVec$GT$6to_vec17hf4ca96fc56c87f7eE', symObjAddr: 0xA9B8, symBinAddr: 0x51D20, symSize: 0xF4 }
  - { offset: 0x1344AA, size: 0x8, addend: 0x0, symName: '__ZN5alloc7raw_vec20RawVecInner$LT$A$GT$16with_capacity_in17hf10cb4314743e9d3E', symObjAddr: 0x888C, symBinAddr: 0x51B68, symSize: 0xF0 }
  - { offset: 0x134C36, size: 0x8, addend: 0x0, symName: '__ZN70_$LT$core..num..error..TryFromIntError$u20$as$u20$core..fmt..Debug$GT$3fmt17h4de9aebca01f49d0E', symObjAddr: 0xB77C, symBinAddr: 0x51EC4, symSize: 0x54 }
  - { offset: 0x13533A, size: 0x8, addend: 0x0, symName: __ZN4core3fmt2rt8Argument11new_display17h0af7ed2224f3aca4E, symObjAddr: 0x698, symBinAddr: 0x51E14, symSize: 0x2C }
  - { offset: 0x13539A, size: 0x8, addend: 0x0, symName: __ZN4core3fmt2rt8Argument11new_display17h45c566eb7d10216aE, symObjAddr: 0x774, symBinAddr: 0x51E40, symSize: 0x2C }
  - { offset: 0x1353D2, size: 0x8, addend: 0x0, symName: __ZN4core3fmt2rt8Argument11new_display17h49a6cdfc5f664e9eE, symObjAddr: 0x7A0, symBinAddr: 0x51E6C, symSize: 0x2C }
  - { offset: 0x135472, size: 0x8, addend: 0x0, symName: __ZN4core3fmt2rt8Argument11new_display17h7ba6921d9a9c8f16E, symObjAddr: 0x8A8, symBinAddr: 0x51E98, symSize: 0x2C }
  - { offset: 0x135E1C, size: 0x8, addend: 0x0, symName: '__ZN63_$LT$I$u20$as$u20$core..iter..traits..collect..IntoIterator$GT$9into_iter17h81807bb09621c319E', symObjAddr: 0xC5F8, symBinAddr: 0x52158, symSize: 0x14 }
  - { offset: 0x135E65, size: 0x8, addend: 0x0, symName: '__ZN98_$LT$core..iter..adapters..rev..Rev$LT$I$GT$$u20$as$u20$core..iter..traits..iterator..Iterator$GT$4next17h5d0caad3690a6794E', symObjAddr: 0xCD60, symBinAddr: 0x52384, symSize: 0x24 }
  - { offset: 0x135ED0, size: 0x8, addend: 0x0, symName: '__ZN106_$LT$core..ops..range..Range$LT$usize$GT$$u20$as$u20$core..slice..index..SliceIndex$LT$$u5b$T$u5d$$GT$$GT$13get_unchecked18precondition_check17h541ee90222c6bd17E', symObjAddr: 0x24, symBinAddr: 0x51F18, symSize: 0x80 }
  - { offset: 0x135F37, size: 0x8, addend: 0x0, symName: '__ZN106_$LT$core..ops..range..Range$LT$usize$GT$$u20$as$u20$core..slice..index..SliceIndex$LT$$u5b$T$u5d$$GT$$GT$17get_unchecked_mut18precondition_check17h04c028a1f7a40109E', symObjAddr: 0xA4, symBinAddr: 0x51F98, symSize: 0x80 }
  - { offset: 0x135F9F, size: 0x8, addend: 0x0, symName: '__ZN75_$LT$usize$u20$as$u20$core..slice..index..SliceIndex$LT$$u5b$T$u5d$$GT$$GT$13get_unchecked17h1d39aed4489309d1E', symObjAddr: 0xC8D0, symBinAddr: 0x5216C, symSize: 0x58 }
  - { offset: 0x135FE7, size: 0x8, addend: 0x0, symName: '__ZN75_$LT$usize$u20$as$u20$core..slice..index..SliceIndex$LT$$u5b$T$u5d$$GT$$GT$13get_unchecked18precondition_check17hcbe69c7d7551b5e9E', symObjAddr: 0xC928, symBinAddr: 0x521C4, symSize: 0x60 }
  - { offset: 0x13603B, size: 0x8, addend: 0x0, symName: '__ZN75_$LT$usize$u20$as$u20$core..slice..index..SliceIndex$LT$$u5b$T$u5d$$GT$$GT$17get_unchecked_mut17h8cc346c3d70677b5E', symObjAddr: 0xC988, symBinAddr: 0x52224, symSize: 0x58 }
  - { offset: 0x136086, size: 0x8, addend: 0x0, symName: '__ZN75_$LT$usize$u20$as$u20$core..slice..index..SliceIndex$LT$$u5b$T$u5d$$GT$$GT$17get_unchecked_mut18precondition_check17h192fc2d470afc5cdE', symObjAddr: 0xC9E0, symBinAddr: 0x5227C, symSize: 0x60 }
  - { offset: 0x1360DA, size: 0x8, addend: 0x0, symName: '__ZN75_$LT$usize$u20$as$u20$core..slice..index..SliceIndex$LT$$u5b$T$u5d$$GT$$GT$5index17h17372a5bb8b50512E', symObjAddr: 0xCB34, symBinAddr: 0x522DC, symSize: 0x5C }
  - { offset: 0x136120, size: 0x8, addend: 0x0, symName: '__ZN75_$LT$usize$u20$as$u20$core..slice..index..SliceIndex$LT$$u5b$T$u5d$$GT$$GT$7get_mut17ha93ef16737f81f66E', symObjAddr: 0xCBEC, symBinAddr: 0x52338, symSize: 0x4C }
  - { offset: 0x136207, size: 0x8, addend: 0x0, symName: '__ZN4core3str6traits54_$LT$impl$u20$core..cmp..PartialEq$u20$for$u20$str$GT$2eq17h10c572c1146c83c9E', symObjAddr: 0x428, symBinAddr: 0x52018, symSize: 0xA0 }
  - { offset: 0x13BF36, size: 0x8, addend: 0x0, symName: __ZN4jiff3fmt8temporal15DateTimePrinter15print_timestamp17h45598aaa23816834E, symObjAddr: 0xBCB4, symBinAddr: 0x520B8, symSize: 0x6C }
  - { offset: 0x13BF8D, size: 0x8, addend: 0x0, symName: __ZN4jiff3fmt8temporal15DateTimePrinter3new17h8335dd577f1ac522E, symObjAddr: 0xC4E4, symBinAddr: 0x52124, symSize: 0x34 }
  - { offset: 0x13C183, size: 0x8, addend: 0x0, symName: '__ZN72_$LT$jiff..tz..timezone..repr..Repr$u20$as$u20$core..ops..drop..Drop$GT$4drop17he4350581902ec2e1E', symObjAddr: 0xD9BC, symBinAddr: 0x5257C, symSize: 0xC4 }
  - { offset: 0x13C1EE, size: 0x8, addend: 0x0, symName: '__ZN72_$LT$jiff..tz..timezone..repr..Repr$u20$as$u20$core..ops..drop..Drop$GT$4drop28_$u7b$$u7b$closure$u7d$$u7d$17h8c6fe59c4d69fd72E', symObjAddr: 0xDA80, symBinAddr: 0x52640, symSize: 0x14 }
  - { offset: 0x13C227, size: 0x8, addend: 0x0, symName: '__ZN72_$LT$jiff..tz..timezone..repr..Repr$u20$as$u20$core..ops..drop..Drop$GT$4drop28_$u7b$$u7b$closure$u7d$$u7d$17he69788e994cb7bfeE', symObjAddr: 0xDA94, symBinAddr: 0x52654, symSize: 0x14 }
  - { offset: 0x13CD2D, size: 0x8, addend: 0x0, symName: '__ZN4core3ptr8non_null16NonNull$LT$T$GT$13new_unchecked18precondition_check17hb7d80847886b063bE', symObjAddr: 0x7E0, symBinAddr: 0x523A8, symSize: 0x58 }
  - { offset: 0x13CE4D, size: 0x8, addend: 0x0, symName: __ZN4core3ptr9alignment9Alignment13new_unchecked18precondition_check17haa369d46945b38eaE, symObjAddr: 0x8B4, symBinAddr: 0x5247C, symSize: 0x70 }
  - { offset: 0x13CFAC, size: 0x8, addend: 0x0, symName: __ZN4core5alloc6layout6Layout25from_size_align_unchecked18precondition_check17h14b65bd7d4ead7eaE, symObjAddr: 0xA14, symBinAddr: 0x524EC, symSize: 0x70 }
  - { offset: 0x13D3B7, size: 0x8, addend: 0x0, symName: '__ZN4core3ptr8non_null16NonNull$LT$T$GT$20offset_from_unsigned17hf819a70b9ebb0eabE', symObjAddr: 0x838, symBinAddr: 0x52400, symSize: 0x7C }
  - { offset: 0x13D594, size: 0x8, addend: 0x0, symName: __ZN4jiff2tz8timezone4repr4Repr3tag17h37e210ffb79dff70E, symObjAddr: 0xDD0, symBinAddr: 0x5255C, symSize: 0x20 }
  - { offset: 0x13DD68, size: 0x8, addend: 0x0, symName: __ZN4core5slice3raw14from_raw_parts17h4b44b472a0600e4fE, symObjAddr: 0x464, symBinAddr: 0x52668, symSize: 0x58 }
  - { offset: 0x13DDAB, size: 0x8, addend: 0x0, symName: __ZN4core5slice3raw14from_raw_parts17h7f5002a3116e5a16E, symObjAddr: 0x4BC, symBinAddr: 0x526C0, symSize: 0x58 }
  - { offset: 0x13DDF3, size: 0x8, addend: 0x0, symName: __ZN4core5slice3raw14from_raw_parts18precondition_check17hf6e79a8dc744b4e1E, symObjAddr: 0x514, symBinAddr: 0x52718, symSize: 0x10C }
  - { offset: 0x13DF0F, size: 0x8, addend: 0x0, symName: __ZN4core5slice3raw18from_raw_parts_mut18precondition_check17hf62c99c1810c96b2E, symObjAddr: 0x678, symBinAddr: 0x52824, symSize: 0x10C }
  - { offset: 0x13EAC9, size: 0x8, addend: 0x0, symName: '__ZN5alloc3vec16Vec$LT$T$C$A$GT$7set_len18precondition_check17h04e8494046a353a3E', symObjAddr: 0x7EA4, symBinAddr: 0x52AC4, symSize: 0x60 }
  - { offset: 0x13EB23, size: 0x8, addend: 0x0, symName: '__ZN70_$LT$alloc..vec..Vec$LT$T$C$A$GT$$u20$as$u20$core..ops..drop..Drop$GT$4drop17h006b8a5441ea2b51E', symObjAddr: 0x9214, symBinAddr: 0x52B8C, symSize: 0x24 }
  - { offset: 0x13EBD3, size: 0x8, addend: 0x0, symName: '__ZN70_$LT$alloc..vec..Vec$LT$T$C$A$GT$$u20$as$u20$core..ops..drop..Drop$GT$4drop17h35081f7f72c89a65E', symObjAddr: 0x9238, symBinAddr: 0x52BB0, symSize: 0x24 }
  - { offset: 0x13EC83, size: 0x8, addend: 0x0, symName: '__ZN70_$LT$alloc..vec..Vec$LT$T$C$A$GT$$u20$as$u20$core..ops..drop..Drop$GT$4drop17hd348c28905f7f1adE', symObjAddr: 0x925C, symBinAddr: 0x52BD4, symSize: 0x24 }
  - { offset: 0x13ED33, size: 0x8, addend: 0x0, symName: '__ZN70_$LT$alloc..vec..Vec$LT$T$C$A$GT$$u20$as$u20$core..ops..drop..Drop$GT$4drop17hdb9545dac7307f73E', symObjAddr: 0x9280, symBinAddr: 0x52BF8, symSize: 0x24 }
  - { offset: 0x13EDE9, size: 0x8, addend: 0x0, symName: '__ZN72_$LT$alloc..vec..Vec$LT$T$C$A$GT$$u20$as$u20$core..ops..deref..Deref$GT$5deref17h99cec7abcd246185E', symObjAddr: 0x9F68, symBinAddr: 0x52C1C, symSize: 0x24 }
  - { offset: 0x13EE5F, size: 0x8, addend: 0x0, symName: '__ZN81_$LT$alloc..vec..Vec$LT$T$C$A$GT$$u20$as$u20$core..ops..index..Index$LT$I$GT$$GT$5index17hf026cce0118e3a9cE', symObjAddr: 0xB978, symBinAddr: 0x52C40, symSize: 0x88 }
  - { offset: 0x13F662, size: 0x8, addend: 0x0, symName: '__ZN5alloc3str56_$LT$impl$u20$alloc..borrow..ToOwned$u20$for$u20$str$GT$8to_owned17h58af4ac1c4b5ece1E', symObjAddr: 0x76AC, symBinAddr: 0x52930, symSize: 0x50 }
  - { offset: 0x13FA8C, size: 0x8, addend: 0x0, symName: '__ZN5alloc3vec16Vec$LT$T$C$A$GT$18spare_capacity_mut17h98cca3406b9356ebE', symObjAddr: 0x7CA8, symBinAddr: 0x52980, symSize: 0xBC }
  - { offset: 0x13FBC3, size: 0x8, addend: 0x0, symName: '__ZN5alloc3vec16Vec$LT$T$C$A$GT$3len17h331baa285d965c14E', symObjAddr: 0x7D64, symBinAddr: 0x52A3C, symSize: 0x18 }
  - { offset: 0x13FC7D, size: 0x8, addend: 0x0, symName: '__ZN5alloc3vec16Vec$LT$T$C$A$GT$7set_len17h59e7739c25399ddbE', symObjAddr: 0x7E34, symBinAddr: 0x52A54, symSize: 0x70 }
  - { offset: 0x13FDDC, size: 0x8, addend: 0x0, symName: '__ZN5alloc3vec16Vec$LT$T$C$A$GT$8as_slice17hb32ed0b0ff48726eE', symObjAddr: 0x7F04, symBinAddr: 0x52B24, symSize: 0x68 }
  - { offset: 0x146C23, size: 0x8, addend: 0x0, symName: '__ZN49_$LT$usize$u20$as$u20$core..iter..range..Step$GT$17forward_unchecked17h49ade553cb3dc62dE', symObjAddr: 0x104, symBinAddr: 0x52CC8, symSize: 0x50 }
  - { offset: 0x146C82, size: 0x8, addend: 0x0, symName: '__ZN49_$LT$usize$u20$as$u20$core..iter..range..Step$GT$18backward_unchecked17he447ff27d5bc826bE', symObjAddr: 0x154, symBinAddr: 0x52D18, symSize: 0x50 }
  - { offset: 0x146EFD, size: 0x8, addend: 0x0, symName: '__ZN4core5slice29_$LT$impl$u20$$u5b$T$u5d$$GT$13get_unchecked17he6889381c1f4c32dE', symObjAddr: 0x7C0, symBinAddr: 0x52E54, symSize: 0x44 }
  - { offset: 0x146F4C, size: 0x8, addend: 0x0, symName: '__ZN4core5slice29_$LT$impl$u20$$u5b$T$u5d$$GT$15copy_from_slice17hdf031b3bb4938705E', symObjAddr: 0x804, symBinAddr: 0x52E98, symSize: 0x34 }
  - { offset: 0x146F8E, size: 0x8, addend: 0x0, symName: '__ZN4core5slice29_$LT$impl$u20$$u5b$T$u5d$$GT$17get_unchecked_mut17h9fb7e866e1c223b9E', symObjAddr: 0x838, symBinAddr: 0x52ECC, symSize: 0x44 }
  - { offset: 0x146FDD, size: 0x8, addend: 0x0, symName: '__ZN4core5slice29_$LT$impl$u20$$u5b$T$u5d$$GT$17get_unchecked_mut17ha9ad63268c3e9923E', symObjAddr: 0x87C, symBinAddr: 0x52F10, symSize: 0x44 }
  - { offset: 0x14702C, size: 0x8, addend: 0x0, symName: '__ZN4core5slice29_$LT$impl$u20$$u5b$T$u5d$$GT$7get_mut17h1803004afbdd607aE', symObjAddr: 0x8C0, symBinAddr: 0x52F54, symSize: 0x44 }
  - { offset: 0x14707B, size: 0x8, addend: 0x0, symName: '__ZN4core5slice29_$LT$impl$u20$$u5b$T$u5d$$GT$7get_mut17hbb651b58de254105E', symObjAddr: 0x904, symBinAddr: 0x52F98, symSize: 0x44 }
  - { offset: 0x147150, size: 0x8, addend: 0x0, symName: '__ZN4core5array85_$LT$impl$u20$core..ops..index..Index$LT$I$GT$$u20$for$u20$$u5b$T$u3b$$u20$N$u5d$$GT$5index17h016d1c6e681cdb4cE', symObjAddr: 0x314, symBinAddr: 0x52D68, symSize: 0xB0 }
  - { offset: 0x147247, size: 0x8, addend: 0x0, symName: '__ZN4core5array88_$LT$impl$u20$core..ops..index..IndexMut$LT$I$GT$$u20$for$u20$$u5b$T$u3b$$u20$N$u5d$$GT$9index_mut17h43191cfe6cfb75ecE', symObjAddr: 0x568, symBinAddr: 0x52E18, symSize: 0x3C }
  - { offset: 0x14762B, size: 0x8, addend: 0x0, symName: __ZN5alloc4sync11data_offset17h8b7aa8da05912104E, symObjAddr: 0x868C, symBinAddr: 0x52FDC, symSize: 0xAC }
  - { offset: 0x1477A3, size: 0x8, addend: 0x0, symName: __ZN5alloc4sync11data_offset17ha69faf93e7aa5e80E, symObjAddr: 0x8738, symBinAddr: 0x53088, symSize: 0xAC }
  - { offset: 0x147D44, size: 0x8, addend: 0x0, symName: '__ZN71_$LT$alloc..sync..Arc$LT$T$C$A$GT$$u20$as$u20$core..ops..drop..Drop$GT$4drop17h170c6ee9154c7c37E', symObjAddr: 0x9BF8, symBinAddr: 0x535DC, symSize: 0x7C }
  - { offset: 0x147E1D, size: 0x8, addend: 0x0, symName: '__ZN71_$LT$alloc..sync..Arc$LT$T$C$A$GT$$u20$as$u20$core..ops..drop..Drop$GT$4drop17h8fb9c8dc164346eeE', symObjAddr: 0x9C74, symBinAddr: 0x53658, symSize: 0x7C }
  - { offset: 0x147EF6, size: 0x8, addend: 0x0, symName: '__ZN71_$LT$alloc..sync..Arc$LT$T$C$A$GT$$u20$as$u20$core..ops..drop..Drop$GT$4drop17h97da8c70828f421fE', symObjAddr: 0x9CF0, symBinAddr: 0x536D4, symSize: 0x7C }
  - { offset: 0x148051, size: 0x8, addend: 0x0, symName: '__ZN72_$LT$alloc..sync..Weak$LT$T$C$A$GT$$u20$as$u20$core..ops..drop..Drop$GT$4drop17h2601376865d84731E', symObjAddr: 0x9DE8, symBinAddr: 0x53750, symSize: 0x144 }
  - { offset: 0x148221, size: 0x8, addend: 0x0, symName: '__ZN72_$LT$alloc..sync..Weak$LT$T$C$A$GT$$u20$as$u20$core..ops..drop..Drop$GT$4drop17h2bb4db44cb964f4dE', symObjAddr: 0x9F2C, symBinAddr: 0x53894, symSize: 0x144 }
  - { offset: 0x1483F1, size: 0x8, addend: 0x0, symName: '__ZN72_$LT$alloc..sync..Weak$LT$T$C$A$GT$$u20$as$u20$core..ops..drop..Drop$GT$4drop17h660f906ff63ca42eE', symObjAddr: 0xA1B4, symBinAddr: 0x539D8, symSize: 0x144 }
  - { offset: 0x14867D, size: 0x8, addend: 0x0, symName: '__ZN73_$LT$alloc..sync..Arc$LT$T$C$A$GT$$u20$as$u20$core..ops..deref..Deref$GT$5deref17hbd63e088ea1f366cE', symObjAddr: 0xA31C, symBinAddr: 0x53B1C, symSize: 0x1C }
  - { offset: 0x1490FE, size: 0x8, addend: 0x0, symName: '__ZN5alloc4sync12Arc$LT$T$GT$22decrement_strong_count17h4a941a8b5cd3b826E', symObjAddr: 0x87E4, symBinAddr: 0x53134, symSize: 0x24 }
  - { offset: 0x149137, size: 0x8, addend: 0x0, symName: '__ZN5alloc4sync12Arc$LT$T$GT$22decrement_strong_count17hb84e7b142a2ef577E', symObjAddr: 0x8808, symBinAddr: 0x53158, symSize: 0x24 }
  - { offset: 0x1491F2, size: 0x8, addend: 0x0, symName: '__ZN5alloc4sync12Arc$LT$T$GT$3new17h556e6e2d5fb8d593E', symObjAddr: 0x89E8, symBinAddr: 0x5317C, symSize: 0xC8 }
  - { offset: 0x14939C, size: 0x8, addend: 0x0, symName: '__ZN5alloc4sync16Arc$LT$T$C$A$GT$11from_raw_in17he5c70e98a481bcd2E', symObjAddr: 0x8BD8, symBinAddr: 0x53244, symSize: 0x7C }
  - { offset: 0x1494E7, size: 0x8, addend: 0x0, symName: '__ZN5alloc4sync16Arc$LT$T$C$A$GT$11from_raw_in17he881626aba5c7f2bE', symObjAddr: 0x8C54, symBinAddr: 0x532C0, symSize: 0x7C }
  - { offset: 0x1495E6, size: 0x8, addend: 0x0, symName: '__ZN5alloc4sync16Arc$LT$T$C$A$GT$25decrement_strong_count_in17h39d97a7beb4525f3E', symObjAddr: 0x8CD0, symBinAddr: 0x5333C, symSize: 0x34 }
  - { offset: 0x149648, size: 0x8, addend: 0x0, symName: '__ZN5alloc4sync16Arc$LT$T$C$A$GT$25decrement_strong_count_in17he85028e2f0d11024E', symObjAddr: 0x8D04, symBinAddr: 0x53370, symSize: 0x34 }
  - { offset: 0x149744, size: 0x8, addend: 0x0, symName: '__ZN5alloc4sync16Arc$LT$T$C$A$GT$7get_mut17hc9e6c1968c90d68fE', symObjAddr: 0x8E90, symBinAddr: 0x533A4, symSize: 0x50 }
  - { offset: 0x149797, size: 0x8, addend: 0x0, symName: '__ZN5alloc4sync16Arc$LT$T$C$A$GT$9drop_slow17h292ca2352777a795E', symObjAddr: 0x8EE0, symBinAddr: 0x533F4, symSize: 0x74 }
  - { offset: 0x1497F7, size: 0x8, addend: 0x0, symName: '__ZN5alloc4sync16Arc$LT$T$C$A$GT$9drop_slow17h6290b45e95ff7ce6E', symObjAddr: 0x8F98, symBinAddr: 0x53468, symSize: 0x44 }
  - { offset: 0x149857, size: 0x8, addend: 0x0, symName: '__ZN5alloc4sync16Arc$LT$T$C$A$GT$9drop_slow17ha6c438d995652718E', symObjAddr: 0x8FDC, symBinAddr: 0x534AC, symSize: 0x74 }
  - { offset: 0x1499B6, size: 0x8, addend: 0x0, symName: '__ZN5alloc4sync16Arc$LT$T$C$A$GT$9is_unique17h33263f01cb8b3e4cE', symObjAddr: 0x9050, symBinAddr: 0x53520, symSize: 0xBC }
  - { offset: 0x14F9A3, size: 0x8, addend: 0x0, symName: '__ZN4core3ptr101drop_in_place$LT$std..io..error..ErrorData$LT$alloc..boxed..Box$LT$std..io..error..Custom$GT$$GT$$GT$17h14c69647fe452e9dE', symObjAddr: 0x134C, symBinAddr: 0x53B80, symSize: 0x48 }
  - { offset: 0x14F9D2, size: 0x8, addend: 0x0, symName: '__ZN4core3ptr118drop_in_place$LT$alloc..boxed..Box$LT$dyn$u20$core..error..Error$u2b$core..marker..Send$u2b$core..marker..Sync$GT$$GT$17hc772ca18c1c57b07E', symObjAddr: 0x1428, symBinAddr: 0x53BC8, symSize: 0x80 }
  - { offset: 0x14FA01, size: 0x8, addend: 0x0, symName: '__ZN4core3ptr131drop_in_place$LT$jiff..shared..TzifFixed$LT$alloc..string..String$C$jiff..shared..util..array_str..ArrayStr$LT$30_usize$GT$$GT$$GT$17hc2d82c3fe6c9af40E', symObjAddr: 0x14CC, symBinAddr: 0x53C48, symSize: 0x5C }
  - { offset: 0x14FA30, size: 0x8, addend: 0x0, symName: '__ZN4core3ptr138drop_in_place$LT$alloc..sync..Arc$LT$jiff..tz..posix..PosixTimeZone$LT$jiff..shared..util..array_str..ArrayStr$LT$30_usize$GT$$GT$$GT$$GT$17h07fc47aa54d54fd1E', symObjAddr: 0x1528, symBinAddr: 0x53CA4, symSize: 0x24 }
  - { offset: 0x14FA5F, size: 0x8, addend: 0x0, symName: '__ZN4core3ptr166drop_in_place$LT$alloc..sync..Weak$LT$jiff..tz..posix..PosixTimeZone$LT$jiff..shared..util..array_str..ArrayStr$LT$30_usize$GT$$GT$$C$$RF$alloc..alloc..Global$GT$$GT$17he48be6aff9617698E', symObjAddr: 0x15DC, symBinAddr: 0x53CC8, symSize: 0x24 }
  - { offset: 0x14FA8E, size: 0x8, addend: 0x0, symName: '__ZN4core3ptr246drop_in_place$LT$jiff..shared..TzifTransitions$LT$alloc..vec..Vec$LT$i64$GT$$C$alloc..vec..Vec$LT$jiff..shared..TzifDateTime$GT$$C$alloc..vec..Vec$LT$jiff..shared..TzifDateTime$GT$$C$alloc..vec..Vec$LT$jiff..shared..TzifTransitionInfo$GT$$GT$$GT$17h5b39d76e604e4a78E', symObjAddr: 0x1694, symBinAddr: 0x53CEC, symSize: 0xC0 }
  - { offset: 0x14FABD, size: 0x8, addend: 0x0, symName: '__ZN4core3ptr374drop_in_place$LT$jiff..shared..Tzif$LT$alloc..string..String$C$jiff..shared..util..array_str..ArrayStr$LT$30_usize$GT$$C$alloc..vec..Vec$LT$jiff..shared..TzifLocalTimeType$GT$$C$alloc..vec..Vec$LT$i64$GT$$C$alloc..vec..Vec$LT$jiff..shared..TzifDateTime$GT$$C$alloc..vec..Vec$LT$jiff..shared..TzifDateTime$GT$$C$alloc..vec..Vec$LT$jiff..shared..TzifTransitionInfo$GT$$GT$$GT$17h8da432f6962d0a2bE', symObjAddr: 0x18BC, symBinAddr: 0x53DAC, symSize: 0x90 }
  - { offset: 0x14FAEC, size: 0x8, addend: 0x0, symName: '__ZN4core3ptr376drop_in_place$LT$jiff..tz..tzif..Tzif$LT$alloc..string..String$C$jiff..shared..util..array_str..ArrayStr$LT$30_usize$GT$$C$alloc..vec..Vec$LT$jiff..shared..TzifLocalTimeType$GT$$C$alloc..vec..Vec$LT$i64$GT$$C$alloc..vec..Vec$LT$jiff..shared..TzifDateTime$GT$$C$alloc..vec..Vec$LT$jiff..shared..TzifDateTime$GT$$C$alloc..vec..Vec$LT$jiff..shared..TzifTransitionInfo$GT$$GT$$GT$17h7addba015b7e8841E', symObjAddr: 0x194C, symBinAddr: 0x53E3C, symSize: 0x24 }
  - { offset: 0x14FB1B, size: 0x8, addend: 0x0, symName: '__ZN4core3ptr39drop_in_place$LT$jiff..error..Error$GT$17h15c1f79369c97ab1E', symObjAddr: 0x1970, symBinAddr: 0x53E60, symSize: 0x24 }
  - { offset: 0x14FB4A, size: 0x8, addend: 0x0, symName: '__ZN4core3ptr39drop_in_place$LT$std..path..PathBuf$GT$17hf8255d0ad008e03fE', symObjAddr: 0x19B8, symBinAddr: 0x53E84, symSize: 0x24 }
  - { offset: 0x14FB79, size: 0x8, addend: 0x0, symName: '__ZN4core3ptr400drop_in_place$LT$alloc..sync..Arc$LT$jiff..tz..tzif..Tzif$LT$alloc..string..String$C$jiff..shared..util..array_str..ArrayStr$LT$30_usize$GT$$C$alloc..vec..Vec$LT$jiff..shared..TzifLocalTimeType$GT$$C$alloc..vec..Vec$LT$i64$GT$$C$alloc..vec..Vec$LT$jiff..shared..TzifDateTime$GT$$C$alloc..vec..Vec$LT$jiff..shared..TzifDateTime$GT$$C$alloc..vec..Vec$LT$jiff..shared..TzifTransitionInfo$GT$$GT$$GT$$GT$17hb65d7bf50ba2ed09E', symObjAddr: 0x19DC, symBinAddr: 0x53EA8, symSize: 0x24 }
  - { offset: 0x14FBA8, size: 0x8, addend: 0x0, symName: '__ZN4core3ptr41drop_in_place$LT$jiff..error..IOError$GT$17h5def1ff893805442E', symObjAddr: 0x1A24, symBinAddr: 0x53ECC, symSize: 0x24 }
  - { offset: 0x14FBD7, size: 0x8, addend: 0x0, symName: '__ZN4core3ptr428drop_in_place$LT$alloc..sync..Weak$LT$jiff..tz..tzif..Tzif$LT$alloc..string..String$C$jiff..shared..util..array_str..ArrayStr$LT$30_usize$GT$$C$alloc..vec..Vec$LT$jiff..shared..TzifLocalTimeType$GT$$C$alloc..vec..Vec$LT$i64$GT$$C$alloc..vec..Vec$LT$jiff..shared..TzifDateTime$GT$$C$alloc..vec..Vec$LT$jiff..shared..TzifDateTime$GT$$C$alloc..vec..Vec$LT$jiff..shared..TzifTransitionInfo$GT$$GT$$C$$RF$alloc..alloc..Global$GT$$GT$17he21e98af6587ec2fE', symObjAddr: 0x1A8C, symBinAddr: 0x53EF0, symSize: 0x24 }
  - { offset: 0x14FC06, size: 0x8, addend: 0x0, symName: '__ZN4core3ptr42drop_in_place$LT$alloc..string..String$GT$17had91faf242628af3E', symObjAddr: 0x1AB0, symBinAddr: 0x53F14, symSize: 0x24 }
  - { offset: 0x14FC35, size: 0x8, addend: 0x0, symName: '__ZN4core3ptr42drop_in_place$LT$std..io..error..Error$GT$17hcba7d4be53f60549E', symObjAddr: 0x1AD4, symBinAddr: 0x53F38, symSize: 0x24 }
  - { offset: 0x14FC64, size: 0x8, addend: 0x0, symName: '__ZN4core3ptr43drop_in_place$LT$jiff..error..ErrorKind$GT$17he568651f76d815c4E', symObjAddr: 0x1AF8, symBinAddr: 0x53F5C, symSize: 0x15C }
  - { offset: 0x14FC93, size: 0x8, addend: 0x0, symName: '__ZN4core3ptr43drop_in_place$LT$std..io..error..Custom$GT$17h6b24fd9cd7d00bc2E', symObjAddr: 0x1C54, symBinAddr: 0x540B8, symSize: 0x24 }
  - { offset: 0x14FCC2, size: 0x8, addend: 0x0, symName: '__ZN4core3ptr44drop_in_place$LT$jiff..error..AdhocError$GT$17h88a40b3cc024670fE', symObjAddr: 0x1C78, symBinAddr: 0x540DC, symSize: 0x24 }
  - { offset: 0x14FCF1, size: 0x8, addend: 0x0, symName: '__ZN4core3ptr44drop_in_place$LT$jiff..error..ErrorInner$GT$17h153e4966c8f2dab8E', symObjAddr: 0x1C9C, symBinAddr: 0x54100, symSize: 0x5C }
  - { offset: 0x14FD20, size: 0x8, addend: 0x0, symName: '__ZN4core3ptr44drop_in_place$LT$jiff..error..fmt..Error$GT$17h561b0760bdbfdd3fE', symObjAddr: 0x1CF8, symBinAddr: 0x5415C, symSize: 0x80 }
  - { offset: 0x14FD4F, size: 0x8, addend: 0x0, symName: '__ZN4core3ptr46drop_in_place$LT$alloc..vec..Vec$LT$u8$GT$$GT$17h0f63b03449aea208E', symObjAddr: 0x1DC0, symBinAddr: 0x541DC, symSize: 0x5C }
  - { offset: 0x14FD7E, size: 0x8, addend: 0x0, symName: '__ZN4core3ptr47drop_in_place$LT$alloc..vec..Vec$LT$i64$GT$$GT$17he5bd434bbc30aca7E', symObjAddr: 0x1E40, symBinAddr: 0x54238, symSize: 0x5C }
  - { offset: 0x14FDAD, size: 0x8, addend: 0x0, symName: '__ZN4core3ptr47drop_in_place$LT$jiff..error..FilePathError$GT$17hb16319c87bbf48bcE', symObjAddr: 0x1E9C, symBinAddr: 0x54294, symSize: 0x24 }
  - { offset: 0x14FDDC, size: 0x8, addend: 0x0, symName: '__ZN4core3ptr47drop_in_place$LT$jiff..error..tz..db..Error$GT$17h347d17de6a4c36e2E', symObjAddr: 0x1EC0, symBinAddr: 0x542B8, symSize: 0x6C }
  - { offset: 0x14FE0B, size: 0x8, addend: 0x0, symName: '__ZN4core3ptr47drop_in_place$LT$std..ffi..os_str..OsString$GT$17hf0e12436d5468bd5E', symObjAddr: 0x1F2C, symBinAddr: 0x54324, symSize: 0x24 }
  - { offset: 0x14FE3A, size: 0x8, addend: 0x0, symName: '__ZN4core3ptr49drop_in_place$LT$alloc..boxed..Box$LT$str$GT$$GT$17h9e48adad11ac6021E', symObjAddr: 0x1F50, symBinAddr: 0x54348, symSize: 0x2C }
  - { offset: 0x14FE69, size: 0x8, addend: 0x0, symName: '__ZN4core3ptr49drop_in_place$LT$jiff..tz..timezone..TimeZone$GT$17h8056578b7f694a2bE', symObjAddr: 0x2020, symBinAddr: 0x54374, symSize: 0x24 }
  - { offset: 0x14FE98, size: 0x8, addend: 0x0, symName: '__ZN4core3ptr49drop_in_place$LT$std..sys..os_str..bytes..Buf$GT$17hb34e2f7f81bbbecbE', symObjAddr: 0x2044, symBinAddr: 0x54398, symSize: 0x24 }
  - { offset: 0x14FEC7, size: 0x8, addend: 0x0, symName: '__ZN4core3ptr51drop_in_place$LT$jiff..error..tz..offset..Error$GT$17h7014ee4b47d0eca1E', symObjAddr: 0x20B4, symBinAddr: 0x543BC, symSize: 0x88 }
  - { offset: 0x14FEF6, size: 0x8, addend: 0x0, symName: '__ZN4core3ptr51drop_in_place$LT$jiff..tz..timezone..repr..Repr$GT$17h4bb34987931e93f3E', symObjAddr: 0x2160, symBinAddr: 0x54444, symSize: 0x24 }
  - { offset: 0x14FF25, size: 0x8, addend: 0x0, symName: '__ZN4core3ptr53drop_in_place$LT$alloc..raw_vec..RawVec$LT$u8$GT$$GT$17ha41a23edacc97099E', symObjAddr: 0x2184, symBinAddr: 0x54468, symSize: 0x24 }
  - { offset: 0x14FF54, size: 0x8, addend: 0x0, symName: '__ZN4core3ptr53drop_in_place$LT$jiff..error..fmt..strtime..Error$GT$17hace5d5f97e492e6dE', symObjAddr: 0x21A8, symBinAddr: 0x5448C, symSize: 0x44 }
  - { offset: 0x14FF83, size: 0x8, addend: 0x0, symName: '__ZN4core3ptr54drop_in_place$LT$alloc..raw_vec..RawVec$LT$i64$GT$$GT$17h13bec8d2a7525bd5E', symObjAddr: 0x21EC, symBinAddr: 0x544D0, symSize: 0x24 }
  - { offset: 0x14FFB2, size: 0x8, addend: 0x0, symName: '__ZN4core3ptr54drop_in_place$LT$jiff..error..tz..ambiguous..Error$GT$17he3a164929b8fb470E', symObjAddr: 0x2210, symBinAddr: 0x544F4, symSize: 0x48 }
  - { offset: 0x14FFE1, size: 0x8, addend: 0x0, symName: '__ZN4core3ptr54drop_in_place$LT$jiff..error..util..OsStrUtf8Error$GT$17h2754264b80909afeE', symObjAddr: 0x2258, symBinAddr: 0x5453C, symSize: 0x24 }
  - { offset: 0x150010, size: 0x8, addend: 0x0, symName: '__ZN4core3ptr57drop_in_place$LT$std..io..error..repr_bitpacked..Repr$GT$17he8bf6c3307e51f2eE', symObjAddr: 0x2328, symBinAddr: 0x54560, symSize: 0x24 }
  - { offset: 0x15003F, size: 0x8, addend: 0x0, symName: '__ZN4core3ptr58drop_in_place$LT$alloc..boxed..Box$LT$$u5b$u8$u5d$$GT$$GT$17h41e2b724e73e14a8E', symObjAddr: 0x234C, symBinAddr: 0x54584, symSize: 0x2C }
  - { offset: 0x15006E, size: 0x8, addend: 0x0, symName: '__ZN4core3ptr67drop_in_place$LT$core..option..Option$LT$jiff..error..Error$GT$$GT$17h715135c718a94612E', symObjAddr: 0x239C, symBinAddr: 0x545B0, symSize: 0x40 }
  - { offset: 0x15009D, size: 0x8, addend: 0x0, symName: '__ZN4core3ptr68drop_in_place$LT$alloc..boxed..Box$LT$std..io..error..Custom$GT$$GT$17h825161acad25cf43E', symObjAddr: 0x23DC, symBinAddr: 0x545F0, symSize: 0x60 }
  - { offset: 0x1500CC, size: 0x8, addend: 0x0, symName: '__ZN4core3ptr68drop_in_place$LT$alloc..sync..Arc$LT$jiff..error..ErrorInner$GT$$GT$17he3cfe394d9290ff7E', symObjAddr: 0x243C, symBinAddr: 0x54650, symSize: 0x24 }
  - { offset: 0x1500FB, size: 0x8, addend: 0x0, symName: '__ZN4core3ptr69drop_in_place$LT$alloc..boxed..Box$LT$std..ffi..os_str..OsStr$GT$$GT$17hf286f4c7e8e2c074E', symObjAddr: 0x2484, symBinAddr: 0x54674, symSize: 0x2C }
  - { offset: 0x15012A, size: 0x8, addend: 0x0, symName: '__ZN4core3ptr70drop_in_place$LT$alloc..vec..Vec$LT$jiff..shared..TzifDateTime$GT$$GT$17h94e994593a986338E', symObjAddr: 0x24B0, symBinAddr: 0x546A0, symSize: 0x5C }
  - { offset: 0x150159, size: 0x8, addend: 0x0, symName: '__ZN4core3ptr70drop_in_place$LT$core..option..Option$LT$alloc..string..String$GT$$GT$17h89cd068164b8db5eE', symObjAddr: 0x250C, symBinAddr: 0x546FC, symSize: 0x48 }
  - { offset: 0x150188, size: 0x8, addend: 0x0, symName: '__ZN4core3ptr73drop_in_place$LT$alloc..sync..ArcInner$LT$jiff..error..ErrorInner$GT$$GT$17hed708842922b0744E', symObjAddr: 0x25C4, symBinAddr: 0x54744, symSize: 0x24 }
  - { offset: 0x1501B7, size: 0x8, addend: 0x0, symName: '__ZN4core3ptr75drop_in_place$LT$alloc..vec..Vec$LT$jiff..shared..TzifLocalTimeType$GT$$GT$17h0e0442d8ad43a761E', symObjAddr: 0x2628, symBinAddr: 0x54768, symSize: 0x5C }
  - { offset: 0x1501E6, size: 0x8, addend: 0x0, symName: '__ZN4core3ptr76drop_in_place$LT$alloc..vec..Vec$LT$jiff..shared..TzifTransitionInfo$GT$$GT$17he1e599f8bf29ed37E', symObjAddr: 0x2684, symBinAddr: 0x547C4, symSize: 0x5C }
  - { offset: 0x150215, size: 0x8, addend: 0x0, symName: '__ZN4core3ptr77drop_in_place$LT$alloc..raw_vec..RawVec$LT$jiff..shared..TzifDateTime$GT$$GT$17h9ceed2b66295ca42E', symObjAddr: 0x26E0, symBinAddr: 0x54820, symSize: 0x24 }
  - { offset: 0x150244, size: 0x8, addend: 0x0, symName: '__ZN4core3ptr78drop_in_place$LT$core..result..Result$LT$$LP$$RP$$C$jiff..error..Error$GT$$GT$17h6cab1aebd3a97515E', symObjAddr: 0x2744, symBinAddr: 0x54844, symSize: 0x40 }
  - { offset: 0x150273, size: 0x8, addend: 0x0, symName: '__ZN4core3ptr82drop_in_place$LT$alloc..raw_vec..RawVec$LT$jiff..shared..TzifLocalTimeType$GT$$GT$17he073556ff758cb2bE', symObjAddr: 0x27A8, symBinAddr: 0x54884, symSize: 0x24 }
  - { offset: 0x1502A2, size: 0x8, addend: 0x0, symName: '__ZN4core3ptr83drop_in_place$LT$alloc..raw_vec..RawVec$LT$jiff..shared..TzifTransitionInfo$GT$$GT$17hae769a21e3f9b620E', symObjAddr: 0x27CC, symBinAddr: 0x548A8, symSize: 0x24 }
  - { offset: 0x1502D1, size: 0x8, addend: 0x0, symName: '__ZN4core3ptr96drop_in_place$LT$alloc..sync..Weak$LT$jiff..error..ErrorInner$C$$RF$alloc..alloc..Global$GT$$GT$17h36a66fe978eab91bE', symObjAddr: 0x2968, symBinAddr: 0x548CC, symSize: 0x24 }
  - { offset: 0x150300, size: 0x8, addend: 0x0, symName: '__ZN4core3ptr96drop_in_place$LT$core..option..Option$LT$alloc..sync..Arc$LT$jiff..error..ErrorInner$GT$$GT$$GT$17h7b59d492c6ec4b58E', symObjAddr: 0x298C, symBinAddr: 0x548F0, symSize: 0x44 }
  - { offset: 0x1507FE, size: 0x8, addend: 0x0, symName: __ZN4core3ops8function6FnOnce9call_once17h7f3b26c7f6ab8420E, symObjAddr: 0xEE4, symBinAddr: 0x53B38, symSize: 0x1C }
  - { offset: 0x150842, size: 0x8, addend: 0x0, symName: __ZN4core3ops8function6FnOnce9call_once17hbae3de006c803184E, symObjAddr: 0x1094, symBinAddr: 0x53B54, symSize: 0x2C }
  - { offset: 0x150893, size: 0x8, addend: 0x0, symName: __ZN4core3str8converts19from_utf8_unchecked17h95fb7ac3990c8c70E, symObjAddr: 0x2A1C, symBinAddr: 0x54934, symSize: 0x18 }
  - { offset: 0x150FF4, size: 0x8, addend: 0x0, symName: '__ZN50_$LT$T$u20$as$u20$core..convert..Into$LT$U$GT$$GT$4into17h077cfd0b1fcbe59eE', symObjAddr: 0x844C, symBinAddr: 0x5494C, symSize: 0x1C }
  - { offset: 0x151052, size: 0x8, addend: 0x0, symName: '__ZN50_$LT$T$u20$as$u20$core..convert..Into$LT$U$GT$$GT$4into17h127a293f8d39aebfE', symObjAddr: 0x847C, symBinAddr: 0x54968, symSize: 0x14 }
  - { offset: 0x151092, size: 0x8, addend: 0x0, symName: '__ZN50_$LT$T$u20$as$u20$core..convert..Into$LT$U$GT$$GT$4into17h3bc787168e4a2303E', symObjAddr: 0x84F0, symBinAddr: 0x5497C, symSize: 0x1C }
  - { offset: 0x151745, size: 0x8, addend: 0x0, symName: '__ZN72_$LT$alloc..boxed..Box$LT$T$C$A$GT$$u20$as$u20$core..ops..drop..Drop$GT$4drop17h43ccc4e160521e28E', symObjAddr: 0xA5A4, symBinAddr: 0x54998, symSize: 0xD8 }
  - { offset: 0x15187E, size: 0x8, addend: 0x0, symName: '__ZN72_$LT$alloc..boxed..Box$LT$T$C$A$GT$$u20$as$u20$core..ops..drop..Drop$GT$4drop17h596f8ceeba1646fcE', symObjAddr: 0xA67C, symBinAddr: 0x54A70, symSize: 0xBC }
  - { offset: 0x1519B7, size: 0x8, addend: 0x0, symName: '__ZN72_$LT$alloc..boxed..Box$LT$T$C$A$GT$$u20$as$u20$core..ops..drop..Drop$GT$4drop17h8b2b4cce5fe4e75cE', symObjAddr: 0xA738, symBinAddr: 0x54B2C, symSize: 0xC4 }
  - { offset: 0x151AF0, size: 0x8, addend: 0x0, symName: '__ZN72_$LT$alloc..boxed..Box$LT$T$C$A$GT$$u20$as$u20$core..ops..drop..Drop$GT$4drop17hd93e90e89847665cE', symObjAddr: 0xA7FC, symBinAddr: 0x54BF0, symSize: 0xBC }
  - { offset: 0x151C29, size: 0x8, addend: 0x0, symName: '__ZN72_$LT$alloc..boxed..Box$LT$T$C$A$GT$$u20$as$u20$core..ops..drop..Drop$GT$4drop17hf7c62cf1ba3a8f5aE', symObjAddr: 0xA8B8, symBinAddr: 0x54CAC, symSize: 0xB0 }
  - { offset: 0x153314, size: 0x8, addend: 0x0, symName: __ZN4core4sync6atomic11atomic_load17hc6268d7e740602e0E, symObjAddr: 0x269C, symBinAddr: 0x54F60, symSize: 0xF8 }
  - { offset: 0x15335A, size: 0x8, addend: 0x0, symName: __ZN4core4sync6atomic12atomic_store17h3e759f7efb07bc7cE, symObjAddr: 0x288C, symBinAddr: 0x55058, symSize: 0xFC }
  - { offset: 0x1533AB, size: 0x8, addend: 0x0, symName: __ZN4core4sync6atomic23atomic_compare_exchange17h509bed6bd1480f1bE, symObjAddr: 0x2988, symBinAddr: 0x55154, symSize: 0x4B4 }
  - { offset: 0x153446, size: 0x8, addend: 0x0, symName: __ZN4core4sync6atomic5fence17h7f74fb86a9c743e2E, symObjAddr: 0x2E3C, symBinAddr: 0x55608, symSize: 0xB0 }
  - { offset: 0x153A10, size: 0x8, addend: 0x0, symName: '__ZN4core3num20_$LT$impl$u20$i8$GT$12unsigned_abs17h64a28e416c6fd1a2E', symObjAddr: 0x798, symBinAddr: 0x54D5C, symSize: 0x44 }
  - { offset: 0x153AD1, size: 0x8, addend: 0x0, symName: '__ZN4core3num20_$LT$impl$u20$u8$GT$18to_ascii_lowercase17h8e2947df6fd79735E', symObjAddr: 0xA48, symBinAddr: 0x54DA0, symSize: 0x58 }
  - { offset: 0x153B1D, size: 0x8, addend: 0x0, symName: '__ZN4core3num20_$LT$impl$u20$u8$GT$8is_ascii17hca03c18e712c5c71E', symObjAddr: 0xCC4, symBinAddr: 0x54DF8, symSize: 0x20 }
  - { offset: 0x153BBC, size: 0x8, addend: 0x0, symName: '__ZN4core3num21_$LT$impl$u20$i16$GT$12unsigned_abs17h14f4dca481664f7bE', symObjAddr: 0xE50, symBinAddr: 0x54E18, symSize: 0x44 }
  - { offset: 0x153CAC, size: 0x8, addend: 0x0, symName: '__ZN4core3num21_$LT$impl$u20$i32$GT$12unsigned_abs17hd067586b9c36fd95E', symObjAddr: 0x12CC, symBinAddr: 0x54E5C, symSize: 0x40 }
  - { offset: 0x153D60, size: 0x8, addend: 0x0, symName: '__ZN4core3num23_$LT$impl$u20$usize$GT$13unchecked_add18precondition_check17h2a6b525ecff0d9bbE', symObjAddr: 0x2578, symBinAddr: 0x54E9C, symSize: 0x64 }
  - { offset: 0x153DDF, size: 0x8, addend: 0x0, symName: '__ZN4core3num23_$LT$impl$u20$usize$GT$13unchecked_sub18precondition_check17h2e951b07bb59ad4cE', symObjAddr: 0x263C, symBinAddr: 0x54F00, symSize: 0x60 }
  - { offset: 0x153ED9, size: 0x8, addend: 0x0, symName: '__ZN50_$LT$T$u20$as$u20$core..convert..Into$LT$U$GT$$GT$4into17h0e2ce77ff14c179bE', symObjAddr: 0x5F7C, symBinAddr: 0x557B0, symSize: 0x14 }
  - { offset: 0x15412D, size: 0x8, addend: 0x0, symName: __ZN4core9ub_checks23maybe_is_nonoverlapping7runtime17ha77d62c0b9c6b5ccE, symObjAddr: 0x3038, symBinAddr: 0x556B8, symSize: 0xD8 }
  - { offset: 0x156276, size: 0x8, addend: 0x0, symName: '__ZN4jiff5error3fmt99_$LT$impl$u20$core..convert..From$LT$jiff..error..fmt..Error$GT$$u20$for$u20$jiff..error..Error$GT$4from17hf49411feddaf727fE', symObjAddr: 0x54A4, symBinAddr: 0x2A69F4, symSize: 0x40 }
  - { offset: 0x156453, size: 0x8, addend: 0x0, symName: '__ZN4jiff5error15signed_duration111_$LT$impl$u20$core..convert..From$LT$jiff..error..signed_duration..Error$GT$$u20$for$u20$jiff..error..Error$GT$4from17h8c7fa801c428bfb1E', symObjAddr: 0x506C, symBinAddr: 0x2A69B8, symSize: 0x3C }
  - { offset: 0x156E01, size: 0x8, addend: 0x0, symName: '__ZN88_$LT$jiff..error..Error$u20$as$u20$core..convert..From$LT$jiff..error..ErrorKind$GT$$GT$4from17h8f8589cf314ff042E', symObjAddr: 0x7838, symBinAddr: 0x557C4, symSize: 0x48 }
  - { offset: 0x156E5F, size: 0x8, addend: 0x0, symName: '__ZN92_$LT$core..result..Result$LT$T$C$E$GT$$u20$as$u20$jiff..error..ErrorContext$LT$T$C$E$GT$$GT$7context28_$u7b$$u7b$closure$u7d$$u7d$17h5fc68439afbeb06fE', symObjAddr: 0x8CB8, symBinAddr: 0x5580C, symSize: 0xDC }
  - { offset: 0x156EB8, size: 0x8, addend: 0x0, symName: '__ZN92_$LT$core..result..Result$LT$T$C$E$GT$$u20$as$u20$jiff..error..ErrorContext$LT$T$C$E$GT$$GT$7context28_$u7b$$u7b$closure$u7d$$u7d$17h963080232fb0465fE', symObjAddr: 0x9C40, symBinAddr: 0x558E8, symSize: 0xC8 }
  - { offset: 0x1580F3, size: 0x8, addend: 0x0, symName: '__ZN4jiff4util1b102_$LT$impl$u20$core..convert..From$LT$jiff..util..b..BoundsError$GT$$u20$for$u20$jiff..error..Error$GT$4from17h435fa58fb0d4a4f0E', symObjAddr: 0x4FE4, symBinAddr: 0x55790, symSize: 0x20 }
  - { offset: 0x15964A, size: 0x8, addend: 0x0, symName: __ZN4jiff5error5Error12context_impl17ha54b5053698bbb24E, symObjAddr: 0x56D0, symBinAddr: 0x2A6A34, symSize: 0x288 }
  - { offset: 0x159700, size: 0x8, addend: 0x0, symName: __ZN4jiff5error5Error6bounds17h3ae1ac6dc323ac4dE, symObjAddr: 0x5C9C, symBinAddr: 0x2A6CBC, symSize: 0x34 }
  - { offset: 0x15981C, size: 0x8, addend: 0x0, symName: __ZN8anstream5strip9write_all17hdce54da8c81ed36eE, symObjAddr: 0x3EA8, symBinAddr: 0x57638, symSize: 0x104 }
  - { offset: 0x159927, size: 0x8, addend: 0x0, symName: '__ZN71_$LT$std..io..stdio..Stderr$u20$as$u20$anstream..stream..IsTerminal$GT$11is_terminal17h8488599e7d539cf7E', symObjAddr: 0x1A14, symBinAddr: 0x56A34, symSize: 0x24 }
  - { offset: 0x159959, size: 0x8, addend: 0x0, symName: '__ZN71_$LT$std..io..stdio..Stdout$u20$as$u20$anstream..stream..IsTerminal$GT$11is_terminal17he183713463ab84bbE', symObjAddr: 0x1A38, symBinAddr: 0x56A58, symSize: 0x24 }
  - { offset: 0x159C50, size: 0x8, addend: 0x0, symName: __ZN8anstream4auto6choice17hf4ca988ae1fb1897E, symObjAddr: 0x39DC, symBinAddr: 0x5742C, symSize: 0x144 }
  - { offset: 0x159E22, size: 0x8, addend: 0x0, symName: '__ZN81_$LT$anstyle_parse..state..definitions..State$u20$as$u20$core..cmp..PartialEq$GT$2eq17hf10c595831c6b005E', symObjAddr: 0x1F4C, symBinAddr: 0x56D54, symSize: 0x34 }
  - { offset: 0x159E9C, size: 0x8, addend: 0x0, symName: '__ZN82_$LT$anstyle_parse..state..definitions..Action$u20$as$u20$core..cmp..PartialEq$GT$2eq17he089ec8116437e80E', symObjAddr: 0x1F80, symBinAddr: 0x56D88, symSize: 0x34 }
  - { offset: 0x159F16, size: 0x8, addend: 0x0, symName: '__ZN83_$LT$anstyle_parse..state..definitions..State$u20$as$u20$core..default..Default$GT$7default17h9211fd9ed971b372E', symObjAddr: 0x323C, symBinAddr: 0x56DBC, symSize: 0x8 }
  - { offset: 0x15A08C, size: 0x8, addend: 0x0, symName: '__ZN153_$LT$core..result..Result$LT$T$C$F$GT$$u20$as$u20$core..ops..try_trait..FromResidual$LT$core..result..Result$LT$core..convert..Infallible$C$E$GT$$GT$$GT$13from_residual17h2c1216368a8281f1E', symObjAddr: 0x80, symBinAddr: 0x559C0, symSize: 0x24 }
  - { offset: 0x15A0D5, size: 0x8, addend: 0x0, symName: '__ZN153_$LT$core..result..Result$LT$T$C$F$GT$$u20$as$u20$core..ops..try_trait..FromResidual$LT$core..result..Result$LT$core..convert..Infallible$C$E$GT$$GT$$GT$13from_residual17h5d9e3f3a82937925E', symObjAddr: 0xA4, symBinAddr: 0x559E4, symSize: 0x30 }
  - { offset: 0x15A324, size: 0x8, addend: 0x0, symName: '__ZN79_$LT$core..result..Result$LT$T$C$E$GT$$u20$as$u20$core..ops..try_trait..Try$GT$6branch17h3b33b3b02aeb3475E', symObjAddr: 0x1E2C, symBinAddr: 0x56D14, symSize: 0x40 }
